EXPORTS 
	??_R0?AU?$wrapexcept@Vjson_parser_error@json_parser@property_tree@boost@@@boost@@@8 	 DATA
	??_R0?AU?$wrapexcept@Vlock_error@boost@@@boost@@@8 	 DATA
	??_R0?AU?$wrapexcept@Vptree_bad_data@property_tree@boost@@@boost@@@8 	 DATA
	??_R0?AU?$wrapexcept@Vptree_bad_path@property_tree@boost@@@boost@@@8 	 DATA
	??_R0?AU?$wrapexcept@Vthread_resource_error@boost@@@boost@@@8 	 DATA
	??_R0?AU_Crt_new_delete@std@@@8 	 DATA
	??_R0?AV?$_Iosb@H@std@@@8 	 DATA
	??_R0?AV?$_Node_class@DV?$regex_traits@D@std@@@std@@@8 	 DATA
	??_R0?AV?$_Node_str@D@std@@@8 	 DATA
	??_R0?AV?$_Ref_count@VRoutingGraph@Trellis@@@std@@@8 	 DATA
	??_R0?AV?$_Ref_count@VTileBitDatabase@Trellis@@@std@@@8 	 DATA
	??_R0?AV?$_Ref_count_obj2@UDedupChipdb@DDChipDb@Trellis@@@std@@@8 	 DATA
	??_R0?AV?$_Ref_count_obj2@UOptimizedChipdb@DDChipDb@Trellis@@@std@@@8 	 DATA
	??_R0?AV?$_Ref_count_obj2@V?$vector@V?$vector@DV?$allocator@D@std@@@std@@V?$allocator@V?$vector@DV?$allocator@D@std@@@std@@@2@@std@@@std@@@8 	 DATA
	??_R0?AV?$_Ref_count_obj2@VTile@Trellis@@@std@@@8 	 DATA
	??_R0?AV?$basic_filebuf@DU?$char_traits@D@std@@@std@@@8 	 DATA
	??_R0?AV?$basic_ifstream@DU?$char_traits@D@std@@@std@@@8 	 DATA
	??_R0?AV?$basic_ios@DU?$char_traits@D@std@@@std@@@8 	 DATA
	??_R0?AV?$basic_iostream@DU?$char_traits@D@std@@@std@@@8 	 DATA
	??_R0?AV?$basic_istream@DU?$char_traits@D@std@@@std@@@8 	 DATA
	??_R0?AV?$basic_istringstream@DU?$char_traits@D@std@@V?$allocator@D@2@@std@@@8 	 DATA
	??_R0?AV?$basic_ofstream@DU?$char_traits@D@std@@@std@@@8 	 DATA
	??_R0?AV?$basic_ostream@DU?$char_traits@D@std@@@std@@@8 	 DATA
	??_R0?AV?$basic_ostringstream@DU?$char_traits@D@std@@V?$allocator@D@2@@std@@@8 	 DATA
	??_R0?AV?$basic_streambuf@DU?$char_traits@D@std@@@std@@@8 	 DATA
	??_R0?AV?$basic_string@DU?$char_traits@D@std@@V?$allocator@D@2@@std@@@8 	 DATA
	??_R0?AV?$basic_stringbuf@DU?$char_traits@D@std@@V?$allocator@D@2@@std@@@8 	 DATA
	??_R0?AV?$basic_stringstream@DU?$char_traits@D@std@@V?$allocator@D@2@@std@@@8 	 DATA
	??_R0?AV?$collate@D@std@@@8 	 DATA
	??_R0?AV?$collate_byname@D@std@@@8 	 DATA
	??_R0?AV?$holder@V?$basic_string@DU?$char_traits@D@std@@V?$allocator@D@2@@std@@@any@boost@@@8 	 DATA
	??_R0?AV?$holder@V?$string_path@V?$basic_string@DU?$char_traits@D@std@@V?$allocator@D@2@@std@@U?$id_translator@V?$basic_string@DU?$char_traits@D@std@@V?$allocator@D@2@@std@@@property_tree@boost@@@property_tree@boost@@@any@boost@@@8 	 DATA
	??_R0?AV?$string_path@V?$basic_string@DU?$char_traits@D@std@@V?$allocator@D@2@@std@@U?$id_translator@V?$basic_string@DU?$char_traits@D@std@@V?$allocator@D@2@@std@@@property_tree@boost@@@property_tree@boost@@@8 	 DATA
	??_R0?AVBitstreamParseError@Trellis@@@8 	 DATA
	??_R0?AVDatabaseConflictError@Trellis@@@8 	 DATA
	??_R0?AV_Facet_base@std@@@8 	 DATA
	??_R0?AV_Node_assert@std@@@8 	 DATA
	??_R0?AV_Node_back@std@@@8 	 DATA
	??_R0?AV_Node_base@std@@@8 	 DATA
	??_R0?AV_Node_capture@std@@@8 	 DATA
	??_R0?AV_Node_end_group@std@@@8 	 DATA
	??_R0?AV_Node_end_rep@std@@@8 	 DATA
	??_R0?AV_Node_endif@std@@@8 	 DATA
	??_R0?AV_Node_if@std@@@8 	 DATA
	??_R0?AV_Node_rep@std@@@8 	 DATA
	??_R0?AV_Ref_count_base@std@@@8 	 DATA
	??_R0?AV_Root_node@std@@@8 	 DATA
	??_R0?AVbad_alloc@std@@@8 	 DATA
	??_R0?AVbad_array_new_length@std@@@8 	 DATA
	??_R0?AVbad_cast@std@@@8 	 DATA
	??_R0?AVclone_base@exception_detail@boost@@@8 	 DATA
	??_R0?AVerror_category@system@boost@@@8 	 DATA
	??_R0?AVexception@boost@@@8 	 DATA
	??_R0?AVexception@std@@@8 	 DATA
	??_R0?AVfacet@locale@std@@@8 	 DATA
	??_R0?AVfile_parser_error@property_tree@boost@@@8 	 DATA
	??_R0?AVgeneric_error_category@detail@system@boost@@@8 	 DATA
	??_R0?AVinterop_error_category@detail@system@boost@@@8 	 DATA
	??_R0?AVios_base@std@@@8 	 DATA
	??_R0?AVjson_parser_error@json_parser@property_tree@boost@@@8 	 DATA
	??_R0?AVlock_error@boost@@@8 	 DATA
	??_R0?AVplaceholder@any@boost@@@8 	 DATA
	??_R0?AVplaceholder@detail@anys@boost@@@8 	 DATA
	??_R0?AVptree_bad_data@property_tree@boost@@@8 	 DATA
	??_R0?AVptree_bad_path@property_tree@boost@@@8 	 DATA
	??_R0?AVptree_error@property_tree@boost@@@8 	 DATA
	??_R0?AVruntime_error@std@@@8 	 DATA
	??_R0?AVsystem_error@system@boost@@@8 	 DATA
	??_R0?AVsystem_error_category@detail@system@boost@@@8 	 DATA
	??_R0?AVthread_exception@boost@@@8 	 DATA
	??_R0?AVthread_resource_error@boost@@@8 	 DATA
	?GlobalLoc@Trellis@@3ULocation@1@B 	 DATA
	?_OptionsStorage@?1??__local_stdio_printf_options@@9@4_KA 	 DATA
	?_Psave@?$_Facetptr@V?$codecvt@DDU_Mbstatet@@@std@@@std@@2PEBVfacet@locale@2@EB 	 DATA
	?_Psave@?$_Facetptr@V?$collate@D@std@@@std@@2PEBVfacet@locale@2@EB 	 DATA
	?_Psave@?$_Facetptr@V?$ctype@D@std@@@std@@2PEBVfacet@locale@2@EB 	 DATA
	?_Stinit@?1??_Init@?$basic_filebuf@DU?$char_traits@D@std@@@std@@IEAAXPEAU_iobuf@@W4_Initfl@23@@Z@4U_Mbstatet@@A 	 DATA
	?center_map@Trellis@@3V?$map@U?$pair@HH@std@@U12@U?$less@U?$pair@HH@std@@@2@V?$allocator@U?$pair@$$CBU?$pair@HH@std@@U12@@std@@@2@@std@@A 	 DATA
	?clk_col@Trellis@@3V?$map@U?$pair@HH@std@@HU?$less@U?$pair@HH@std@@@2@V?$allocator@U?$pair@$$CBU?$pair@HH@std@@H@std@@@2@@std@@A 	 DATA
	?instance@?$generic_cat_holder@X@detail@system@boost@@2Vgeneric_error_category@234@B 	 DATA
	?instance@?$interop_cat_holder@X@detail@system@boost@@2Vinterop_error_category@234@B 	 DATA
	?instance@?$system_cat_holder@X@detail@system@boost@@2Vsystem_error_category@234@B 	 DATA
	?pdata@?1???B?$integral_constant@_N$00@boost@@QEBAAEBU?$bool_@$00@mpl@2@XZ@4PEBXEB 	 DATA
	?pdata@?1???B?$integral_constant@_N$0A@@boost@@QEBAAEBU?$bool_@$0A@@mpl@2@XZ@4PEBXEB 	 DATA
	?start_stride@Trellis@@3V?$map@U?$pair@HH@std@@HU?$less@U?$pair@HH@std@@@2@V?$allocator@U?$pair@$$CBU?$pair@HH@std@@H@std@@@2@@std@@A 	 DATA
	?verbosity@Trellis@@3W4VerbosityLevel@1@A 	 DATA
	_Avx2WmemEnabledWeakValue 	 DATA
	??$?0$$CBII$0A@@?$pair@$$CBII@std@@QEAA@AEBI0@Z
	??$?0$$CBU?$pair@HH@std@@V?$vector@USpineInfo@Trellis@@V?$allocator@USpineInfo@Trellis@@@std@@@1@$0A@@?$pair@$$CBU?$pair@HH@std@@V?$vector@USpineInfo@Trellis@@V?$allocator@USpineInfo@Trellis@@@std@@@2@@std@@QEAA@AEBU?$pair@HH@1@AEBV?$vector@USpineInfo@Trellis@@V?$allocator@USpineInfo@Trellis@@@std@@@1@@Z
	??$?0$$QEAU?$pair@HH@std@@$$Z$$V@?$pair@$$CBU?$pair@HH@std@@H@std@@QEAA@Upiecewise_construct_t@1@V?$tuple@$$QEAU?$pair@HH@std@@@1@V?$tuple@$$V@1@@Z
	??$?0$$QEAU?$pair@HH@std@@$$Z$$V@?$pair@$$CBU?$pair@HH@std@@U12@@std@@QEAA@Upiecewise_construct_t@1@V?$tuple@$$QEAU?$pair@HH@std@@@1@V?$tuple@$$V@1@@Z
	??$?0$$QEAU?$pair@HH@std@@$$Z$$V@?$pair@$$CBU?$pair@HH@std@@V?$vector@USpineInfo@Trellis@@V?$allocator@USpineInfo@Trellis@@@std@@@2@@std@@QEAA@Upiecewise_construct_t@1@V?$tuple@$$QEAU?$pair@HH@std@@@1@V?$tuple@$$V@1@@Z
	??$?0$$V@?$_Compressed_pair@V?$allocator@D@std@@V?$_String_val@U?$_Simple_types@D@std@@@2@$00@std@@QEAA@U_Zero_then_variadic_args_t@1@@Z
	??$?0$$V@?$_Compressed_pair@V?$allocator@E@std@@V?$_Vector_val@U?$_Simple_types@E@std@@@2@$00@std@@QEAA@U_Zero_then_variadic_args_t@1@@Z
	??$?0$$V@?$_Compressed_pair@V?$allocator@G@std@@V?$_Vector_val@U?$_Simple_types@G@std@@@2@$00@std@@QEAA@U_Zero_then_variadic_args_t@1@@Z
	??$?0$$V@?$_Compressed_pair@V?$allocator@H@std@@V?$_Vector_val@U?$_Simple_types@H@std@@@2@$00@std@@QEAA@U_Zero_then_variadic_args_t@1@@Z
	??$?0$$V@?$_Compressed_pair@V?$allocator@I@std@@V?$_Vector_val@U?$_Simple_types@I@std@@@2@$00@std@@QEAA@U_Zero_then_variadic_args_t@1@@Z
	??$?0$$V@?$_Compressed_pair@V?$allocator@U?$_Tree_node@U?$pair@$$CBGV?$vector@GV?$allocator@G@std@@@std@@@std@@PEAX@std@@@std@@V?$_Tree_val@U?$_Tree_simple_types@U?$pair@$$CBGV?$vector@GV?$allocator@G@std@@@std@@@std@@@std@@@2@$00@std@@QEAA@U_Zero_then_variadic_args_t@1@@Z
	??$?0$$V@?$_Compressed_pair@V?$allocator@U?$_Tree_node@U?$pair@$$CBHU?$pair@URoutingId@Trellis@@W4PortDirection@2@@std@@@std@@PEAX@std@@@std@@V?$_Tree_val@U?$_Tree_simple_types@U?$pair@$$CBHU?$pair@URoutingId@Trellis@@W4PortDirection@2@@std@@@std@@@std@@@2@$00@std@@QEAA@U_Zero_then_variadic_args_t@1@@Z
	??$?0$$V@?$_Compressed_pair@V?$allocator@U?$_Tree_node@U?$pair@$$CBHURoutingArc@Trellis@@@std@@PEAX@std@@@std@@V?$_Tree_val@U?$_Tree_simple_types@U?$pair@$$CBHURoutingArc@Trellis@@@std@@@std@@@2@$00@std@@QEAA@U_Zero_then_variadic_args_t@1@@Z
	??$?0$$V@?$_Compressed_pair@V?$allocator@U?$_Tree_node@U?$pair@$$CBHURoutingBel@Trellis@@@std@@PEAX@std@@@std@@V?$_Tree_val@U?$_Tree_simple_types@U?$pair@$$CBHURoutingBel@Trellis@@@std@@@std@@@2@$00@std@@QEAA@U_Zero_then_variadic_args_t@1@@Z
	??$?0$$V@?$_Compressed_pair@V?$allocator@U?$_Tree_node@U?$pair@$$CBHURoutingWire@Trellis@@@std@@PEAX@std@@@std@@V?$_Tree_val@U?$_Tree_simple_types@U?$pair@$$CBHURoutingWire@Trellis@@@std@@@std@@@2@$00@std@@QEAA@U_Zero_then_variadic_args_t@1@@Z
	??$?0$$V@?$_Compressed_pair@V?$allocator@U?$_Tree_node@U?$pair@$$CBII@std@@PEAX@std@@@std@@V?$_Tree_val@U?$_Tree_simple_types@U?$pair@$$CBII@std@@@std@@@2@$00@std@@QEAA@U_Zero_then_variadic_args_t@1@@Z
	??$?0$$V@?$_Compressed_pair@V?$allocator@U?$_Tree_node@U?$pair@$$CBU?$pair@HH@std@@H@std@@PEAX@std@@@std@@V?$_Tree_val@U?$_Tree_simple_types@U?$pair@$$CBU?$pair@HH@std@@H@std@@@std@@@2@$00@std@@QEAA@U_Zero_then_variadic_args_t@1@@Z
	??$?0$$V@?$_Compressed_pair@V?$allocator@U?$_Tree_node@U?$pair@$$CBU?$pair@HH@std@@U12@@std@@PEAX@std@@@std@@V?$_Tree_val@U?$_Tree_simple_types@U?$pair@$$CBU?$pair@HH@std@@U12@@std@@@std@@@2@$00@std@@QEAA@U_Zero_then_variadic_args_t@1@@Z
	??$?0$$V@?$_Compressed_pair@V?$allocator@U?$_Tree_node@U?$pair@$$CBU?$pair@HH@std@@V?$vector@USpineInfo@Trellis@@V?$allocator@USpineInfo@Trellis@@@std@@@2@@std@@PEAX@std@@@std@@V?$_Tree_val@U?$_Tree_simple_types@U?$pair@$$CBU?$pair@HH@std@@V?$vector@USpineInfo@Trellis@@V?$allocator@USpineInfo@Trellis@@@std@@@2@@std@@@std@@@2@$00@std@@QEAA@U_Zero_then_variadic_args_t@1@@Z
	??$?0$$V@?$_Compressed_pair@V?$allocator@U?$_Tree_node@U?$pair@$$CBU?$pair@_K_K@std@@ULocationData@DDChipDb@Trellis@@@std@@PEAX@std@@@std@@V?$_Tree_val@U?$_Tree_simple_types@U?$pair@$$CBU?$pair@_K_K@std@@ULocationData@DDChipDb@Trellis@@@std@@@std@@@2@$00@std@@QEAA@U_Zero_then_variadic_args_t@1@@Z
	??$?0$$V@?$_Compressed_pair@V?$allocator@U?$_Tree_node@U?$pair@$$CBULocation@Trellis@@U?$pair@_K_K@std@@@std@@PEAX@std@@@std@@V?$_Tree_val@U?$_Tree_simple_types@U?$pair@$$CBULocation@Trellis@@U?$pair@_K_K@std@@@std@@@std@@@2@$00@std@@QEAA@U_Zero_then_variadic_args_t@1@@Z
	??$?0$$V@?$_Compressed_pair@V?$allocator@U?$_Tree_node@U?$pair@$$CBULocation@Trellis@@ULocationData@DDChipDb@2@@std@@PEAX@std@@@std@@V?$_Tree_val@U?$_Tree_simple_types@U?$pair@$$CBULocation@Trellis@@ULocationData@DDChipDb@2@@std@@@std@@@2@$00@std@@QEAA@U_Zero_then_variadic_args_t@1@@Z
	??$?0$$V@?$_Compressed_pair@V?$allocator@U?$_Tree_node@U?$pair@$$CBULocation@Trellis@@URoutingTileLoc@2@@std@@PEAX@std@@@std@@V?$_Tree_val@U?$_Tree_simple_types@U?$pair@$$CBULocation@Trellis@@URoutingTileLoc@2@@std@@@std@@@2@$00@std@@QEAA@U_Zero_then_variadic_args_t@1@@Z
	??$?0$$V@?$_Compressed_pair@V?$allocator@U?$_Tree_node@U?$pair@$$CBV?$basic_string@DU?$char_traits@D@std@@V?$allocator@D@2@@std@@UArcData@Trellis@@@std@@PEAX@std@@@std@@V?$_Tree_val@U?$_Tree_simple_types@U?$pair@$$CBV?$basic_string@DU?$char_traits@D@std@@V?$allocator@D@2@@std@@UArcData@Trellis@@@std@@@std@@@2@$00@std@@QEAA@U_Zero_then_variadic_args_t@1@@Z
	??$?0$$V@?$_Compressed_pair@V?$allocator@U?$_Tree_node@U?$pair@$$CBV?$basic_string@DU?$char_traits@D@std@@V?$allocator@D@2@@std@@UBitGroup@Trellis@@@std@@PEAX@std@@@std@@V?$_Tree_val@U?$_Tree_simple_types@U?$pair@$$CBV?$basic_string@DU?$char_traits@D@std@@V?$allocator@D@2@@std@@UBitGroup@Trellis@@@std@@@std@@@2@$00@std@@QEAA@U_Zero_then_variadic_args_t@1@@Z
	??$?0$$V@?$_Compressed_pair@V?$allocator@U?$_Tree_node@U?$pair@$$CBV?$basic_string@DU?$char_traits@D@std@@V?$allocator@D@2@@std@@UEnumSettingBits@Trellis@@@std@@PEAX@std@@@std@@V?$_Tree_val@U?$_Tree_simple_types@U?$pair@$$CBV?$basic_string@DU?$char_traits@D@std@@V?$allocator@D@2@@std@@UEnumSettingBits@Trellis@@@std@@@std@@@2@$00@std@@QEAA@U_Zero_then_variadic_args_t@1@@Z
	??$?0$$V@?$_Compressed_pair@V?$allocator@U?$_Tree_node@U?$pair@$$CBV?$basic_string@DU?$char_traits@D@std@@V?$allocator@D@2@@std@@UMuxBits@Trellis@@@std@@PEAX@std@@@std@@V?$_Tree_val@U?$_Tree_simple_types@U?$pair@$$CBV?$basic_string@DU?$char_traits@D@std@@V?$allocator@D@2@@std@@UMuxBits@Trellis@@@std@@@std@@@2@$00@std@@QEAA@U_Zero_then_variadic_args_t@1@@Z
	??$?0$$V@?$_Compressed_pair@V?$allocator@U?$_Tree_node@U?$pair@$$CBV?$basic_string@DU?$char_traits@D@std@@V?$allocator@D@2@@std@@UTileConfig@Trellis@@@std@@PEAX@std@@@std@@V?$_Tree_val@U?$_Tree_simple_types@U?$pair@$$CBV?$basic_string@DU?$char_traits@D@std@@V?$allocator@D@2@@std@@UTileConfig@Trellis@@@std@@@std@@@2@$00@std@@QEAA@U_Zero_then_variadic_args_t@1@@Z
	??$?0$$V@?$_Compressed_pair@V?$allocator@U?$_Tree_node@U?$pair@$$CBV?$basic_string@DU?$char_traits@D@std@@V?$allocator@D@2@@std@@UWordSettingBits@Trellis@@@std@@PEAX@std@@@std@@V?$_Tree_val@U?$_Tree_simple_types@U?$pair@$$CBV?$basic_string@DU?$char_traits@D@std@@V?$allocator@D@2@@std@@UWordSettingBits@Trellis@@@std@@@std@@@2@$00@std@@QEAA@U_Zero_then_variadic_args_t@1@@Z
	??$?0$$V@?$_Compressed_pair@V?$allocator@U?$_Tree_node@U?$pair@$$CBV?$basic_string@DU?$char_traits@D@std@@V?$allocator@D@2@@std@@V12@@std@@PEAX@std@@@std@@V?$_Tree_val@U?$_Tree_simple_types@U?$pair@$$CBV?$basic_string@DU?$char_traits@D@std@@V?$allocator@D@2@@std@@V12@@std@@@std@@@2@$00@std@@QEAA@U_Zero_then_variadic_args_t@1@@Z
	??$?0$$V@?$_Compressed_pair@V?$allocator@U?$_Tree_node@U?$pair@$$CBV?$basic_string@DU?$char_traits@D@std@@V?$allocator@D@2@@std@@V?$basic_ptree@V?$basic_string@DU?$char_traits@D@std@@V?$allocator@D@2@@std@@V12@U?$less@V?$basic_string@DU?$char_traits@D@std@@V?$allocator@D@2@@std@@@2@@property_tree@boost@@@std@@PEAX@std@@@std@@V?$_Tree_val@U?$_Tree_simple_types@U?$pair@$$CBV?$basic_string@DU?$char_traits@D@std@@V?$allocator@D@2@@std@@V?$basic_ptree@V?$basic_string@DU?$char_traits@D@std@@V?$allocator@D@2@@std@@V12@U?$less@V?$basic_string@DU?$char_traits@D@std@@V?$allocator@D@2@@std@@@2@@property_tree@boost@@@std@@@std@@@2@$00@std@@QEAA@U_Zero_then_variadic_args_t@1@@Z
	??$?0$$V@?$_Compressed_pair@V?$allocator@U?$_Tree_node@U?$pair@$$CBV?$basic_string@DU?$char_traits@D@std@@V?$allocator@D@2@@std@@V?$set@UFixedConnection@Trellis@@U?$less@UFixedConnection@Trellis@@@std@@V?$allocator@UFixedConnection@Trellis@@@4@@2@@std@@PEAX@std@@@std@@V?$_Tree_val@U?$_Tree_simple_types@U?$pair@$$CBV?$basic_string@DU?$char_traits@D@std@@V?$allocator@D@2@@std@@V?$set@UFixedConnection@Trellis@@U?$less@UFixedConnection@Trellis@@@std@@V?$allocator@UFixedConnection@Trellis@@@4@@2@@std@@@std@@@2@$00@std@@QEAA@U_Zero_then_variadic_args_t@1@@Z
	??$?0$$V@?$_Compressed_pair@V?$allocator@U?$_Tree_node@U?$pair@$$CBV?$basic_string@DU?$char_traits@D@std@@V?$allocator@D@2@@std@@V?$shared_ptr@VTile@Trellis@@@2@@std@@PEAX@std@@@std@@V?$_Tree_val@U?$_Tree_simple_types@U?$pair@$$CBV?$basic_string@DU?$char_traits@D@std@@V?$allocator@D@2@@std@@V?$shared_ptr@VTile@Trellis@@@2@@std@@@std@@@2@$00@std@@QEAA@U_Zero_then_variadic_args_t@1@@Z
	??$?0$$V@?$_Compressed_pair@V?$allocator@U?$_Tree_node@U?$pair@$$CBV?$basic_string@DU?$char_traits@D@std@@V?$allocator@D@2@@std@@V?$vector@UChangedBit@Trellis@@V?$allocator@UChangedBit@Trellis@@@std@@@2@@std@@PEAX@std@@@std@@V?$_Tree_val@U?$_Tree_simple_types@U?$pair@$$CBV?$basic_string@DU?$char_traits@D@std@@V?$allocator@D@2@@std@@V?$vector@UChangedBit@Trellis@@V?$allocator@UChangedBit@Trellis@@@std@@@2@@std@@@std@@@2@$00@std@@QEAA@U_Zero_then_variadic_args_t@1@@Z
	??$?0$$V@?$_Compressed_pair@V?$allocator@U?$_Tree_node@UConfigBit@Trellis@@PEAX@std@@@std@@V?$_Tree_val@U?$_Tree_simple_types@UConfigBit@Trellis@@@std@@@2@$00@std@@QEAA@U_Zero_then_variadic_args_t@1@@Z
	??$?0$$V@?$_Compressed_pair@V?$allocator@U?$_Tree_node@UFixedConnection@Trellis@@PEAX@std@@@std@@V?$_Tree_val@U?$_Tree_simple_types@UFixedConnection@Trellis@@@std@@@2@$00@std@@QEAA@U_Zero_then_variadic_args_t@1@@Z
	??$?0$$V@?$_Compressed_pair@V?$allocator@U?$_Tree_node@URelId@DDChipDb@Trellis@@PEAX@std@@@std@@V?$_Tree_val@U?$_Tree_simple_types@URelId@DDChipDb@Trellis@@@std@@@2@$00@std@@QEAA@U_Zero_then_variadic_args_t@1@@Z
	??$?0$$V@?$_Compressed_pair@V?$allocator@U?$_Tree_node@V?$basic_string@DU?$char_traits@D@std@@V?$allocator@D@2@@std@@PEAX@std@@@std@@V?$_Tree_val@U?$_Tree_simple_types@V?$basic_string@DU?$char_traits@D@std@@V?$allocator@D@2@@std@@@std@@@2@$00@std@@QEAA@U_Zero_then_variadic_args_t@1@@Z
	??$?0$$V@?$_Compressed_pair@V?$allocator@U?$pair@HE@std@@@std@@V?$_Vector_val@U?$_Simple_types@U?$pair@HE@std@@@std@@@2@$00@std@@QEAA@U_Zero_then_variadic_args_t@1@@Z
	??$?0$$V@?$_Compressed_pair@V?$allocator@U?$pair@URoutingId@Trellis@@H@std@@@std@@V?$_Vector_val@U?$_Simple_types@U?$pair@URoutingId@Trellis@@H@std@@@std@@@2@$00@std@@QEAA@U_Zero_then_variadic_args_t@1@@Z
	??$?0$$V@?$_Compressed_pair@V?$allocator@U?$pair@V?$basic_string@DU?$char_traits@D@std@@V?$allocator@D@2@@std@@V12@@std@@@std@@V?$_Vector_val@U?$_Simple_types@U?$pair@V?$basic_string@DU?$char_traits@D@std@@V?$allocator@D@2@@std@@V12@@std@@@std@@@2@$00@std@@QEAA@U_Zero_then_variadic_args_t@1@@Z
	??$?0$$V@?$_Compressed_pair@V?$allocator@U?$pair@V?$basic_string@DU?$char_traits@D@std@@V?$allocator@D@2@@std@@_N@std@@@std@@V?$_Vector_val@U?$_Simple_types@U?$pair@V?$basic_string@DU?$char_traits@D@std@@V?$allocator@D@2@@std@@_N@std@@@std@@@2@$00@std@@QEAA@U_Zero_then_variadic_args_t@1@@Z
	??$?0$$V@?$_Compressed_pair@V?$allocator@UBelData@DDChipDb@Trellis@@@std@@V?$_Vector_val@U?$_Simple_types@UBelData@DDChipDb@Trellis@@@std@@@2@$00@std@@QEAA@U_Zero_then_variadic_args_t@1@@Z
	??$?0$$V@?$_Compressed_pair@V?$allocator@UBelPort@DDChipDb@Trellis@@@std@@V?$_Vector_val@U?$_Simple_types@UBelPort@DDChipDb@Trellis@@@std@@@2@$00@std@@QEAA@U_Zero_then_variadic_args_t@1@@Z
	??$?0$$V@?$_Compressed_pair@V?$allocator@UBelWire@DDChipDb@Trellis@@@std@@V?$_Vector_val@U?$_Simple_types@UBelWire@DDChipDb@Trellis@@@std@@@2@$00@std@@QEAA@U_Zero_then_variadic_args_t@1@@Z
	??$?0$$V@?$_Compressed_pair@V?$allocator@UBitGroup@Trellis@@@std@@V?$_Vector_val@U?$_Simple_types@UBitGroup@Trellis@@@std@@@2@$00@std@@QEAA@U_Zero_then_variadic_args_t@1@@Z
	??$?0$$V@?$_Compressed_pair@V?$allocator@UChangedBit@Trellis@@@std@@V?$_Vector_val@U?$_Simple_types@UChangedBit@Trellis@@@std@@@2@$00@std@@QEAA@U_Zero_then_variadic_args_t@1@@Z
	??$?0$$V@?$_Compressed_pair@V?$allocator@UConfigArc@Trellis@@@std@@V?$_Vector_val@U?$_Simple_types@UConfigArc@Trellis@@@std@@@2@$00@std@@QEAA@U_Zero_then_variadic_args_t@1@@Z
	??$?0$$V@?$_Compressed_pair@V?$allocator@UConfigEnum@Trellis@@@std@@V?$_Vector_val@U?$_Simple_types@UConfigEnum@Trellis@@@std@@@2@$00@std@@QEAA@U_Zero_then_variadic_args_t@1@@Z
	??$?0$$V@?$_Compressed_pair@V?$allocator@UConfigUnknown@Trellis@@@std@@V?$_Vector_val@U?$_Simple_types@UConfigUnknown@Trellis@@@std@@@2@$00@std@@QEAA@U_Zero_then_variadic_args_t@1@@Z
	??$?0$$V@?$_Compressed_pair@V?$allocator@UConfigWord@Trellis@@@std@@V?$_Vector_val@U?$_Simple_types@UConfigWord@Trellis@@@std@@@2@$00@std@@QEAA@U_Zero_then_variadic_args_t@1@@Z
	??$?0$$V@?$_Compressed_pair@V?$allocator@UDdArcData@DDChipDb@Trellis@@@std@@V?$_Vector_val@U?$_Simple_types@UDdArcData@DDChipDb@Trellis@@@std@@@2@$00@std@@QEAA@U_Zero_then_variadic_args_t@1@@Z
	??$?0$$V@?$_Compressed_pair@V?$allocator@UFixedConnection@Trellis@@@std@@V?$_Vector_val@U?$_Simple_types@UFixedConnection@Trellis@@@std@@@2@$00@std@@QEAA@U_Zero_then_variadic_args_t@1@@Z
	??$?0$$V@?$_Compressed_pair@V?$allocator@UGlobalRegion@Trellis@@@std@@V?$_Vector_val@U?$_Simple_types@UGlobalRegion@Trellis@@@std@@@2@$00@std@@QEAA@U_Zero_then_variadic_args_t@1@@Z
	??$?0$$V@?$_Compressed_pair@V?$allocator@URoutingId@Trellis@@@std@@V?$_Vector_val@U?$_Simple_types@URoutingId@Trellis@@@std@@@2@$00@std@@QEAA@U_Zero_then_variadic_args_t@1@@Z
	??$?0$$V@?$_Compressed_pair@V?$allocator@USiteInfo@Trellis@@@std@@V?$_Vector_val@U?$_Simple_types@USiteInfo@Trellis@@@std@@@2@$00@std@@QEAA@U_Zero_then_variadic_args_t@1@@Z
	??$?0$$V@?$_Compressed_pair@V?$allocator@USpineInfo@Trellis@@@std@@V?$_Vector_val@U?$_Simple_types@USpineInfo@Trellis@@@std@@@2@$00@std@@QEAA@U_Zero_then_variadic_args_t@1@@Z
	??$?0$$V@?$_Compressed_pair@V?$allocator@USpineSegment@Trellis@@@std@@V?$_Vector_val@U?$_Simple_types@USpineSegment@Trellis@@@std@@@2@$00@std@@QEAA@U_Zero_then_variadic_args_t@1@@Z
	??$?0$$V@?$_Compressed_pair@V?$allocator@UTapSegment@Trellis@@@std@@V?$_Vector_val@U?$_Simple_types@UTapSegment@Trellis@@@std@@@2@$00@std@@QEAA@U_Zero_then_variadic_args_t@1@@Z
	??$?0$$V@?$_Compressed_pair@V?$allocator@UTileGroup@Trellis@@@std@@V?$_Vector_val@U?$_Simple_types@UTileGroup@Trellis@@@std@@@2@$00@std@@QEAA@U_Zero_then_variadic_args_t@1@@Z
	??$?0$$V@?$_Compressed_pair@V?$allocator@UTileInfo@Trellis@@@std@@V?$_Vector_val@U?$_Simple_types@UTileInfo@Trellis@@@std@@@2@$00@std@@QEAA@U_Zero_then_variadic_args_t@1@@Z
	??$?0$$V@?$_Compressed_pair@V?$allocator@UWireData@DDChipDb@Trellis@@@std@@V?$_Vector_val@U?$_Simple_types@UWireData@DDChipDb@Trellis@@@std@@@2@$00@std@@QEAA@U_Zero_then_variadic_args_t@1@@Z
	??$?0$$V@?$_Compressed_pair@V?$allocator@U_Grp_t@?$_Tgt_state_t@V?$_String_const_iterator@V?$_String_val@U?$_Simple_types@D@std@@@std@@@std@@@std@@@std@@V?$_Vector_val@U?$_Simple_types@U_Grp_t@?$_Tgt_state_t@V?$_String_const_iterator@V?$_String_val@U?$_Simple_types@D@std@@@std@@@std@@@std@@@std@@@2@$00@std@@QEAA@U_Zero_then_variadic_args_t@1@@Z
	??$?0$$V@?$_Compressed_pair@V?$allocator@U_Loop_vals_v2_t@std@@@std@@V?$_Vector_val@U?$_Simple_types@U_Loop_vals_v2_t@std@@@std@@@2@$00@std@@QEAA@U_Zero_then_variadic_args_t@1@@Z
	??$?0$$V@?$_Compressed_pair@V?$allocator@Ulayer@?$standard_callbacks@V?$basic_ptree@V?$basic_string@DU?$char_traits@D@std@@V?$allocator@D@2@@std@@V12@U?$less@V?$basic_string@DU?$char_traits@D@std@@V?$allocator@D@2@@std@@@2@@property_tree@boost@@@detail@json_parser@property_tree@boost@@@std@@V?$_Vector_val@U?$_Simple_types@Ulayer@?$standard_callbacks@V?$basic_ptree@V?$basic_string@DU?$char_traits@D@std@@V?$allocator@D@2@@std@@V12@U?$less@V?$basic_string@DU?$char_traits@D@std@@V?$allocator@D@2@@std@@@2@@property_tree@boost@@@detail@json_parser@property_tree@boost@@@std@@@2@$00@std@@QEAA@U_Zero_then_variadic_args_t@1@@Z
	??$?0$$V@?$_Compressed_pair@V?$allocator@V?$_Tgt_state_t@V?$_String_const_iterator@V?$_String_val@U?$_Simple_types@D@std@@@std@@@std@@@std@@@std@@V?$_Vector_val@U?$_Simple_types@V?$_Tgt_state_t@V?$_String_const_iterator@V?$_String_val@U?$_Simple_types@D@std@@@std@@@std@@@std@@@std@@@2@$00@std@@QEAA@U_Zero_then_variadic_args_t@1@@Z
	??$?0$$V@?$_Compressed_pair@V?$allocator@V?$basic_string@DU?$char_traits@D@std@@V?$allocator@D@2@@std@@@std@@V?$_Vector_val@U?$_Simple_types@V?$basic_string@DU?$char_traits@D@std@@V?$allocator@D@2@@std@@@std@@@2@$00@std@@QEAA@U_Zero_then_variadic_args_t@1@@Z
	??$?0$$V@?$_Compressed_pair@V?$allocator@V?$shared_ptr@VTile@Trellis@@@std@@@std@@V?$_Vector_val@U?$_Simple_types@V?$shared_ptr@VTile@Trellis@@@std@@@std@@@2@$00@std@@QEAA@U_Zero_then_variadic_args_t@1@@Z
	??$?0$$V@?$_Compressed_pair@V?$allocator@V?$sub_match@V?$_String_const_iterator@V?$_String_val@U?$_Simple_types@D@std@@@std@@@std@@@std@@@std@@V?$_Vector_val@U?$_Simple_types@V?$sub_match@V?$_String_const_iterator@V?$_String_val@U?$_Simple_types@D@std@@@std@@@std@@@std@@@std@@@2@$00@std@@QEAA@U_Zero_then_variadic_args_t@1@@Z
	??$?0$$V@?$_Compressed_pair@V?$allocator@V?$vector@DV?$allocator@D@std@@@std@@@std@@V?$_Vector_val@U?$_Simple_types@V?$vector@DV?$allocator@D@std@@@std@@@std@@@2@$00@std@@QEAA@U_Zero_then_variadic_args_t@1@@Z
	??$?0$$V@?$_Compressed_pair@V?$allocator@V?$vector@EV?$allocator@E@std@@@std@@@std@@V?$_Vector_val@U?$_Simple_types@V?$vector@EV?$allocator@E@std@@@std@@@std@@@2@$00@std@@QEAA@U_Zero_then_variadic_args_t@1@@Z
	??$?0$$V@?$_Compressed_pair@V?$allocator@V?$vector@HV?$allocator@H@std@@@std@@@std@@V?$_Vector_val@U?$_Simple_types@V?$vector@HV?$allocator@H@std@@@std@@@std@@@2@$00@std@@QEAA@U_Zero_then_variadic_args_t@1@@Z
	??$?0$$V@?$_Compressed_pair@V?$allocator@V?$vector@U?$pair@V?$basic_string@DU?$char_traits@D@std@@V?$allocator@D@2@@std@@V12@@std@@V?$allocator@U?$pair@V?$basic_string@DU?$char_traits@D@std@@V?$allocator@D@2@@std@@V12@@std@@@2@@std@@@std@@V?$_Vector_val@U?$_Simple_types@V?$vector@U?$pair@V?$basic_string@DU?$char_traits@D@std@@V?$allocator@D@2@@std@@V12@@std@@V?$allocator@U?$pair@V?$basic_string@DU?$char_traits@D@std@@V?$allocator@D@2@@std@@V12@@std@@@2@@std@@@std@@@2@$00@std@@QEAA@U_Zero_then_variadic_args_t@1@@Z
	??$?0$$V@?$_Compressed_pair@V?$allocator@V?$vector@V?$vector@U?$pair@V?$basic_string@DU?$char_traits@D@std@@V?$allocator@D@2@@std@@V12@@std@@V?$allocator@U?$pair@V?$basic_string@DU?$char_traits@D@std@@V?$allocator@D@2@@std@@V12@@std@@@2@@std@@V?$allocator@V?$vector@U?$pair@V?$basic_string@DU?$char_traits@D@std@@V?$allocator@D@2@@std@@V12@@std@@V?$allocator@U?$pair@V?$basic_string@DU?$char_traits@D@std@@V?$allocator@D@2@@std@@V12@@std@@@2@@std@@@2@@std@@@std@@V?$_Vector_val@U?$_Simple_types@V?$vector@V?$vector@U?$pair@V?$basic_string@DU?$char_traits@D@std@@V?$allocator@D@2@@std@@V12@@std@@V?$allocator@U?$pair@V?$basic_string@DU?$char_traits@D@std@@V?$allocator@D@2@@std@@V12@@std@@@2@@std@@V?$allocator@V?$vector@U?$pair@V?$basic_string@DU?$char_traits@D@std@@V?$allocator@D@2@@std@@V12@@std@@V?$allocator@U?$pair@V?$basic_string@DU?$char_traits@D@std@@V?$allocator@D@2@@std@@V12@@std@@@2@@std@@@2@@std@@@std@@@2@$00@std@@QEAA@U_Zero_then_variadic_args_t@1@@Z
	??$?0$$V@?$_Ref_count_obj2@V?$vector@V?$vector@DV?$allocator@D@std@@@std@@V?$allocator@V?$vector@DV?$allocator@D@std@@@std@@@2@@std@@@std@@QEAA@XZ
	??$?0AEAD$0A@@?$tuple@AEAD@std@@QEAA@AEAD@Z
	??$?0AEAD@?$_Tuple_val@AEAD@std@@QEAA@AEAD@Z
	??$?0AEAE$0A@@?$tuple@AEAE@std@@QEAA@AEAE@Z
	??$?0AEAE@?$_Tuple_val@AEAE@std@@QEAA@AEAE@Z
	??$?0AEAH$0A@@?$tuple@AEAHAEAH@std@@QEAA@AEAH0@Z
	??$?0AEAH@?$_Tuple_val@AEAH@std@@QEAA@AEAH@Z
	??$?0AEAHAEAH$0A@@?$pair@HH@std@@QEAA@AEAH0@Z
	??$?0AEAHH$0A@@?$pair@HH@std@@QEAA@AEAH$$QEAH@Z
	??$?0AEAPEAE@?$_Compressed_pair@U?$default_delete@$$BY0A@E@std@@PEAE$00@std@@QEAA@U_Zero_then_variadic_args_t@1@AEAPEAE@Z
	??$?0AEAPEAU?$_List_node@U?$pair@$$CBUTileLocator@Trellis@@V?$shared_ptr@VTileBitDatabase@Trellis@@@std@@@std@@PEAX@std@@_N$0A@@?$pair@PEAU?$_List_node@U?$pair@$$CBUTileLocator@Trellis@@V?$shared_ptr@VTileBitDatabase@Trellis@@@std@@@std@@PEAX@std@@_N@std@@QEAA@AEAPEAU?$_List_node@U?$pair@$$CBUTileLocator@Trellis@@V?$shared_ptr@VTileBitDatabase@Trellis@@@std@@@std@@PEAX@1@$$QEA_N@Z
	??$?0AEAPEAU?$_List_node@U?$pair@$$CBV?$basic_string@DU?$char_traits@D@std@@V?$allocator@D@2@@std@@H@std@@PEAX@std@@_N$0A@@?$pair@PEAU?$_List_node@U?$pair@$$CBV?$basic_string@DU?$char_traits@D@std@@V?$allocator@D@2@@std@@H@std@@PEAX@std@@_N@std@@QEAA@AEAPEAU?$_List_node@U?$pair@$$CBV?$basic_string@DU?$char_traits@D@std@@V?$allocator@D@2@@std@@H@std@@PEAX@1@$$QEA_N@Z
	??$?0AEAPEAU?$_Tree_node@U?$pair@$$CBV?$basic_string@DU?$char_traits@D@std@@V?$allocator@D@2@@std@@UEnumSettingBits@Trellis@@@std@@PEAX@std@@AEAPEAU01@$0A@@?$pair@PEAU?$_Tree_node@U?$pair@$$CBV?$basic_string@DU?$char_traits@D@std@@V?$allocator@D@2@@std@@UEnumSettingBits@Trellis@@@std@@PEAX@std@@PEAU12@@std@@QEAA@AEAPEAU?$_Tree_node@U?$pair@$$CBV?$basic_string@DU?$char_traits@D@std@@V?$allocator@D@2@@std@@UEnumSettingBits@Trellis@@@std@@PEAX@1@0@Z
	??$?0AEAPEAU?$_Tree_node@U?$pair@$$CBV?$basic_string@DU?$char_traits@D@std@@V?$allocator@D@2@@std@@UWordSettingBits@Trellis@@@std@@PEAX@std@@AEAPEAU01@$0A@@?$pair@PEAU?$_Tree_node@U?$pair@$$CBV?$basic_string@DU?$char_traits@D@std@@V?$allocator@D@2@@std@@UWordSettingBits@Trellis@@@std@@PEAX@std@@PEAU12@@std@@QEAA@AEAPEAU?$_Tree_node@U?$pair@$$CBV?$basic_string@DU?$char_traits@D@std@@V?$allocator@D@2@@std@@UWordSettingBits@Trellis@@@std@@PEAX@1@0@Z
	??$?0AEAPEAU?$_Tree_node@U?$pair@$$CBV?$basic_string@DU?$char_traits@D@std@@V?$allocator@D@2@@std@@V?$set@UFixedConnection@Trellis@@U?$less@UFixedConnection@Trellis@@@std@@V?$allocator@UFixedConnection@Trellis@@@4@@2@@std@@PEAX@std@@AEAPEAU01@$0A@@?$pair@PEAU?$_Tree_node@U?$pair@$$CBV?$basic_string@DU?$char_traits@D@std@@V?$allocator@D@2@@std@@V?$set@UFixedConnection@Trellis@@U?$less@UFixedConnection@Trellis@@@std@@V?$allocator@UFixedConnection@Trellis@@@4@@2@@std@@PEAX@std@@PEAU12@@std@@QEAA@AEAPEAU?$_Tree_node@U?$pair@$$CBV?$basic_string@DU?$char_traits@D@std@@V?$allocator@D@2@@std@@V?$set@UFixedConnection@Trellis@@U?$less@UFixedConnection@Trellis@@@std@@V?$allocator@UFixedConnection@Trellis@@@4@@2@@std@@PEAX@1@0@Z
	??$?0AEAPEAU?$_Tree_node@UConfigBit@Trellis@@PEAX@std@@_N$0A@@?$pair@PEAU?$_Tree_node@UConfigBit@Trellis@@PEAX@std@@_N@std@@QEAA@AEAPEAU?$_Tree_node@UConfigBit@Trellis@@PEAX@1@$$QEA_N@Z
	??$?0AEAPEAU?$_Tree_node@UFixedConnection@Trellis@@PEAX@std@@_N$0A@@?$pair@PEAU?$_Tree_node@UFixedConnection@Trellis@@PEAX@std@@_N@std@@QEAA@AEAPEAU?$_Tree_node@UFixedConnection@Trellis@@PEAX@1@$$QEA_N@Z
	??$?0AEAPEAU?$_Tree_node@URelId@DDChipDb@Trellis@@PEAX@std@@_N$0A@@?$pair@PEAU?$_Tree_node@URelId@DDChipDb@Trellis@@PEAX@std@@_N@std@@QEAA@AEAPEAU?$_Tree_node@URelId@DDChipDb@Trellis@@PEAX@1@$$QEA_N@Z
	??$?0AEAPEAU?$_Tree_node@V?$basic_string@DU?$char_traits@D@std@@V?$allocator@D@2@@std@@PEAX@std@@_N$0A@@?$pair@PEAU?$_Tree_node@V?$basic_string@DU?$char_traits@D@std@@V?$allocator@D@2@@std@@PEAX@std@@_N@std@@QEAA@AEAPEAU?$_Tree_node@V?$basic_string@DU?$char_traits@D@std@@V?$allocator@D@2@@std@@PEAX@1@$$QEA_N@Z
	??$?0AEAPEAU?$copy_map_entry@U?$sequenced_index_node@U?$ordered_index_node@Unull_augment_policy@detail@multi_index@boost@@U?$index_node_base@U?$pair@$$CBV?$basic_string@DU?$char_traits@D@std@@V?$allocator@D@2@@std@@V?$basic_ptree@V?$basic_string@DU?$char_traits@D@std@@V?$allocator@D@2@@std@@V12@U?$less@V?$basic_string@DU?$char_traits@D@std@@V?$allocator@D@2@@std@@@2@@property_tree@boost@@@std@@V?$allocator@U?$pair@$$CBV?$basic_string@DU?$char_traits@D@std@@V?$allocator@D@2@@std@@V?$basic_ptree@V?$basic_string@DU?$char_traits@D@std@@V?$allocator@D@2@@std@@V12@U?$less@V?$basic_string@DU?$char_traits@D@std@@V?$allocator@D@2@@std@@@2@@property_tree@boost@@@std@@@2@@234@@detail@multi_index@boost@@@detail@multi_index@boost@@@detail@multi_index@boost@@AEAPEAU0123@$0A@@?$pair@PEAU?$copy_map_entry@U?$sequenced_index_node@U?$ordered_index_node@Unull_augment_policy@detail@multi_index@boost@@U?$index_node_base@U?$pair@$$CBV?$basic_string@DU?$char_traits@D@std@@V?$allocator@D@2@@std@@V?$basic_ptree@V?$basic_string@DU?$char_traits@D@std@@V?$allocator@D@2@@std@@V12@U?$less@V?$basic_string@DU?$char_traits@D@std@@V?$allocator@D@2@@std@@@2@@property_tree@boost@@@std@@V?$allocator@U?$pair@$$CBV?$basic_string@DU?$char_traits@D@std@@V?$allocator@D@2@@std@@V?$basic_ptree@V?$basic_string@DU?$char_traits@D@std@@V?$allocator@D@2@@std@@V12@U?$less@V?$basic_string@DU?$char_traits@D@std@@V?$allocator@D@2@@std@@@2@@property_tree@boost@@@std@@@2@@234@@detail@multi_index@boost@@@detail@multi_index@boost@@@detail@multi_index@boost@@PEAU1234@@std@@QEAA@AEAPEAU?$copy_map_entry@U?$sequenced_index_node@U?$ordered_index_node@Unull_augment_policy@detail@multi_index@boost@@U?$index_node_base@U?$pair@$$CBV?$basic_string@DU?$char_traits@D@std@@V?$allocator@D@2@@std@@V?$basic_ptree@V?$basic_string@DU?$char_traits@D@std@@V?$allocator@D@2@@std@@V12@U?$less@V?$basic_string@DU?$char_traits@D@std@@V?$allocator@D@2@@std@@@2@@property_tree@boost@@@std@@V?$allocator@U?$pair@$$CBV?$basic_string@DU?$char_traits@D@std@@V?$allocator@D@2@@std@@V?$basic_ptree@V?$basic_string@DU?$char_traits@D@std@@V?$allocator@D@2@@std@@V12@U?$less@V?$basic_string@DU?$char_traits@D@std@@V?$allocator@D@2@@std@@@2@@property_tree@boost@@@std@@@2@@234@@detail@multi_index@boost@@@detail@multi_index@boost@@@detail@multi_index@boost@@0@Z
	??$?0AEAPEAU?$ordered_index_node@Unull_augment_policy@detail@multi_index@boost@@U?$index_node_base@U?$pair@$$CBV?$basic_string@DU?$char_traits@D@std@@V?$allocator@D@2@@std@@V?$basic_ptree@V?$basic_string@DU?$char_traits@D@std@@V?$allocator@D@2@@std@@V12@U?$less@V?$basic_string@DU?$char_traits@D@std@@V?$allocator@D@2@@std@@@2@@property_tree@boost@@@std@@V?$allocator@U?$pair@$$CBV?$basic_string@DU?$char_traits@D@std@@V?$allocator@D@2@@std@@V?$basic_ptree@V?$basic_string@DU?$char_traits@D@std@@V?$allocator@D@2@@std@@V12@U?$less@V?$basic_string@DU?$char_traits@D@std@@V?$allocator@D@2@@std@@@2@@property_tree@boost@@@std@@@2@@234@@detail@multi_index@boost@@AEAPEAU0123@$0A@@?$pair@PEAU?$ordered_index_node@Unull_augment_policy@detail@multi_index@boost@@U?$index_node_base@U?$pair@$$CBV?$basic_string@DU?$char_traits@D@std@@V?$allocator@D@2@@std@@V?$basic_ptree@V?$basic_string@DU?$char_traits@D@std@@V?$allocator@D@2@@std@@V12@U?$less@V?$basic_string@DU?$char_traits@D@std@@V?$allocator@D@2@@std@@@2@@property_tree@boost@@@std@@V?$allocator@U?$pair@$$CBV?$basic_string@DU?$char_traits@D@std@@V?$allocator@D@2@@std@@V?$basic_ptree@V?$basic_string@DU?$char_traits@D@std@@V?$allocator@D@2@@std@@V12@U?$less@V?$basic_string@DU?$char_traits@D@std@@V?$allocator@D@2@@std@@@2@@property_tree@boost@@@std@@@2@@234@@detail@multi_index@boost@@PEAU1234@@std@@QEAA@AEAPEAU?$ordered_index_node@Unull_augment_policy@detail@multi_index@boost@@U?$index_node_base@U?$pair@$$CBV?$basic_string@DU?$char_traits@D@std@@V?$allocator@D@2@@std@@V?$basic_ptree@V?$basic_string@DU?$char_traits@D@std@@V?$allocator@D@2@@std@@V12@U?$less@V?$basic_string@DU?$char_traits@D@std@@V?$allocator@D@2@@std@@@2@@property_tree@boost@@@std@@V?$allocator@U?$pair@$$CBV?$basic_string@DU?$char_traits@D@std@@V?$allocator@D@2@@std@@V?$basic_ptree@V?$basic_string@DU?$char_traits@D@std@@V?$allocator@D@2@@std@@V12@U?$less@V?$basic_string@DU?$char_traits@D@std@@V?$allocator@D@2@@std@@@2@@property_tree@boost@@@std@@@2@@234@@detail@multi_index@boost@@0@Z
	??$?0AEAPEAU?$sequenced_index_node@U?$ordered_index_node@Unull_augment_policy@detail@multi_index@boost@@U?$index_node_base@U?$pair@$$CBV?$basic_string@DU?$char_traits@D@std@@V?$allocator@D@2@@std@@V?$basic_ptree@V?$basic_string@DU?$char_traits@D@std@@V?$allocator@D@2@@std@@V12@U?$less@V?$basic_string@DU?$char_traits@D@std@@V?$allocator@D@2@@std@@@2@@property_tree@boost@@@std@@V?$allocator@U?$pair@$$CBV?$basic_string@DU?$char_traits@D@std@@V?$allocator@D@2@@std@@V?$basic_ptree@V?$basic_string@DU?$char_traits@D@std@@V?$allocator@D@2@@std@@V12@U?$less@V?$basic_string@DU?$char_traits@D@std@@V?$allocator@D@2@@std@@@2@@property_tree@boost@@@std@@@2@@234@@detail@multi_index@boost@@@detail@multi_index@boost@@_N$0A@@?$pair@PEAU?$sequenced_index_node@U?$ordered_index_node@Unull_augment_policy@detail@multi_index@boost@@U?$index_node_base@U?$pair@$$CBV?$basic_string@DU?$char_traits@D@std@@V?$allocator@D@2@@std@@V?$basic_ptree@V?$basic_string@DU?$char_traits@D@std@@V?$allocator@D@2@@std@@V12@U?$less@V?$basic_string@DU?$char_traits@D@std@@V?$allocator@D@2@@std@@@2@@property_tree@boost@@@std@@V?$allocator@U?$pair@$$CBV?$basic_string@DU?$char_traits@D@std@@V?$allocator@D@2@@std@@V?$basic_ptree@V?$basic_string@DU?$char_traits@D@std@@V?$allocator@D@2@@std@@V12@U?$less@V?$basic_string@DU?$char_traits@D@std@@V?$allocator@D@2@@std@@@2@@property_tree@boost@@@std@@@2@@234@@detail@multi_index@boost@@@detail@multi_index@boost@@_N@std@@QEAA@AEAPEAU?$sequenced_index_node@U?$ordered_index_node@Unull_augment_policy@detail@multi_index@boost@@U?$index_node_base@U?$pair@$$CBV?$basic_string@DU?$char_traits@D@std@@V?$allocator@D@2@@std@@V?$basic_ptree@V?$basic_string@DU?$char_traits@D@std@@V?$allocator@D@2@@std@@V12@U?$less@V?$basic_string@DU?$char_traits@D@std@@V?$allocator@D@2@@std@@@2@@property_tree@boost@@@std@@V?$allocator@U?$pair@$$CBV?$basic_string@DU?$char_traits@D@std@@V?$allocator@D@2@@std@@V?$basic_ptree@V?$basic_string@DU?$char_traits@D@std@@V?$allocator@D@2@@std@@V12@U?$less@V?$basic_string@DU?$char_traits@D@std@@V?$allocator@D@2@@std@@@2@@property_tree@boost@@@std@@@2@@234@@detail@multi_index@boost@@@detail@multi_index@boost@@$$QEA_N@Z
	??$?0AEAPEAV_Facet_base@std@@@?$_Compressed_pair@U?$default_delete@V_Facet_base@std@@@std@@PEAV_Facet_base@2@$00@std@@QEAA@U_Zero_then_variadic_args_t@1@AEAPEAV_Facet_base@1@@Z
	??$?0AEAPEAV_Node_assert@std@@@?$_Compressed_pair@U?$default_delete@V_Node_assert@std@@@std@@PEAV_Node_assert@2@$00@std@@QEAA@U_Zero_then_variadic_args_t@1@AEAPEAV_Node_assert@1@@Z
	??$?0AEAU?$arg@$00@boost@@@?$_Tuple_val@U?$arg@$00@boost@@@std@@QEAA@AEAU?$arg@$00@boost@@@Z
	??$?0AEAURoutingId@Trellis@@AEAH$0A@@?$pair@URoutingId@Trellis@@H@std@@QEAA@AEAURoutingId@Trellis@@AEAH@Z
	??$?0AEAURoutingId@Trellis@@W4PortDirection@1@$0A@@?$pair@URoutingId@Trellis@@W4PortDirection@2@@std@@QEAA@AEAURoutingId@Trellis@@$$QEAW4PortDirection@3@@Z
	??$?0AEAV?$allocator@D@std@@$$V@?$_Compressed_pair@V?$allocator@D@std@@V?$_String_val@U?$_Simple_types@D@std@@@2@$00@std@@QEAA@U_One_then_variadic_args_t@1@AEAV?$allocator@D@1@@Z
	??$?0AEAV?$basic_string@DU?$char_traits@D@std@@V?$allocator@D@2@@std@@V?$basic_ptree@V?$basic_string@DU?$char_traits@D@std@@V?$allocator@D@2@@std@@V12@U?$less@V?$basic_string@DU?$char_traits@D@std@@V?$allocator@D@2@@std@@@2@@property_tree@boost@@$0A@@?$pair@V?$basic_string@DU?$char_traits@D@std@@V?$allocator@D@2@@std@@V?$basic_ptree@V?$basic_string@DU?$char_traits@D@std@@V?$allocator@D@2@@std@@V12@U?$less@V?$basic_string@DU?$char_traits@D@std@@V?$allocator@D@2@@std@@@2@@property_tree@boost@@@std@@QEAA@AEAV?$basic_string@DU?$char_traits@D@std@@V?$allocator@D@2@@1@$$QEAV?$basic_ptree@V?$basic_string@DU?$char_traits@D@std@@V?$allocator@D@2@@std@@V12@U?$less@V?$basic_string@DU?$char_traits@D@std@@V?$allocator@D@2@@std@@@2@@property_tree@boost@@@Z
	??$?0AEAV?$reference_wrapper@V?$standard_callbacks@V?$basic_ptree@V?$basic_string@DU?$char_traits@D@std@@V?$allocator@D@2@@std@@V12@U?$less@V?$basic_string@DU?$char_traits@D@std@@V?$allocator@D@2@@std@@@2@@property_tree@boost@@@detail@json_parser@property_tree@boost@@@boost@@@?$_Tuple_val@V?$reference_wrapper@V?$standard_callbacks@V?$basic_ptree@V?$basic_string@DU?$char_traits@D@std@@V?$allocator@D@2@@std@@V12@U?$less@V?$basic_string@DU?$char_traits@D@std@@V?$allocator@D@2@@std@@@2@@property_tree@boost@@@detail@json_parser@property_tree@boost@@@boost@@@std@@QEAA@AEAV?$reference_wrapper@V?$standard_callbacks@V?$basic_ptree@V?$basic_string@DU?$char_traits@D@std@@V?$allocator@D@2@@std@@V12@U?$less@V?$basic_string@DU?$char_traits@D@std@@V?$allocator@D@2@@std@@@2@@property_tree@boost@@@detail@json_parser@property_tree@boost@@@boost@@@Z
	??$?0AEAV?$reference_wrapper@V?$standard_callbacks@V?$basic_ptree@V?$basic_string@DU?$char_traits@D@std@@V?$allocator@D@2@@std@@V12@U?$less@V?$basic_string@DU?$char_traits@D@std@@V?$allocator@D@2@@std@@@2@@property_tree@boost@@@detail@json_parser@property_tree@boost@@@boost@@AEAU?$arg@$00@1@$0A@@?$tuple@V?$reference_wrapper@V?$standard_callbacks@V?$basic_ptree@V?$basic_string@DU?$char_traits@D@std@@V?$allocator@D@2@@std@@V12@U?$less@V?$basic_string@DU?$char_traits@D@std@@V?$allocator@D@2@@std@@@2@@property_tree@boost@@@detail@json_parser@property_tree@boost@@@boost@@U?$arg@$00@2@@std@@QEAA@AEAV?$reference_wrapper@V?$standard_callbacks@V?$basic_ptree@V?$basic_string@DU?$char_traits@D@std@@V?$allocator@D@2@@std@@V12@U?$less@V?$basic_string@DU?$char_traits@D@std@@V?$allocator@D@2@@std@@@2@@property_tree@boost@@@detail@json_parser@property_tree@boost@@@boost@@AEAU?$arg@$00@3@@Z
	??$?0AEAV?$value@PEAV?$parser@V?$standard_callbacks@V?$basic_ptree@V?$basic_string@DU?$char_traits@D@std@@V?$allocator@D@2@@std@@V12@U?$less@V?$basic_string@DU?$char_traits@D@std@@V?$allocator@D@2@@std@@@2@@property_tree@boost@@@detail@json_parser@property_tree@boost@@U?$encoding@D@2345@V?$istreambuf_iterator@DU?$char_traits@D@std@@@std@@V78@@detail@json_parser@property_tree@boost@@@_bi@boost@@@?$_Tuple_val@V?$value@PEAV?$parser@V?$standard_callbacks@V?$basic_ptree@V?$basic_string@DU?$char_traits@D@std@@V?$allocator@D@2@@std@@V12@U?$less@V?$basic_string@DU?$char_traits@D@std@@V?$allocator@D@2@@std@@@2@@property_tree@boost@@@detail@json_parser@property_tree@boost@@U?$encoding@D@2345@V?$istreambuf_iterator@DU?$char_traits@D@std@@@std@@V78@@detail@json_parser@property_tree@boost@@@_bi@boost@@@std@@QEAA@AEAV?$value@PEAV?$parser@V?$standard_callbacks@V?$basic_ptree@V?$basic_string@DU?$char_traits@D@std@@V?$allocator@D@2@@std@@V12@U?$less@V?$basic_string@DU?$char_traits@D@std@@V?$allocator@D@2@@std@@@2@@property_tree@boost@@@detail@json_parser@property_tree@boost@@U?$encoding@D@2345@V?$istreambuf_iterator@DU?$char_traits@D@std@@@std@@V78@@detail@json_parser@property_tree@boost@@@_bi@boost@@@Z
	??$?0AEAV?$value@PEAV?$parser@V?$standard_callbacks@V?$basic_ptree@V?$basic_string@DU?$char_traits@D@std@@V?$allocator@D@2@@std@@V12@U?$less@V?$basic_string@DU?$char_traits@D@std@@V?$allocator@D@2@@std@@@2@@property_tree@boost@@@detail@json_parser@property_tree@boost@@U?$encoding@D@2345@V?$istreambuf_iterator@DU?$char_traits@D@std@@@std@@V78@@detail@json_parser@property_tree@boost@@@_bi@boost@@AEAV?$value@PEBD@12@$0A@@?$tuple@V?$value@PEAV?$parser@V?$standard_callbacks@V?$basic_ptree@V?$basic_string@DU?$char_traits@D@std@@V?$allocator@D@2@@std@@V12@U?$less@V?$basic_string@DU?$char_traits@D@std@@V?$allocator@D@2@@std@@@2@@property_tree@boost@@@detail@json_parser@property_tree@boost@@U?$encoding@D@2345@V?$istreambuf_iterator@DU?$char_traits@D@std@@@std@@V78@@detail@json_parser@property_tree@boost@@@_bi@boost@@V?$value@PEBD@23@@std@@QEAA@AEAV?$value@PEAV?$parser@V?$standard_callbacks@V?$basic_ptree@V?$basic_string@DU?$char_traits@D@std@@V?$allocator@D@2@@std@@V12@U?$less@V?$basic_string@DU?$char_traits@D@std@@V?$allocator@D@2@@std@@@2@@property_tree@boost@@@detail@json_parser@property_tree@boost@@U?$encoding@D@2345@V?$istreambuf_iterator@DU?$char_traits@D@std@@@std@@V78@@detail@json_parser@property_tree@boost@@@_bi@boost@@AEAV?$value@PEBD@34@@Z
	??$?0AEAV?$value@PEBD@_bi@boost@@@?$_Tuple_val@V?$value@PEBD@_bi@boost@@@std@@QEAA@AEAV?$value@PEBD@_bi@boost@@@Z
	??$?0AEAY03$$CBDH$0A@@?$pair@V?$basic_string@DU?$char_traits@D@std@@V?$allocator@D@2@@std@@E@std@@QEAA@AEAY03$$CBD$$QEAH@Z
	??$?0AEAY04$$CBDH$0A@@?$pair@V?$basic_string@DU?$char_traits@D@std@@V?$allocator@D@2@@std@@E@std@@QEAA@AEAY04$$CBD$$QEAH@Z
	??$?0AEAY06$$CBD$$BY06D@?$optional_base@V?$basic_string@DU?$char_traits@D@std@@V?$allocator@D@2@@std@@@optional_detail@boost@@IEAA@AEAY06$$CBDPEAY06$$CBD@Z
	??$?0AEAY06$$CBD@?$optional@V?$basic_string@DU?$char_traits@D@std@@V?$allocator@D@2@@std@@@boost@@QEAA@AEAY06$$CBD_N@Z
	??$?0AEAY08$$CBDH$0A@@?$pair@V?$basic_string@DU?$char_traits@D@std@@V?$allocator@D@2@@std@@E@std@@QEAA@AEAY08$$CBD$$QEAH@Z
	??$?0AEAY09$$CBDH$0A@@?$pair@V?$basic_string@DU?$char_traits@D@std@@V?$allocator@D@2@@std@@E@std@@QEAA@AEAY09$$CBD$$QEAH@Z
	??$?0AEBG$$Z$$V@?$pair@$$CBGV?$vector@GV?$allocator@G@std@@@std@@@std@@QEAA@Upiecewise_construct_t@1@V?$tuple@AEBG@1@V?$tuple@$$V@1@@Z
	??$?0AEBG$0A@@?$tuple@AEBG@std@@QEAA@AEBG@Z
	??$?0AEBG@?$_Tuple_val@AEBG@std@@QEAA@AEBG@Z
	??$?0AEBH$$Z$$V@?$pair@$$CBHU?$pair@URoutingId@Trellis@@W4PortDirection@2@@std@@@std@@QEAA@Upiecewise_construct_t@1@V?$tuple@AEBH@1@V?$tuple@$$V@1@@Z
	??$?0AEBH$$Z$$V@?$pair@$$CBHURoutingArc@Trellis@@@std@@QEAA@Upiecewise_construct_t@1@V?$tuple@AEBH@1@V?$tuple@$$V@1@@Z
	??$?0AEBH$$Z$$V@?$pair@$$CBHURoutingBel@Trellis@@@std@@QEAA@Upiecewise_construct_t@1@V?$tuple@AEBH@1@V?$tuple@$$V@1@@Z
	??$?0AEBH$$Z$$V@?$pair@$$CBHURoutingWire@Trellis@@@std@@QEAA@Upiecewise_construct_t@1@V?$tuple@AEBH@1@V?$tuple@$$V@1@@Z
	??$?0AEBH$0A@@?$tuple@AEBH@std@@QEAA@AEBH@Z
	??$?0AEBH@?$_Tuple_val@AEBH@std@@QEAA@AEBH@Z
	??$?0AEBQEAU?$_Tree_node@U?$pair@$$CBGV?$vector@GV?$allocator@G@std@@@std@@@std@@PEAX@std@@_N$0A@@?$pair@PEAU?$_Tree_node@U?$pair@$$CBGV?$vector@GV?$allocator@G@std@@@std@@@std@@PEAX@std@@_N@std@@QEAA@AEBQEAU?$_Tree_node@U?$pair@$$CBGV?$vector@GV?$allocator@G@std@@@std@@@std@@PEAX@1@$$QEA_N@Z
	??$?0AEBQEAU?$_Tree_node@U?$pair@$$CBHU?$pair@URoutingId@Trellis@@W4PortDirection@2@@std@@@std@@PEAX@std@@_N$0A@@?$pair@PEAU?$_Tree_node@U?$pair@$$CBHU?$pair@URoutingId@Trellis@@W4PortDirection@2@@std@@@std@@PEAX@std@@_N@std@@QEAA@AEBQEAU?$_Tree_node@U?$pair@$$CBHU?$pair@URoutingId@Trellis@@W4PortDirection@2@@std@@@std@@PEAX@1@$$QEA_N@Z
	??$?0AEBQEAU?$_Tree_node@U?$pair@$$CBHURoutingArc@Trellis@@@std@@PEAX@std@@_N$0A@@?$pair@PEAU?$_Tree_node@U?$pair@$$CBHURoutingArc@Trellis@@@std@@PEAX@std@@_N@std@@QEAA@AEBQEAU?$_Tree_node@U?$pair@$$CBHURoutingArc@Trellis@@@std@@PEAX@1@$$QEA_N@Z
	??$?0AEBQEAU?$_Tree_node@U?$pair@$$CBHURoutingBel@Trellis@@@std@@PEAX@std@@_N$0A@@?$pair@PEAU?$_Tree_node@U?$pair@$$CBHURoutingBel@Trellis@@@std@@PEAX@std@@_N@std@@QEAA@AEBQEAU?$_Tree_node@U?$pair@$$CBHURoutingBel@Trellis@@@std@@PEAX@1@$$QEA_N@Z
	??$?0AEBQEAU?$_Tree_node@U?$pair@$$CBHURoutingWire@Trellis@@@std@@PEAX@std@@_N$0A@@?$pair@PEAU?$_Tree_node@U?$pair@$$CBHURoutingWire@Trellis@@@std@@PEAX@std@@_N@std@@QEAA@AEBQEAU?$_Tree_node@U?$pair@$$CBHURoutingWire@Trellis@@@std@@PEAX@1@$$QEA_N@Z
	??$?0AEBQEAU?$_Tree_node@U?$pair@$$CBU?$pair@HH@std@@H@std@@PEAX@std@@_N$0A@@?$pair@PEAU?$_Tree_node@U?$pair@$$CBU?$pair@HH@std@@H@std@@PEAX@std@@_N@std@@QEAA@AEBQEAU?$_Tree_node@U?$pair@$$CBU?$pair@HH@std@@H@std@@PEAX@1@$$QEA_N@Z
	??$?0AEBQEAU?$_Tree_node@U?$pair@$$CBU?$pair@HH@std@@U12@@std@@PEAX@std@@_N$0A@@?$pair@PEAU?$_Tree_node@U?$pair@$$CBU?$pair@HH@std@@U12@@std@@PEAX@std@@_N@std@@QEAA@AEBQEAU?$_Tree_node@U?$pair@$$CBU?$pair@HH@std@@U12@@std@@PEAX@1@$$QEA_N@Z
	??$?0AEBQEAU?$_Tree_node@U?$pair@$$CBU?$pair@HH@std@@V?$vector@USpineInfo@Trellis@@V?$allocator@USpineInfo@Trellis@@@std@@@2@@std@@PEAX@std@@_N$0A@@?$pair@PEAU?$_Tree_node@U?$pair@$$CBU?$pair@HH@std@@V?$vector@USpineInfo@Trellis@@V?$allocator@USpineInfo@Trellis@@@std@@@2@@std@@PEAX@std@@_N@std@@QEAA@AEBQEAU?$_Tree_node@U?$pair@$$CBU?$pair@HH@std@@V?$vector@USpineInfo@Trellis@@V?$allocator@USpineInfo@Trellis@@@std@@@2@@std@@PEAX@1@$$QEA_N@Z
	??$?0AEBQEAU?$_Tree_node@U?$pair@$$CBU?$pair@_K_K@std@@ULocationData@DDChipDb@Trellis@@@std@@PEAX@std@@_N$0A@@?$pair@PEAU?$_Tree_node@U?$pair@$$CBU?$pair@_K_K@std@@ULocationData@DDChipDb@Trellis@@@std@@PEAX@std@@_N@std@@QEAA@AEBQEAU?$_Tree_node@U?$pair@$$CBU?$pair@_K_K@std@@ULocationData@DDChipDb@Trellis@@@std@@PEAX@1@$$QEA_N@Z
	??$?0AEBQEAU?$_Tree_node@U?$pair@$$CBULocation@Trellis@@U?$pair@_K_K@std@@@std@@PEAX@std@@_N$0A@@?$pair@PEAU?$_Tree_node@U?$pair@$$CBULocation@Trellis@@U?$pair@_K_K@std@@@std@@PEAX@std@@_N@std@@QEAA@AEBQEAU?$_Tree_node@U?$pair@$$CBULocation@Trellis@@U?$pair@_K_K@std@@@std@@PEAX@1@$$QEA_N@Z
	??$?0AEBQEAU?$_Tree_node@U?$pair@$$CBULocation@Trellis@@ULocationData@DDChipDb@2@@std@@PEAX@std@@_N$0A@@?$pair@PEAU?$_Tree_node@U?$pair@$$CBULocation@Trellis@@ULocationData@DDChipDb@2@@std@@PEAX@std@@_N@std@@QEAA@AEBQEAU?$_Tree_node@U?$pair@$$CBULocation@Trellis@@ULocationData@DDChipDb@2@@std@@PEAX@1@$$QEA_N@Z
	??$?0AEBQEAU?$_Tree_node@U?$pair@$$CBULocation@Trellis@@URoutingTileLoc@2@@std@@PEAX@std@@_N$0A@@?$pair@PEAU?$_Tree_node@U?$pair@$$CBULocation@Trellis@@URoutingTileLoc@2@@std@@PEAX@std@@_N@std@@QEAA@AEBQEAU?$_Tree_node@U?$pair@$$CBULocation@Trellis@@URoutingTileLoc@2@@std@@PEAX@1@$$QEA_N@Z
	??$?0AEBQEAU?$_Tree_node@U?$pair@$$CBV?$basic_string@DU?$char_traits@D@std@@V?$allocator@D@2@@std@@UArcData@Trellis@@@std@@PEAX@std@@_N$0A@@?$pair@PEAU?$_Tree_node@U?$pair@$$CBV?$basic_string@DU?$char_traits@D@std@@V?$allocator@D@2@@std@@UArcData@Trellis@@@std@@PEAX@std@@_N@std@@QEAA@AEBQEAU?$_Tree_node@U?$pair@$$CBV?$basic_string@DU?$char_traits@D@std@@V?$allocator@D@2@@std@@UArcData@Trellis@@@std@@PEAX@1@$$QEA_N@Z
	??$?0AEBQEAU?$_Tree_node@U?$pair@$$CBV?$basic_string@DU?$char_traits@D@std@@V?$allocator@D@2@@std@@UBitGroup@Trellis@@@std@@PEAX@std@@_N$0A@@?$pair@PEAU?$_Tree_node@U?$pair@$$CBV?$basic_string@DU?$char_traits@D@std@@V?$allocator@D@2@@std@@UBitGroup@Trellis@@@std@@PEAX@std@@_N@std@@QEAA@AEBQEAU?$_Tree_node@U?$pair@$$CBV?$basic_string@DU?$char_traits@D@std@@V?$allocator@D@2@@std@@UBitGroup@Trellis@@@std@@PEAX@1@$$QEA_N@Z
	??$?0AEBQEAU?$_Tree_node@U?$pair@$$CBV?$basic_string@DU?$char_traits@D@std@@V?$allocator@D@2@@std@@UEnumSettingBits@Trellis@@@std@@PEAX@std@@_N$0A@@?$pair@PEAU?$_Tree_node@U?$pair@$$CBV?$basic_string@DU?$char_traits@D@std@@V?$allocator@D@2@@std@@UEnumSettingBits@Trellis@@@std@@PEAX@std@@_N@std@@QEAA@AEBQEAU?$_Tree_node@U?$pair@$$CBV?$basic_string@DU?$char_traits@D@std@@V?$allocator@D@2@@std@@UEnumSettingBits@Trellis@@@std@@PEAX@1@$$QEA_N@Z
	??$?0AEBQEAU?$_Tree_node@U?$pair@$$CBV?$basic_string@DU?$char_traits@D@std@@V?$allocator@D@2@@std@@UMuxBits@Trellis@@@std@@PEAX@std@@_N$0A@@?$pair@PEAU?$_Tree_node@U?$pair@$$CBV?$basic_string@DU?$char_traits@D@std@@V?$allocator@D@2@@std@@UMuxBits@Trellis@@@std@@PEAX@std@@_N@std@@QEAA@AEBQEAU?$_Tree_node@U?$pair@$$CBV?$basic_string@DU?$char_traits@D@std@@V?$allocator@D@2@@std@@UMuxBits@Trellis@@@std@@PEAX@1@$$QEA_N@Z
	??$?0AEBQEAU?$_Tree_node@U?$pair@$$CBV?$basic_string@DU?$char_traits@D@std@@V?$allocator@D@2@@std@@UTileConfig@Trellis@@@std@@PEAX@std@@_N$0A@@?$pair@PEAU?$_Tree_node@U?$pair@$$CBV?$basic_string@DU?$char_traits@D@std@@V?$allocator@D@2@@std@@UTileConfig@Trellis@@@std@@PEAX@std@@_N@std@@QEAA@AEBQEAU?$_Tree_node@U?$pair@$$CBV?$basic_string@DU?$char_traits@D@std@@V?$allocator@D@2@@std@@UTileConfig@Trellis@@@std@@PEAX@1@$$QEA_N@Z
	??$?0AEBQEAU?$_Tree_node@U?$pair@$$CBV?$basic_string@DU?$char_traits@D@std@@V?$allocator@D@2@@std@@UWordSettingBits@Trellis@@@std@@PEAX@std@@_N$0A@@?$pair@PEAU?$_Tree_node@U?$pair@$$CBV?$basic_string@DU?$char_traits@D@std@@V?$allocator@D@2@@std@@UWordSettingBits@Trellis@@@std@@PEAX@std@@_N@std@@QEAA@AEBQEAU?$_Tree_node@U?$pair@$$CBV?$basic_string@DU?$char_traits@D@std@@V?$allocator@D@2@@std@@UWordSettingBits@Trellis@@@std@@PEAX@1@$$QEA_N@Z
	??$?0AEBQEAU?$_Tree_node@U?$pair@$$CBV?$basic_string@DU?$char_traits@D@std@@V?$allocator@D@2@@std@@V12@@std@@PEAX@std@@_N$0A@@?$pair@PEAU?$_Tree_node@U?$pair@$$CBV?$basic_string@DU?$char_traits@D@std@@V?$allocator@D@2@@std@@V12@@std@@PEAX@std@@_N@std@@QEAA@AEBQEAU?$_Tree_node@U?$pair@$$CBV?$basic_string@DU?$char_traits@D@std@@V?$allocator@D@2@@std@@V12@@std@@PEAX@1@$$QEA_N@Z
	??$?0AEBQEAU?$_Tree_node@U?$pair@$$CBV?$basic_string@DU?$char_traits@D@std@@V?$allocator@D@2@@std@@V?$basic_ptree@V?$basic_string@DU?$char_traits@D@std@@V?$allocator@D@2@@std@@V12@U?$less@V?$basic_string@DU?$char_traits@D@std@@V?$allocator@D@2@@std@@@2@@property_tree@boost@@@std@@PEAX@std@@_N$0A@@?$pair@PEAU?$_Tree_node@U?$pair@$$CBV?$basic_string@DU?$char_traits@D@std@@V?$allocator@D@2@@std@@V?$basic_ptree@V?$basic_string@DU?$char_traits@D@std@@V?$allocator@D@2@@std@@V12@U?$less@V?$basic_string@DU?$char_traits@D@std@@V?$allocator@D@2@@std@@@2@@property_tree@boost@@@std@@PEAX@std@@_N@std@@QEAA@AEBQEAU?$_Tree_node@U?$pair@$$CBV?$basic_string@DU?$char_traits@D@std@@V?$allocator@D@2@@std@@V?$basic_ptree@V?$basic_string@DU?$char_traits@D@std@@V?$allocator@D@2@@std@@V12@U?$less@V?$basic_string@DU?$char_traits@D@std@@V?$allocator@D@2@@std@@@2@@property_tree@boost@@@std@@PEAX@1@$$QEA_N@Z
	??$?0AEBQEAU?$_Tree_node@U?$pair@$$CBV?$basic_string@DU?$char_traits@D@std@@V?$allocator@D@2@@std@@V?$set@UFixedConnection@Trellis@@U?$less@UFixedConnection@Trellis@@@std@@V?$allocator@UFixedConnection@Trellis@@@4@@2@@std@@PEAX@std@@_N$0A@@?$pair@PEAU?$_Tree_node@U?$pair@$$CBV?$basic_string@DU?$char_traits@D@std@@V?$allocator@D@2@@std@@V?$set@UFixedConnection@Trellis@@U?$less@UFixedConnection@Trellis@@@std@@V?$allocator@UFixedConnection@Trellis@@@4@@2@@std@@PEAX@std@@_N@std@@QEAA@AEBQEAU?$_Tree_node@U?$pair@$$CBV?$basic_string@DU?$char_traits@D@std@@V?$allocator@D@2@@std@@V?$set@UFixedConnection@Trellis@@U?$less@UFixedConnection@Trellis@@@std@@V?$allocator@UFixedConnection@Trellis@@@4@@2@@std@@PEAX@1@$$QEA_N@Z
	??$?0AEBQEAU?$_Tree_node@U?$pair@$$CBV?$basic_string@DU?$char_traits@D@std@@V?$allocator@D@2@@std@@V?$shared_ptr@VTile@Trellis@@@2@@std@@PEAX@std@@_N$0A@@?$pair@PEAU?$_Tree_node@U?$pair@$$CBV?$basic_string@DU?$char_traits@D@std@@V?$allocator@D@2@@std@@V?$shared_ptr@VTile@Trellis@@@2@@std@@PEAX@std@@_N@std@@QEAA@AEBQEAU?$_Tree_node@U?$pair@$$CBV?$basic_string@DU?$char_traits@D@std@@V?$allocator@D@2@@std@@V?$shared_ptr@VTile@Trellis@@@2@@std@@PEAX@1@$$QEA_N@Z
	??$?0AEBQEAU?$_Tree_node@U?$pair@$$CBV?$basic_string@DU?$char_traits@D@std@@V?$allocator@D@2@@std@@V?$vector@UChangedBit@Trellis@@V?$allocator@UChangedBit@Trellis@@@std@@@2@@std@@PEAX@std@@_N$0A@@?$pair@PEAU?$_Tree_node@U?$pair@$$CBV?$basic_string@DU?$char_traits@D@std@@V?$allocator@D@2@@std@@V?$vector@UChangedBit@Trellis@@V?$allocator@UChangedBit@Trellis@@@std@@@2@@std@@PEAX@std@@_N@std@@QEAA@AEBQEAU?$_Tree_node@U?$pair@$$CBV?$basic_string@DU?$char_traits@D@std@@V?$allocator@D@2@@std@@V?$vector@UChangedBit@Trellis@@V?$allocator@UChangedBit@Trellis@@@std@@@2@@std@@PEAX@1@$$QEA_N@Z
	??$?0AEBU?$less@G@std@@U_Zero_then_variadic_args_t@1@@?$_Compressed_pair@U?$less@G@std@@V?$_Compressed_pair@V?$allocator@U?$_Tree_node@U?$pair@$$CBGV?$vector@GV?$allocator@G@std@@@std@@@std@@PEAX@std@@@std@@V?$_Tree_val@U?$_Tree_simple_types@U?$pair@$$CBGV?$vector@GV?$allocator@G@std@@@std@@@std@@@std@@@2@$00@2@$00@std@@QEAA@U_One_then_variadic_args_t@1@AEBU?$less@G@1@$$QEAU_Zero_then_variadic_args_t@1@@Z
	??$?0AEBU?$less@H@std@@U_Zero_then_variadic_args_t@1@@?$_Compressed_pair@U?$less@H@std@@V?$_Compressed_pair@V?$allocator@U?$_Tree_node@U?$pair@$$CBHU?$pair@URoutingId@Trellis@@W4PortDirection@2@@std@@@std@@PEAX@std@@@std@@V?$_Tree_val@U?$_Tree_simple_types@U?$pair@$$CBHU?$pair@URoutingId@Trellis@@W4PortDirection@2@@std@@@std@@@std@@@2@$00@2@$00@std@@QEAA@U_One_then_variadic_args_t@1@AEBU?$less@H@1@$$QEAU_Zero_then_variadic_args_t@1@@Z
	??$?0AEBU?$less@H@std@@U_Zero_then_variadic_args_t@1@@?$_Compressed_pair@U?$less@H@std@@V?$_Compressed_pair@V?$allocator@U?$_Tree_node@U?$pair@$$CBHURoutingArc@Trellis@@@std@@PEAX@std@@@std@@V?$_Tree_val@U?$_Tree_simple_types@U?$pair@$$CBHURoutingArc@Trellis@@@std@@@std@@@2@$00@2@$00@std@@QEAA@U_One_then_variadic_args_t@1@AEBU?$less@H@1@$$QEAU_Zero_then_variadic_args_t@1@@Z
	??$?0AEBU?$less@H@std@@U_Zero_then_variadic_args_t@1@@?$_Compressed_pair@U?$less@H@std@@V?$_Compressed_pair@V?$allocator@U?$_Tree_node@U?$pair@$$CBHURoutingBel@Trellis@@@std@@PEAX@std@@@std@@V?$_Tree_val@U?$_Tree_simple_types@U?$pair@$$CBHURoutingBel@Trellis@@@std@@@std@@@2@$00@2@$00@std@@QEAA@U_One_then_variadic_args_t@1@AEBU?$less@H@1@$$QEAU_Zero_then_variadic_args_t@1@@Z
	??$?0AEBU?$less@H@std@@U_Zero_then_variadic_args_t@1@@?$_Compressed_pair@U?$less@H@std@@V?$_Compressed_pair@V?$allocator@U?$_Tree_node@U?$pair@$$CBHURoutingWire@Trellis@@@std@@PEAX@std@@@std@@V?$_Tree_val@U?$_Tree_simple_types@U?$pair@$$CBHURoutingWire@Trellis@@@std@@@std@@@2@$00@2@$00@std@@QEAA@U_One_then_variadic_args_t@1@AEBU?$less@H@1@$$QEAU_Zero_then_variadic_args_t@1@@Z
	??$?0AEBU?$less@I@std@@U_Zero_then_variadic_args_t@1@@?$_Compressed_pair@U?$less@I@std@@V?$_Compressed_pair@V?$allocator@U?$_Tree_node@U?$pair@$$CBII@std@@PEAX@std@@@std@@V?$_Tree_val@U?$_Tree_simple_types@U?$pair@$$CBII@std@@@std@@@2@$00@2@$00@std@@QEAA@U_One_then_variadic_args_t@1@AEBU?$less@I@1@$$QEAU_Zero_then_variadic_args_t@1@@Z
	??$?0AEBU?$less@U?$pair@HH@std@@@std@@U_Zero_then_variadic_args_t@1@@?$_Compressed_pair@U?$less@U?$pair@HH@std@@@std@@V?$_Compressed_pair@V?$allocator@U?$_Tree_node@U?$pair@$$CBU?$pair@HH@std@@H@std@@PEAX@std@@@std@@V?$_Tree_val@U?$_Tree_simple_types@U?$pair@$$CBU?$pair@HH@std@@H@std@@@std@@@2@$00@2@$00@std@@QEAA@U_One_then_variadic_args_t@1@AEBU?$less@U?$pair@HH@std@@@1@$$QEAU_Zero_then_variadic_args_t@1@@Z
	??$?0AEBU?$less@U?$pair@HH@std@@@std@@U_Zero_then_variadic_args_t@1@@?$_Compressed_pair@U?$less@U?$pair@HH@std@@@std@@V?$_Compressed_pair@V?$allocator@U?$_Tree_node@U?$pair@$$CBU?$pair@HH@std@@U12@@std@@PEAX@std@@@std@@V?$_Tree_val@U?$_Tree_simple_types@U?$pair@$$CBU?$pair@HH@std@@U12@@std@@@std@@@2@$00@2@$00@std@@QEAA@U_One_then_variadic_args_t@1@AEBU?$less@U?$pair@HH@std@@@1@$$QEAU_Zero_then_variadic_args_t@1@@Z
	??$?0AEBU?$less@U?$pair@HH@std@@@std@@U_Zero_then_variadic_args_t@1@@?$_Compressed_pair@U?$less@U?$pair@HH@std@@@std@@V?$_Compressed_pair@V?$allocator@U?$_Tree_node@U?$pair@$$CBU?$pair@HH@std@@V?$vector@USpineInfo@Trellis@@V?$allocator@USpineInfo@Trellis@@@std@@@2@@std@@PEAX@std@@@std@@V?$_Tree_val@U?$_Tree_simple_types@U?$pair@$$CBU?$pair@HH@std@@V?$vector@USpineInfo@Trellis@@V?$allocator@USpineInfo@Trellis@@@std@@@2@@std@@@std@@@2@$00@2@$00@std@@QEAA@U_One_then_variadic_args_t@1@AEBU?$less@U?$pair@HH@std@@@1@$$QEAU_Zero_then_variadic_args_t@1@@Z
	??$?0AEBU?$less@U?$pair@_K_K@std@@@std@@U_Zero_then_variadic_args_t@1@@?$_Compressed_pair@U?$less@U?$pair@_K_K@std@@@std@@V?$_Compressed_pair@V?$allocator@U?$_Tree_node@U?$pair@$$CBU?$pair@_K_K@std@@ULocationData@DDChipDb@Trellis@@@std@@PEAX@std@@@std@@V?$_Tree_val@U?$_Tree_simple_types@U?$pair@$$CBU?$pair@_K_K@std@@ULocationData@DDChipDb@Trellis@@@std@@@std@@@2@$00@2@$00@std@@QEAA@U_One_then_variadic_args_t@1@AEBU?$less@U?$pair@_K_K@std@@@1@$$QEAU_Zero_then_variadic_args_t@1@@Z
	??$?0AEBU?$less@UConfigBit@Trellis@@@std@@U_Zero_then_variadic_args_t@1@@?$_Compressed_pair@U?$less@UConfigBit@Trellis@@@std@@V?$_Compressed_pair@V?$allocator@U?$_Tree_node@UConfigBit@Trellis@@PEAX@std@@@std@@V?$_Tree_val@U?$_Tree_simple_types@UConfigBit@Trellis@@@std@@@2@$00@2@$00@std@@QEAA@U_One_then_variadic_args_t@1@AEBU?$less@UConfigBit@Trellis@@@1@$$QEAU_Zero_then_variadic_args_t@1@@Z
	??$?0AEBU?$less@UFixedConnection@Trellis@@@std@@U_Zero_then_variadic_args_t@1@@?$_Compressed_pair@U?$less@UFixedConnection@Trellis@@@std@@V?$_Compressed_pair@V?$allocator@U?$_Tree_node@UFixedConnection@Trellis@@PEAX@std@@@std@@V?$_Tree_val@U?$_Tree_simple_types@UFixedConnection@Trellis@@@std@@@2@$00@2@$00@std@@QEAA@U_One_then_variadic_args_t@1@AEBU?$less@UFixedConnection@Trellis@@@1@$$QEAU_Zero_then_variadic_args_t@1@@Z
	??$?0AEBU?$less@ULocation@Trellis@@@std@@U_Zero_then_variadic_args_t@1@@?$_Compressed_pair@U?$less@ULocation@Trellis@@@std@@V?$_Compressed_pair@V?$allocator@U?$_Tree_node@U?$pair@$$CBULocation@Trellis@@U?$pair@_K_K@std@@@std@@PEAX@std@@@std@@V?$_Tree_val@U?$_Tree_simple_types@U?$pair@$$CBULocation@Trellis@@U?$pair@_K_K@std@@@std@@@std@@@2@$00@2@$00@std@@QEAA@U_One_then_variadic_args_t@1@AEBU?$less@ULocation@Trellis@@@1@$$QEAU_Zero_then_variadic_args_t@1@@Z
	??$?0AEBU?$less@ULocation@Trellis@@@std@@U_Zero_then_variadic_args_t@1@@?$_Compressed_pair@U?$less@ULocation@Trellis@@@std@@V?$_Compressed_pair@V?$allocator@U?$_Tree_node@U?$pair@$$CBULocation@Trellis@@ULocationData@DDChipDb@2@@std@@PEAX@std@@@std@@V?$_Tree_val@U?$_Tree_simple_types@U?$pair@$$CBULocation@Trellis@@ULocationData@DDChipDb@2@@std@@@std@@@2@$00@2@$00@std@@QEAA@U_One_then_variadic_args_t@1@AEBU?$less@ULocation@Trellis@@@1@$$QEAU_Zero_then_variadic_args_t@1@@Z
	??$?0AEBU?$less@ULocation@Trellis@@@std@@U_Zero_then_variadic_args_t@1@@?$_Compressed_pair@U?$less@ULocation@Trellis@@@std@@V?$_Compressed_pair@V?$allocator@U?$_Tree_node@U?$pair@$$CBULocation@Trellis@@URoutingTileLoc@2@@std@@PEAX@std@@@std@@V?$_Tree_val@U?$_Tree_simple_types@U?$pair@$$CBULocation@Trellis@@URoutingTileLoc@2@@std@@@std@@@2@$00@2@$00@std@@QEAA@U_One_then_variadic_args_t@1@AEBU?$less@ULocation@Trellis@@@1@$$QEAU_Zero_then_variadic_args_t@1@@Z
	??$?0AEBU?$less@URelId@DDChipDb@Trellis@@@std@@U_Zero_then_variadic_args_t@1@@?$_Compressed_pair@U?$less@URelId@DDChipDb@Trellis@@@std@@V?$_Compressed_pair@V?$allocator@U?$_Tree_node@URelId@DDChipDb@Trellis@@PEAX@std@@@std@@V?$_Tree_val@U?$_Tree_simple_types@URelId@DDChipDb@Trellis@@@std@@@2@$00@2@$00@std@@QEAA@U_One_then_variadic_args_t@1@AEBU?$less@URelId@DDChipDb@Trellis@@@1@$$QEAU_Zero_then_variadic_args_t@1@@Z
	??$?0AEBU?$less@V?$basic_string@DU?$char_traits@D@std@@V?$allocator@D@2@@std@@@std@@U_Zero_then_variadic_args_t@1@@?$_Compressed_pair@U?$less@V?$basic_string@DU?$char_traits@D@std@@V?$allocator@D@2@@std@@@std@@V?$_Compressed_pair@V?$allocator@U?$_Tree_node@U?$pair@$$CBV?$basic_string@DU?$char_traits@D@std@@V?$allocator@D@2@@std@@UArcData@Trellis@@@std@@PEAX@std@@@std@@V?$_Tree_val@U?$_Tree_simple_types@U?$pair@$$CBV?$basic_string@DU?$char_traits@D@std@@V?$allocator@D@2@@std@@UArcData@Trellis@@@std@@@std@@@2@$00@2@$00@std@@QEAA@U_One_then_variadic_args_t@1@AEBU?$less@V?$basic_string@DU?$char_traits@D@std@@V?$allocator@D@2@@std@@@1@$$QEAU_Zero_then_variadic_args_t@1@@Z
	??$?0AEBU?$less@V?$basic_string@DU?$char_traits@D@std@@V?$allocator@D@2@@std@@@std@@U_Zero_then_variadic_args_t@1@@?$_Compressed_pair@U?$less@V?$basic_string@DU?$char_traits@D@std@@V?$allocator@D@2@@std@@@std@@V?$_Compressed_pair@V?$allocator@U?$_Tree_node@U?$pair@$$CBV?$basic_string@DU?$char_traits@D@std@@V?$allocator@D@2@@std@@UBitGroup@Trellis@@@std@@PEAX@std@@@std@@V?$_Tree_val@U?$_Tree_simple_types@U?$pair@$$CBV?$basic_string@DU?$char_traits@D@std@@V?$allocator@D@2@@std@@UBitGroup@Trellis@@@std@@@std@@@2@$00@2@$00@std@@QEAA@U_One_then_variadic_args_t@1@AEBU?$less@V?$basic_string@DU?$char_traits@D@std@@V?$allocator@D@2@@std@@@1@$$QEAU_Zero_then_variadic_args_t@1@@Z
	??$?0AEBU?$less@V?$basic_string@DU?$char_traits@D@std@@V?$allocator@D@2@@std@@@std@@U_Zero_then_variadic_args_t@1@@?$_Compressed_pair@U?$less@V?$basic_string@DU?$char_traits@D@std@@V?$allocator@D@2@@std@@@std@@V?$_Compressed_pair@V?$allocator@U?$_Tree_node@U?$pair@$$CBV?$basic_string@DU?$char_traits@D@std@@V?$allocator@D@2@@std@@UEnumSettingBits@Trellis@@@std@@PEAX@std@@@std@@V?$_Tree_val@U?$_Tree_simple_types@U?$pair@$$CBV?$basic_string@DU?$char_traits@D@std@@V?$allocator@D@2@@std@@UEnumSettingBits@Trellis@@@std@@@std@@@2@$00@2@$00@std@@QEAA@U_One_then_variadic_args_t@1@AEBU?$less@V?$basic_string@DU?$char_traits@D@std@@V?$allocator@D@2@@std@@@1@$$QEAU_Zero_then_variadic_args_t@1@@Z
	??$?0AEBU?$less@V?$basic_string@DU?$char_traits@D@std@@V?$allocator@D@2@@std@@@std@@U_Zero_then_variadic_args_t@1@@?$_Compressed_pair@U?$less@V?$basic_string@DU?$char_traits@D@std@@V?$allocator@D@2@@std@@@std@@V?$_Compressed_pair@V?$allocator@U?$_Tree_node@U?$pair@$$CBV?$basic_string@DU?$char_traits@D@std@@V?$allocator@D@2@@std@@UMuxBits@Trellis@@@std@@PEAX@std@@@std@@V?$_Tree_val@U?$_Tree_simple_types@U?$pair@$$CBV?$basic_string@DU?$char_traits@D@std@@V?$allocator@D@2@@std@@UMuxBits@Trellis@@@std@@@std@@@2@$00@2@$00@std@@QEAA@U_One_then_variadic_args_t@1@AEBU?$less@V?$basic_string@DU?$char_traits@D@std@@V?$allocator@D@2@@std@@@1@$$QEAU_Zero_then_variadic_args_t@1@@Z
	??$?0AEBU?$less@V?$basic_string@DU?$char_traits@D@std@@V?$allocator@D@2@@std@@@std@@U_Zero_then_variadic_args_t@1@@?$_Compressed_pair@U?$less@V?$basic_string@DU?$char_traits@D@std@@V?$allocator@D@2@@std@@@std@@V?$_Compressed_pair@V?$allocator@U?$_Tree_node@U?$pair@$$CBV?$basic_string@DU?$char_traits@D@std@@V?$allocator@D@2@@std@@UTileConfig@Trellis@@@std@@PEAX@std@@@std@@V?$_Tree_val@U?$_Tree_simple_types@U?$pair@$$CBV?$basic_string@DU?$char_traits@D@std@@V?$allocator@D@2@@std@@UTileConfig@Trellis@@@std@@@std@@@2@$00@2@$00@std@@QEAA@U_One_then_variadic_args_t@1@AEBU?$less@V?$basic_string@DU?$char_traits@D@std@@V?$allocator@D@2@@std@@@1@$$QEAU_Zero_then_variadic_args_t@1@@Z
	??$?0AEBU?$less@V?$basic_string@DU?$char_traits@D@std@@V?$allocator@D@2@@std@@@std@@U_Zero_then_variadic_args_t@1@@?$_Compressed_pair@U?$less@V?$basic_string@DU?$char_traits@D@std@@V?$allocator@D@2@@std@@@std@@V?$_Compressed_pair@V?$allocator@U?$_Tree_node@U?$pair@$$CBV?$basic_string@DU?$char_traits@D@std@@V?$allocator@D@2@@std@@UWordSettingBits@Trellis@@@std@@PEAX@std@@@std@@V?$_Tree_val@U?$_Tree_simple_types@U?$pair@$$CBV?$basic_string@DU?$char_traits@D@std@@V?$allocator@D@2@@std@@UWordSettingBits@Trellis@@@std@@@std@@@2@$00@2@$00@std@@QEAA@U_One_then_variadic_args_t@1@AEBU?$less@V?$basic_string@DU?$char_traits@D@std@@V?$allocator@D@2@@std@@@1@$$QEAU_Zero_then_variadic_args_t@1@@Z
	??$?0AEBU?$less@V?$basic_string@DU?$char_traits@D@std@@V?$allocator@D@2@@std@@@std@@U_Zero_then_variadic_args_t@1@@?$_Compressed_pair@U?$less@V?$basic_string@DU?$char_traits@D@std@@V?$allocator@D@2@@std@@@std@@V?$_Compressed_pair@V?$allocator@U?$_Tree_node@U?$pair@$$CBV?$basic_string@DU?$char_traits@D@std@@V?$allocator@D@2@@std@@V12@@std@@PEAX@std@@@std@@V?$_Tree_val@U?$_Tree_simple_types@U?$pair@$$CBV?$basic_string@DU?$char_traits@D@std@@V?$allocator@D@2@@std@@V12@@std@@@std@@@2@$00@2@$00@std@@QEAA@U_One_then_variadic_args_t@1@AEBU?$less@V?$basic_string@DU?$char_traits@D@std@@V?$allocator@D@2@@std@@@1@$$QEAU_Zero_then_variadic_args_t@1@@Z
	??$?0AEBU?$less@V?$basic_string@DU?$char_traits@D@std@@V?$allocator@D@2@@std@@@std@@U_Zero_then_variadic_args_t@1@@?$_Compressed_pair@U?$less@V?$basic_string@DU?$char_traits@D@std@@V?$allocator@D@2@@std@@@std@@V?$_Compressed_pair@V?$allocator@U?$_Tree_node@U?$pair@$$CBV?$basic_string@DU?$char_traits@D@std@@V?$allocator@D@2@@std@@V?$basic_ptree@V?$basic_string@DU?$char_traits@D@std@@V?$allocator@D@2@@std@@V12@U?$less@V?$basic_string@DU?$char_traits@D@std@@V?$allocator@D@2@@std@@@2@@property_tree@boost@@@std@@PEAX@std@@@std@@V?$_Tree_val@U?$_Tree_simple_types@U?$pair@$$CBV?$basic_string@DU?$char_traits@D@std@@V?$allocator@D@2@@std@@V?$basic_ptree@V?$basic_string@DU?$char_traits@D@std@@V?$allocator@D@2@@std@@V12@U?$less@V?$basic_string@DU?$char_traits@D@std@@V?$allocator@D@2@@std@@@2@@property_tree@boost@@@std@@@std@@@2@$00@2@$00@std@@QEAA@U_One_then_variadic_args_t@1@AEBU?$less@V?$basic_string@DU?$char_traits@D@std@@V?$allocator@D@2@@std@@@1@$$QEAU_Zero_then_variadic_args_t@1@@Z
	??$?0AEBU?$less@V?$basic_string@DU?$char_traits@D@std@@V?$allocator@D@2@@std@@@std@@U_Zero_then_variadic_args_t@1@@?$_Compressed_pair@U?$less@V?$basic_string@DU?$char_traits@D@std@@V?$allocator@D@2@@std@@@std@@V?$_Compressed_pair@V?$allocator@U?$_Tree_node@U?$pair@$$CBV?$basic_string@DU?$char_traits@D@std@@V?$allocator@D@2@@std@@V?$set@UFixedConnection@Trellis@@U?$less@UFixedConnection@Trellis@@@std@@V?$allocator@UFixedConnection@Trellis@@@4@@2@@std@@PEAX@std@@@std@@V?$_Tree_val@U?$_Tree_simple_types@U?$pair@$$CBV?$basic_string@DU?$char_traits@D@std@@V?$allocator@D@2@@std@@V?$set@UFixedConnection@Trellis@@U?$less@UFixedConnection@Trellis@@@std@@V?$allocator@UFixedConnection@Trellis@@@4@@2@@std@@@std@@@2@$00@2@$00@std@@QEAA@U_One_then_variadic_args_t@1@AEBU?$less@V?$basic_string@DU?$char_traits@D@std@@V?$allocator@D@2@@std@@@1@$$QEAU_Zero_then_variadic_args_t@1@@Z
	??$?0AEBU?$less@V?$basic_string@DU?$char_traits@D@std@@V?$allocator@D@2@@std@@@std@@U_Zero_then_variadic_args_t@1@@?$_Compressed_pair@U?$less@V?$basic_string@DU?$char_traits@D@std@@V?$allocator@D@2@@std@@@std@@V?$_Compressed_pair@V?$allocator@U?$_Tree_node@U?$pair@$$CBV?$basic_string@DU?$char_traits@D@std@@V?$allocator@D@2@@std@@V?$shared_ptr@VTile@Trellis@@@2@@std@@PEAX@std@@@std@@V?$_Tree_val@U?$_Tree_simple_types@U?$pair@$$CBV?$basic_string@DU?$char_traits@D@std@@V?$allocator@D@2@@std@@V?$shared_ptr@VTile@Trellis@@@2@@std@@@std@@@2@$00@2@$00@std@@QEAA@U_One_then_variadic_args_t@1@AEBU?$less@V?$basic_string@DU?$char_traits@D@std@@V?$allocator@D@2@@std@@@1@$$QEAU_Zero_then_variadic_args_t@1@@Z
	??$?0AEBU?$less@V?$basic_string@DU?$char_traits@D@std@@V?$allocator@D@2@@std@@@std@@U_Zero_then_variadic_args_t@1@@?$_Compressed_pair@U?$less@V?$basic_string@DU?$char_traits@D@std@@V?$allocator@D@2@@std@@@std@@V?$_Compressed_pair@V?$allocator@U?$_Tree_node@U?$pair@$$CBV?$basic_string@DU?$char_traits@D@std@@V?$allocator@D@2@@std@@V?$vector@UChangedBit@Trellis@@V?$allocator@UChangedBit@Trellis@@@std@@@2@@std@@PEAX@std@@@std@@V?$_Tree_val@U?$_Tree_simple_types@U?$pair@$$CBV?$basic_string@DU?$char_traits@D@std@@V?$allocator@D@2@@std@@V?$vector@UChangedBit@Trellis@@V?$allocator@UChangedBit@Trellis@@@std@@@2@@std@@@std@@@2@$00@2@$00@std@@QEAA@U_One_then_variadic_args_t@1@AEBU?$less@V?$basic_string@DU?$char_traits@D@std@@V?$allocator@D@2@@std@@@1@$$QEAU_Zero_then_variadic_args_t@1@@Z
	??$?0AEBU?$less@V?$basic_string@DU?$char_traits@D@std@@V?$allocator@D@2@@std@@@std@@U_Zero_then_variadic_args_t@1@@?$_Compressed_pair@U?$less@V?$basic_string@DU?$char_traits@D@std@@V?$allocator@D@2@@std@@@std@@V?$_Compressed_pair@V?$allocator@U?$_Tree_node@V?$basic_string@DU?$char_traits@D@std@@V?$allocator@D@2@@std@@PEAX@std@@@std@@V?$_Tree_val@U?$_Tree_simple_types@V?$basic_string@DU?$char_traits@D@std@@V?$allocator@D@2@@std@@@std@@@2@$00@2@$00@std@@QEAA@U_One_then_variadic_args_t@1@AEBU?$less@V?$basic_string@DU?$char_traits@D@std@@V?$allocator@D@2@@std@@@1@$$QEAU_Zero_then_variadic_args_t@1@@Z
	??$?0AEBU?$pair@$$CBII@std@@@?$_Tree_temp_node@V?$allocator@U?$_Tree_node@U?$pair@$$CBII@std@@PEAX@std@@@std@@@std@@QEAA@AEAV?$allocator@U?$_Tree_node@U?$pair@$$CBII@std@@PEAX@std@@@1@PEAU?$_Tree_node@U?$pair@$$CBII@std@@PEAX@1@AEBU?$pair@$$CBII@1@@Z
	??$?0AEBU?$pair@$$CBU?$pair@HH@std@@H@std@@@?$_Tree_temp_node@V?$allocator@U?$_Tree_node@U?$pair@$$CBU?$pair@HH@std@@H@std@@PEAX@std@@@std@@@std@@QEAA@AEAV?$allocator@U?$_Tree_node@U?$pair@$$CBU?$pair@HH@std@@H@std@@PEAX@std@@@1@PEAU?$_Tree_node@U?$pair@$$CBU?$pair@HH@std@@H@std@@PEAX@1@AEBU?$pair@$$CBU?$pair@HH@std@@H@1@@Z
	??$?0AEBU?$pair@$$CBU?$pair@HH@std@@U12@@std@@@?$_Tree_temp_node@V?$allocator@U?$_Tree_node@U?$pair@$$CBU?$pair@HH@std@@U12@@std@@PEAX@std@@@std@@@std@@QEAA@AEAV?$allocator@U?$_Tree_node@U?$pair@$$CBU?$pair@HH@std@@U12@@std@@PEAX@std@@@1@PEAU?$_Tree_node@U?$pair@$$CBU?$pair@HH@std@@U12@@std@@PEAX@1@AEBU?$pair@$$CBU?$pair@HH@std@@U12@@1@@Z
	??$?0AEBU?$pair@$$CBU?$pair@HH@std@@V?$vector@USpineInfo@Trellis@@V?$allocator@USpineInfo@Trellis@@@std@@@2@@std@@@?$_Tree_temp_node@V?$allocator@U?$_Tree_node@U?$pair@$$CBU?$pair@HH@std@@V?$vector@USpineInfo@Trellis@@V?$allocator@USpineInfo@Trellis@@@std@@@2@@std@@PEAX@std@@@std@@@std@@QEAA@AEAV?$allocator@U?$_Tree_node@U?$pair@$$CBU?$pair@HH@std@@V?$vector@USpineInfo@Trellis@@V?$allocator@USpineInfo@Trellis@@@std@@@2@@std@@PEAX@std@@@1@PEAU?$_Tree_node@U?$pair@$$CBU?$pair@HH@std@@V?$vector@USpineInfo@Trellis@@V?$allocator@USpineInfo@Trellis@@@std@@@2@@std@@PEAX@1@AEBU?$pair@$$CBU?$pair@HH@std@@V?$vector@USpineInfo@Trellis@@V?$allocator@USpineInfo@Trellis@@@std@@@2@@1@@Z
	??$?0AEBU?$pair@$$CBV?$basic_string@DU?$char_traits@D@std@@V?$allocator@D@2@@std@@H@std@@@?$_List_node_emplace_op2@V?$allocator@U?$_List_node@U?$pair@$$CBV?$basic_string@DU?$char_traits@D@std@@V?$allocator@D@2@@std@@H@std@@PEAX@std@@@std@@@std@@QEAA@AEAV?$allocator@U?$_List_node@U?$pair@$$CBV?$basic_string@DU?$char_traits@D@std@@V?$allocator@D@2@@std@@H@std@@PEAX@std@@@1@AEBU?$pair@$$CBV?$basic_string@DU?$char_traits@D@std@@V?$allocator@D@2@@std@@H@1@@Z
	??$?0AEBU?$pair@HH@std@@$$Z$$V@?$pair@$$CBU?$pair@HH@std@@H@std@@QEAA@Upiecewise_construct_t@1@V?$tuple@AEBU?$pair@HH@std@@@1@V?$tuple@$$V@1@@Z
	??$?0AEBU?$pair@HH@std@@$$Z$$V@?$pair@$$CBU?$pair@HH@std@@U12@@std@@QEAA@Upiecewise_construct_t@1@V?$tuple@AEBU?$pair@HH@std@@@1@V?$tuple@$$V@1@@Z
	??$?0AEBU?$pair@HH@std@@$0A@@?$tuple@AEBU?$pair@HH@std@@@std@@QEAA@AEBU?$pair@HH@1@@Z
	??$?0AEBU?$pair@HH@std@@@?$_Tuple_val@AEBU?$pair@HH@std@@@std@@QEAA@AEBU?$pair@HH@1@@Z
	??$?0AEBU?$pair@_K_K@std@@$$Z$$V@?$pair@$$CBU?$pair@_K_K@std@@ULocationData@DDChipDb@Trellis@@@std@@QEAA@Upiecewise_construct_t@1@V?$tuple@AEBU?$pair@_K_K@std@@@1@V?$tuple@$$V@1@@Z
	??$?0AEBU?$pair@_K_K@std@@$0A@@?$tuple@AEBU?$pair@_K_K@std@@@std@@QEAA@AEBU?$pair@_K_K@1@@Z
	??$?0AEBU?$pair@_K_K@std@@@?$_Tuple_val@AEBU?$pair@_K_K@std@@@std@@QEAA@AEBU?$pair@_K_K@1@@Z
	??$?0AEBUFixedConnection@Trellis@@@?$_Tree_temp_node@V?$allocator@U?$_Tree_node@UFixedConnection@Trellis@@PEAX@std@@@std@@@std@@QEAA@AEAV?$allocator@U?$_Tree_node@UFixedConnection@Trellis@@PEAX@std@@@1@PEAU?$_Tree_node@UFixedConnection@Trellis@@PEAX@1@AEBUFixedConnection@Trellis@@@Z
	??$?0AEBULocation@Trellis@@$$Z$$V@?$pair@$$CBULocation@Trellis@@U?$pair@_K_K@std@@@std@@QEAA@Upiecewise_construct_t@1@V?$tuple@AEBULocation@Trellis@@@1@V?$tuple@$$V@1@@Z
	??$?0AEBULocation@Trellis@@$$Z$$V@?$pair@$$CBULocation@Trellis@@ULocationData@DDChipDb@2@@std@@QEAA@Upiecewise_construct_t@1@V?$tuple@AEBULocation@Trellis@@@1@V?$tuple@$$V@1@@Z
	??$?0AEBULocation@Trellis@@$$Z$$V@?$pair@$$CBULocation@Trellis@@URoutingTileLoc@2@@std@@QEAA@Upiecewise_construct_t@1@V?$tuple@AEBULocation@Trellis@@@1@V?$tuple@$$V@1@@Z
	??$?0AEBULocation@Trellis@@$0A@@?$tuple@AEBULocation@Trellis@@@std@@QEAA@AEBULocation@Trellis@@@Z
	??$?0AEBULocation@Trellis@@@?$_Tuple_val@AEBULocation@Trellis@@@std@@QEAA@AEBULocation@Trellis@@@Z
	??$?0AEBUTileInfo@Trellis@@AEAVChip@1@@?$_Ref_count_obj2@VTile@Trellis@@@std@@QEAA@AEBUTileInfo@Trellis@@AEAVChip@3@@Z
	??$?0AEBUTileLocator@Trellis@@$$Z$$V@?$pair@$$CBUTileLocator@Trellis@@V?$shared_ptr@VTileBitDatabase@Trellis@@@std@@@std@@QEAA@Upiecewise_construct_t@1@V?$tuple@AEBUTileLocator@Trellis@@@1@V?$tuple@$$V@1@@Z
	??$?0AEBUTileLocator@Trellis@@$0A@@?$tuple@AEBUTileLocator@Trellis@@@std@@QEAA@AEBUTileLocator@Trellis@@@Z
	??$?0AEBUTileLocator@Trellis@@@?$_Tuple_val@AEBUTileLocator@Trellis@@@std@@QEAA@AEBUTileLocator@Trellis@@@Z
	??$?0AEBUpiecewise_construct_t@std@@V?$tuple@$$QEAU?$pair@HH@std@@@1@V?$tuple@$$V@1@@?$_Tree_temp_node@V?$allocator@U?$_Tree_node@U?$pair@$$CBU?$pair@HH@std@@H@std@@PEAX@std@@@std@@@std@@QEAA@AEAV?$allocator@U?$_Tree_node@U?$pair@$$CBU?$pair@HH@std@@H@std@@PEAX@std@@@1@PEAU?$_Tree_node@U?$pair@$$CBU?$pair@HH@std@@H@std@@PEAX@1@AEBUpiecewise_construct_t@1@$$QEAV?$tuple@$$QEAU?$pair@HH@std@@@1@$$QEAV?$tuple@$$V@1@@Z
	??$?0AEBUpiecewise_construct_t@std@@V?$tuple@$$QEAU?$pair@HH@std@@@1@V?$tuple@$$V@1@@?$_Tree_temp_node@V?$allocator@U?$_Tree_node@U?$pair@$$CBU?$pair@HH@std@@U12@@std@@PEAX@std@@@std@@@std@@QEAA@AEAV?$allocator@U?$_Tree_node@U?$pair@$$CBU?$pair@HH@std@@U12@@std@@PEAX@std@@@1@PEAU?$_Tree_node@U?$pair@$$CBU?$pair@HH@std@@U12@@std@@PEAX@1@AEBUpiecewise_construct_t@1@$$QEAV?$tuple@$$QEAU?$pair@HH@std@@@1@$$QEAV?$tuple@$$V@1@@Z
	??$?0AEBUpiecewise_construct_t@std@@V?$tuple@$$QEAU?$pair@HH@std@@@1@V?$tuple@$$V@1@@?$_Tree_temp_node@V?$allocator@U?$_Tree_node@U?$pair@$$CBU?$pair@HH@std@@V?$vector@USpineInfo@Trellis@@V?$allocator@USpineInfo@Trellis@@@std@@@2@@std@@PEAX@std@@@std@@@std@@QEAA@AEAV?$allocator@U?$_Tree_node@U?$pair@$$CBU?$pair@HH@std@@V?$vector@USpineInfo@Trellis@@V?$allocator@USpineInfo@Trellis@@@std@@@2@@std@@PEAX@std@@@1@PEAU?$_Tree_node@U?$pair@$$CBU?$pair@HH@std@@V?$vector@USpineInfo@Trellis@@V?$allocator@USpineInfo@Trellis@@@std@@@2@@std@@PEAX@1@AEBUpiecewise_construct_t@1@$$QEAV?$tuple@$$QEAU?$pair@HH@std@@@1@$$QEAV?$tuple@$$V@1@@Z
	??$?0AEBUpiecewise_construct_t@std@@V?$tuple@AEBG@1@V?$tuple@$$V@1@@?$_Tree_temp_node@V?$allocator@U?$_Tree_node@U?$pair@$$CBGV?$vector@GV?$allocator@G@std@@@std@@@std@@PEAX@std@@@std@@@std@@QEAA@AEAV?$allocator@U?$_Tree_node@U?$pair@$$CBGV?$vector@GV?$allocator@G@std@@@std@@@std@@PEAX@std@@@1@PEAU?$_Tree_node@U?$pair@$$CBGV?$vector@GV?$allocator@G@std@@@std@@@std@@PEAX@1@AEBUpiecewise_construct_t@1@$$QEAV?$tuple@AEBG@1@$$QEAV?$tuple@$$V@1@@Z
	??$?0AEBUpiecewise_construct_t@std@@V?$tuple@AEBH@1@V?$tuple@$$V@1@@?$_Tree_temp_node@V?$allocator@U?$_Tree_node@U?$pair@$$CBHU?$pair@URoutingId@Trellis@@W4PortDirection@2@@std@@@std@@PEAX@std@@@std@@@std@@QEAA@AEAV?$allocator@U?$_Tree_node@U?$pair@$$CBHU?$pair@URoutingId@Trellis@@W4PortDirection@2@@std@@@std@@PEAX@std@@@1@PEAU?$_Tree_node@U?$pair@$$CBHU?$pair@URoutingId@Trellis@@W4PortDirection@2@@std@@@std@@PEAX@1@AEBUpiecewise_construct_t@1@$$QEAV?$tuple@AEBH@1@$$QEAV?$tuple@$$V@1@@Z
	??$?0AEBUpiecewise_construct_t@std@@V?$tuple@AEBH@1@V?$tuple@$$V@1@@?$_Tree_temp_node@V?$allocator@U?$_Tree_node@U?$pair@$$CBHURoutingArc@Trellis@@@std@@PEAX@std@@@std@@@std@@QEAA@AEAV?$allocator@U?$_Tree_node@U?$pair@$$CBHURoutingArc@Trellis@@@std@@PEAX@std@@@1@PEAU?$_Tree_node@U?$pair@$$CBHURoutingArc@Trellis@@@std@@PEAX@1@AEBUpiecewise_construct_t@1@$$QEAV?$tuple@AEBH@1@$$QEAV?$tuple@$$V@1@@Z
	??$?0AEBUpiecewise_construct_t@std@@V?$tuple@AEBH@1@V?$tuple@$$V@1@@?$_Tree_temp_node@V?$allocator@U?$_Tree_node@U?$pair@$$CBHURoutingBel@Trellis@@@std@@PEAX@std@@@std@@@std@@QEAA@AEAV?$allocator@U?$_Tree_node@U?$pair@$$CBHURoutingBel@Trellis@@@std@@PEAX@std@@@1@PEAU?$_Tree_node@U?$pair@$$CBHURoutingBel@Trellis@@@std@@PEAX@1@AEBUpiecewise_construct_t@1@$$QEAV?$tuple@AEBH@1@$$QEAV?$tuple@$$V@1@@Z
	??$?0AEBUpiecewise_construct_t@std@@V?$tuple@AEBH@1@V?$tuple@$$V@1@@?$_Tree_temp_node@V?$allocator@U?$_Tree_node@U?$pair@$$CBHURoutingWire@Trellis@@@std@@PEAX@std@@@std@@@std@@QEAA@AEAV?$allocator@U?$_Tree_node@U?$pair@$$CBHURoutingWire@Trellis@@@std@@PEAX@std@@@1@PEAU?$_Tree_node@U?$pair@$$CBHURoutingWire@Trellis@@@std@@PEAX@1@AEBUpiecewise_construct_t@1@$$QEAV?$tuple@AEBH@1@$$QEAV?$tuple@$$V@1@@Z
	??$?0AEBUpiecewise_construct_t@std@@V?$tuple@AEBU?$pair@HH@std@@@1@V?$tuple@$$V@1@@?$_Tree_temp_node@V?$allocator@U?$_Tree_node@U?$pair@$$CBU?$pair@HH@std@@H@std@@PEAX@std@@@std@@@std@@QEAA@AEAV?$allocator@U?$_Tree_node@U?$pair@$$CBU?$pair@HH@std@@H@std@@PEAX@std@@@1@PEAU?$_Tree_node@U?$pair@$$CBU?$pair@HH@std@@H@std@@PEAX@1@AEBUpiecewise_construct_t@1@$$QEAV?$tuple@AEBU?$pair@HH@std@@@1@$$QEAV?$tuple@$$V@1@@Z
	??$?0AEBUpiecewise_construct_t@std@@V?$tuple@AEBU?$pair@HH@std@@@1@V?$tuple@$$V@1@@?$_Tree_temp_node@V?$allocator@U?$_Tree_node@U?$pair@$$CBU?$pair@HH@std@@U12@@std@@PEAX@std@@@std@@@std@@QEAA@AEAV?$allocator@U?$_Tree_node@U?$pair@$$CBU?$pair@HH@std@@U12@@std@@PEAX@std@@@1@PEAU?$_Tree_node@U?$pair@$$CBU?$pair@HH@std@@U12@@std@@PEAX@1@AEBUpiecewise_construct_t@1@$$QEAV?$tuple@AEBU?$pair@HH@std@@@1@$$QEAV?$tuple@$$V@1@@Z
	??$?0AEBUpiecewise_construct_t@std@@V?$tuple@AEBU?$pair@_K_K@std@@@1@V?$tuple@$$V@1@@?$_Tree_temp_node@V?$allocator@U?$_Tree_node@U?$pair@$$CBU?$pair@_K_K@std@@ULocationData@DDChipDb@Trellis@@@std@@PEAX@std@@@std@@@std@@QEAA@AEAV?$allocator@U?$_Tree_node@U?$pair@$$CBU?$pair@_K_K@std@@ULocationData@DDChipDb@Trellis@@@std@@PEAX@std@@@1@PEAU?$_Tree_node@U?$pair@$$CBU?$pair@_K_K@std@@ULocationData@DDChipDb@Trellis@@@std@@PEAX@1@AEBUpiecewise_construct_t@1@$$QEAV?$tuple@AEBU?$pair@_K_K@std@@@1@$$QEAV?$tuple@$$V@1@@Z
	??$?0AEBUpiecewise_construct_t@std@@V?$tuple@AEBULocation@Trellis@@@1@V?$tuple@$$V@1@@?$_Tree_temp_node@V?$allocator@U?$_Tree_node@U?$pair@$$CBULocation@Trellis@@U?$pair@_K_K@std@@@std@@PEAX@std@@@std@@@std@@QEAA@AEAV?$allocator@U?$_Tree_node@U?$pair@$$CBULocation@Trellis@@U?$pair@_K_K@std@@@std@@PEAX@std@@@1@PEAU?$_Tree_node@U?$pair@$$CBULocation@Trellis@@U?$pair@_K_K@std@@@std@@PEAX@1@AEBUpiecewise_construct_t@1@$$QEAV?$tuple@AEBULocation@Trellis@@@1@$$QEAV?$tuple@$$V@1@@Z
	??$?0AEBUpiecewise_construct_t@std@@V?$tuple@AEBULocation@Trellis@@@1@V?$tuple@$$V@1@@?$_Tree_temp_node@V?$allocator@U?$_Tree_node@U?$pair@$$CBULocation@Trellis@@ULocationData@DDChipDb@2@@std@@PEAX@std@@@std@@@std@@QEAA@AEAV?$allocator@U?$_Tree_node@U?$pair@$$CBULocation@Trellis@@ULocationData@DDChipDb@2@@std@@PEAX@std@@@1@PEAU?$_Tree_node@U?$pair@$$CBULocation@Trellis@@ULocationData@DDChipDb@2@@std@@PEAX@1@AEBUpiecewise_construct_t@1@$$QEAV?$tuple@AEBULocation@Trellis@@@1@$$QEAV?$tuple@$$V@1@@Z
	??$?0AEBUpiecewise_construct_t@std@@V?$tuple@AEBULocation@Trellis@@@1@V?$tuple@$$V@1@@?$_Tree_temp_node@V?$allocator@U?$_Tree_node@U?$pair@$$CBULocation@Trellis@@URoutingTileLoc@2@@std@@PEAX@std@@@std@@@std@@QEAA@AEAV?$allocator@U?$_Tree_node@U?$pair@$$CBULocation@Trellis@@URoutingTileLoc@2@@std@@PEAX@std@@@1@PEAU?$_Tree_node@U?$pair@$$CBULocation@Trellis@@URoutingTileLoc@2@@std@@PEAX@1@AEBUpiecewise_construct_t@1@$$QEAV?$tuple@AEBULocation@Trellis@@@1@$$QEAV?$tuple@$$V@1@@Z
	??$?0AEBUpiecewise_construct_t@std@@V?$tuple@AEBUTileLocator@Trellis@@@1@V?$tuple@$$V@1@@?$_List_node_emplace_op2@V?$allocator@U?$_List_node@U?$pair@$$CBUTileLocator@Trellis@@V?$shared_ptr@VTileBitDatabase@Trellis@@@std@@@std@@PEAX@std@@@std@@@std@@QEAA@AEAV?$allocator@U?$_List_node@U?$pair@$$CBUTileLocator@Trellis@@V?$shared_ptr@VTileBitDatabase@Trellis@@@std@@@std@@PEAX@std@@@1@AEBUpiecewise_construct_t@1@$$QEAV?$tuple@AEBUTileLocator@Trellis@@@1@$$QEAV?$tuple@$$V@1@@Z
	??$?0AEBUpiecewise_construct_t@std@@V?$tuple@AEBV?$basic_string@DU?$char_traits@D@std@@V?$allocator@D@2@@std@@@1@V?$tuple@$$V@1@@?$_List_node_emplace_op2@V?$allocator@U?$_List_node@U?$pair@$$CBV?$basic_string@DU?$char_traits@D@std@@V?$allocator@D@2@@std@@H@std@@PEAX@std@@@std@@@std@@QEAA@AEAV?$allocator@U?$_List_node@U?$pair@$$CBV?$basic_string@DU?$char_traits@D@std@@V?$allocator@D@2@@std@@H@std@@PEAX@std@@@1@AEBUpiecewise_construct_t@1@$$QEAV?$tuple@AEBV?$basic_string@DU?$char_traits@D@std@@V?$allocator@D@2@@std@@@1@$$QEAV?$tuple@$$V@1@@Z
	??$?0AEBUpiecewise_construct_t@std@@V?$tuple@AEBV?$basic_string@DU?$char_traits@D@std@@V?$allocator@D@2@@std@@@1@V?$tuple@$$V@1@@?$_Tree_temp_node@V?$allocator@U?$_Tree_node@U?$pair@$$CBV?$basic_string@DU?$char_traits@D@std@@V?$allocator@D@2@@std@@UArcData@Trellis@@@std@@PEAX@std@@@std@@@std@@QEAA@AEAV?$allocator@U?$_Tree_node@U?$pair@$$CBV?$basic_string@DU?$char_traits@D@std@@V?$allocator@D@2@@std@@UArcData@Trellis@@@std@@PEAX@std@@@1@PEAU?$_Tree_node@U?$pair@$$CBV?$basic_string@DU?$char_traits@D@std@@V?$allocator@D@2@@std@@UArcData@Trellis@@@std@@PEAX@1@AEBUpiecewise_construct_t@1@$$QEAV?$tuple@AEBV?$basic_string@DU?$char_traits@D@std@@V?$allocator@D@2@@std@@@1@$$QEAV?$tuple@$$V@1@@Z
	??$?0AEBUpiecewise_construct_t@std@@V?$tuple@AEBV?$basic_string@DU?$char_traits@D@std@@V?$allocator@D@2@@std@@@1@V?$tuple@$$V@1@@?$_Tree_temp_node@V?$allocator@U?$_Tree_node@U?$pair@$$CBV?$basic_string@DU?$char_traits@D@std@@V?$allocator@D@2@@std@@UBitGroup@Trellis@@@std@@PEAX@std@@@std@@@std@@QEAA@AEAV?$allocator@U?$_Tree_node@U?$pair@$$CBV?$basic_string@DU?$char_traits@D@std@@V?$allocator@D@2@@std@@UBitGroup@Trellis@@@std@@PEAX@std@@@1@PEAU?$_Tree_node@U?$pair@$$CBV?$basic_string@DU?$char_traits@D@std@@V?$allocator@D@2@@std@@UBitGroup@Trellis@@@std@@PEAX@1@AEBUpiecewise_construct_t@1@$$QEAV?$tuple@AEBV?$basic_string@DU?$char_traits@D@std@@V?$allocator@D@2@@std@@@1@$$QEAV?$tuple@$$V@1@@Z
	??$?0AEBUpiecewise_construct_t@std@@V?$tuple@AEBV?$basic_string@DU?$char_traits@D@std@@V?$allocator@D@2@@std@@@1@V?$tuple@$$V@1@@?$_Tree_temp_node@V?$allocator@U?$_Tree_node@U?$pair@$$CBV?$basic_string@DU?$char_traits@D@std@@V?$allocator@D@2@@std@@UEnumSettingBits@Trellis@@@std@@PEAX@std@@@std@@@std@@QEAA@AEAV?$allocator@U?$_Tree_node@U?$pair@$$CBV?$basic_string@DU?$char_traits@D@std@@V?$allocator@D@2@@std@@UEnumSettingBits@Trellis@@@std@@PEAX@std@@@1@PEAU?$_Tree_node@U?$pair@$$CBV?$basic_string@DU?$char_traits@D@std@@V?$allocator@D@2@@std@@UEnumSettingBits@Trellis@@@std@@PEAX@1@AEBUpiecewise_construct_t@1@$$QEAV?$tuple@AEBV?$basic_string@DU?$char_traits@D@std@@V?$allocator@D@2@@std@@@1@$$QEAV?$tuple@$$V@1@@Z
	??$?0AEBUpiecewise_construct_t@std@@V?$tuple@AEBV?$basic_string@DU?$char_traits@D@std@@V?$allocator@D@2@@std@@@1@V?$tuple@$$V@1@@?$_Tree_temp_node@V?$allocator@U?$_Tree_node@U?$pair@$$CBV?$basic_string@DU?$char_traits@D@std@@V?$allocator@D@2@@std@@UMuxBits@Trellis@@@std@@PEAX@std@@@std@@@std@@QEAA@AEAV?$allocator@U?$_Tree_node@U?$pair@$$CBV?$basic_string@DU?$char_traits@D@std@@V?$allocator@D@2@@std@@UMuxBits@Trellis@@@std@@PEAX@std@@@1@PEAU?$_Tree_node@U?$pair@$$CBV?$basic_string@DU?$char_traits@D@std@@V?$allocator@D@2@@std@@UMuxBits@Trellis@@@std@@PEAX@1@AEBUpiecewise_construct_t@1@$$QEAV?$tuple@AEBV?$basic_string@DU?$char_traits@D@std@@V?$allocator@D@2@@std@@@1@$$QEAV?$tuple@$$V@1@@Z
	??$?0AEBUpiecewise_construct_t@std@@V?$tuple@AEBV?$basic_string@DU?$char_traits@D@std@@V?$allocator@D@2@@std@@@1@V?$tuple@$$V@1@@?$_Tree_temp_node@V?$allocator@U?$_Tree_node@U?$pair@$$CBV?$basic_string@DU?$char_traits@D@std@@V?$allocator@D@2@@std@@UTileConfig@Trellis@@@std@@PEAX@std@@@std@@@std@@QEAA@AEAV?$allocator@U?$_Tree_node@U?$pair@$$CBV?$basic_string@DU?$char_traits@D@std@@V?$allocator@D@2@@std@@UTileConfig@Trellis@@@std@@PEAX@std@@@1@PEAU?$_Tree_node@U?$pair@$$CBV?$basic_string@DU?$char_traits@D@std@@V?$allocator@D@2@@std@@UTileConfig@Trellis@@@std@@PEAX@1@AEBUpiecewise_construct_t@1@$$QEAV?$tuple@AEBV?$basic_string@DU?$char_traits@D@std@@V?$allocator@D@2@@std@@@1@$$QEAV?$tuple@$$V@1@@Z
	??$?0AEBUpiecewise_construct_t@std@@V?$tuple@AEBV?$basic_string@DU?$char_traits@D@std@@V?$allocator@D@2@@std@@@1@V?$tuple@$$V@1@@?$_Tree_temp_node@V?$allocator@U?$_Tree_node@U?$pair@$$CBV?$basic_string@DU?$char_traits@D@std@@V?$allocator@D@2@@std@@UWordSettingBits@Trellis@@@std@@PEAX@std@@@std@@@std@@QEAA@AEAV?$allocator@U?$_Tree_node@U?$pair@$$CBV?$basic_string@DU?$char_traits@D@std@@V?$allocator@D@2@@std@@UWordSettingBits@Trellis@@@std@@PEAX@std@@@1@PEAU?$_Tree_node@U?$pair@$$CBV?$basic_string@DU?$char_traits@D@std@@V?$allocator@D@2@@std@@UWordSettingBits@Trellis@@@std@@PEAX@1@AEBUpiecewise_construct_t@1@$$QEAV?$tuple@AEBV?$basic_string@DU?$char_traits@D@std@@V?$allocator@D@2@@std@@@1@$$QEAV?$tuple@$$V@1@@Z
	??$?0AEBUpiecewise_construct_t@std@@V?$tuple@AEBV?$basic_string@DU?$char_traits@D@std@@V?$allocator@D@2@@std@@@1@V?$tuple@$$V@1@@?$_Tree_temp_node@V?$allocator@U?$_Tree_node@U?$pair@$$CBV?$basic_string@DU?$char_traits@D@std@@V?$allocator@D@2@@std@@V12@@std@@PEAX@std@@@std@@@std@@QEAA@AEAV?$allocator@U?$_Tree_node@U?$pair@$$CBV?$basic_string@DU?$char_traits@D@std@@V?$allocator@D@2@@std@@V12@@std@@PEAX@std@@@1@PEAU?$_Tree_node@U?$pair@$$CBV?$basic_string@DU?$char_traits@D@std@@V?$allocator@D@2@@std@@V12@@std@@PEAX@1@AEBUpiecewise_construct_t@1@$$QEAV?$tuple@AEBV?$basic_string@DU?$char_traits@D@std@@V?$allocator@D@2@@std@@@1@$$QEAV?$tuple@$$V@1@@Z
	??$?0AEBUpiecewise_construct_t@std@@V?$tuple@AEBV?$basic_string@DU?$char_traits@D@std@@V?$allocator@D@2@@std@@@1@V?$tuple@$$V@1@@?$_Tree_temp_node@V?$allocator@U?$_Tree_node@U?$pair@$$CBV?$basic_string@DU?$char_traits@D@std@@V?$allocator@D@2@@std@@V?$basic_ptree@V?$basic_string@DU?$char_traits@D@std@@V?$allocator@D@2@@std@@V12@U?$less@V?$basic_string@DU?$char_traits@D@std@@V?$allocator@D@2@@std@@@2@@property_tree@boost@@@std@@PEAX@std@@@std@@@std@@QEAA@AEAV?$allocator@U?$_Tree_node@U?$pair@$$CBV?$basic_string@DU?$char_traits@D@std@@V?$allocator@D@2@@std@@V?$basic_ptree@V?$basic_string@DU?$char_traits@D@std@@V?$allocator@D@2@@std@@V12@U?$less@V?$basic_string@DU?$char_traits@D@std@@V?$allocator@D@2@@std@@@2@@property_tree@boost@@@std@@PEAX@std@@@1@PEAU?$_Tree_node@U?$pair@$$CBV?$basic_string@DU?$char_traits@D@std@@V?$allocator@D@2@@std@@V?$basic_ptree@V?$basic_string@DU?$char_traits@D@std@@V?$allocator@D@2@@std@@V12@U?$less@V?$basic_string@DU?$char_traits@D@std@@V?$allocator@D@2@@std@@@2@@property_tree@boost@@@std@@PEAX@1@AEBUpiecewise_construct_t@1@$$QEAV?$tuple@AEBV?$basic_string@DU?$char_traits@D@std@@V?$allocator@D@2@@std@@@1@$$QEAV?$tuple@$$V@1@@Z
	??$?0AEBUpiecewise_construct_t@std@@V?$tuple@AEBV?$basic_string@DU?$char_traits@D@std@@V?$allocator@D@2@@std@@@1@V?$tuple@$$V@1@@?$_Tree_temp_node@V?$allocator@U?$_Tree_node@U?$pair@$$CBV?$basic_string@DU?$char_traits@D@std@@V?$allocator@D@2@@std@@V?$set@UFixedConnection@Trellis@@U?$less@UFixedConnection@Trellis@@@std@@V?$allocator@UFixedConnection@Trellis@@@4@@2@@std@@PEAX@std@@@std@@@std@@QEAA@AEAV?$allocator@U?$_Tree_node@U?$pair@$$CBV?$basic_string@DU?$char_traits@D@std@@V?$allocator@D@2@@std@@V?$set@UFixedConnection@Trellis@@U?$less@UFixedConnection@Trellis@@@std@@V?$allocator@UFixedConnection@Trellis@@@4@@2@@std@@PEAX@std@@@1@PEAU?$_Tree_node@U?$pair@$$CBV?$basic_string@DU?$char_traits@D@std@@V?$allocator@D@2@@std@@V?$set@UFixedConnection@Trellis@@U?$less@UFixedConnection@Trellis@@@std@@V?$allocator@UFixedConnection@Trellis@@@4@@2@@std@@PEAX@1@AEBUpiecewise_construct_t@1@$$QEAV?$tuple@AEBV?$basic_string@DU?$char_traits@D@std@@V?$allocator@D@2@@std@@@1@$$QEAV?$tuple@$$V@1@@Z
	??$?0AEBUpiecewise_construct_t@std@@V?$tuple@AEBV?$basic_string@DU?$char_traits@D@std@@V?$allocator@D@2@@std@@@1@V?$tuple@$$V@1@@?$_Tree_temp_node@V?$allocator@U?$_Tree_node@U?$pair@$$CBV?$basic_string@DU?$char_traits@D@std@@V?$allocator@D@2@@std@@V?$shared_ptr@VTile@Trellis@@@2@@std@@PEAX@std@@@std@@@std@@QEAA@AEAV?$allocator@U?$_Tree_node@U?$pair@$$CBV?$basic_string@DU?$char_traits@D@std@@V?$allocator@D@2@@std@@V?$shared_ptr@VTile@Trellis@@@2@@std@@PEAX@std@@@1@PEAU?$_Tree_node@U?$pair@$$CBV?$basic_string@DU?$char_traits@D@std@@V?$allocator@D@2@@std@@V?$shared_ptr@VTile@Trellis@@@2@@std@@PEAX@1@AEBUpiecewise_construct_t@1@$$QEAV?$tuple@AEBV?$basic_string@DU?$char_traits@D@std@@V?$allocator@D@2@@std@@@1@$$QEAV?$tuple@$$V@1@@Z
	??$?0AEBUpiecewise_construct_t@std@@V?$tuple@AEBV?$basic_string@DU?$char_traits@D@std@@V?$allocator@D@2@@std@@@1@V?$tuple@$$V@1@@?$_Tree_temp_node@V?$allocator@U?$_Tree_node@U?$pair@$$CBV?$basic_string@DU?$char_traits@D@std@@V?$allocator@D@2@@std@@V?$vector@UChangedBit@Trellis@@V?$allocator@UChangedBit@Trellis@@@std@@@2@@std@@PEAX@std@@@std@@@std@@QEAA@AEAV?$allocator@U?$_Tree_node@U?$pair@$$CBV?$basic_string@DU?$char_traits@D@std@@V?$allocator@D@2@@std@@V?$vector@UChangedBit@Trellis@@V?$allocator@UChangedBit@Trellis@@@std@@@2@@std@@PEAX@std@@@1@PEAU?$_Tree_node@U?$pair@$$CBV?$basic_string@DU?$char_traits@D@std@@V?$allocator@D@2@@std@@V?$vector@UChangedBit@Trellis@@V?$allocator@UChangedBit@Trellis@@@std@@@2@@std@@PEAX@1@AEBUpiecewise_construct_t@1@$$QEAV?$tuple@AEBV?$basic_string@DU?$char_traits@D@std@@V?$allocator@D@2@@std@@@1@$$QEAV?$tuple@$$V@1@@Z
	??$?0AEBV?$allocator@D@std@@$$V@?$_Compressed_pair@V?$allocator@D@std@@V?$_String_val@U?$_Simple_types@D@std@@@2@$00@std@@QEAA@U_One_then_variadic_args_t@1@AEBV?$allocator@D@1@@Z
	??$?0AEBV?$allocator@D@std@@$$V@?$_Compressed_pair@V?$allocator@D@std@@V?$_Vector_val@U?$_Simple_types@D@std@@@2@$00@std@@QEAA@U_One_then_variadic_args_t@1@AEBV?$allocator@D@1@@Z
	??$?0AEBV?$allocator@E@std@@$$V@?$_Compressed_pair@V?$allocator@E@std@@V?$_Vector_val@U?$_Simple_types@E@std@@@2@$00@std@@QEAA@U_One_then_variadic_args_t@1@AEBV?$allocator@E@1@@Z
	??$?0AEBV?$allocator@I@std@@$$V@?$_Compressed_pair@V?$allocator@I@std@@V?$_Vector_val@U?$_Simple_types@I@std@@@2@$00@std@@QEAA@U_One_then_variadic_args_t@1@AEBV?$allocator@I@1@@Z
	??$?0AEBV?$allocator@U?$_List_node@U?$pair@$$CBV?$basic_string@DU?$char_traits@D@std@@V?$allocator@D@2@@std@@H@std@@PEAX@std@@@std@@$$V@?$_Compressed_pair@V?$allocator@V?$_List_unchecked_iterator@V?$_List_val@U?$_List_simple_types@U?$pair@$$CBV?$basic_string@DU?$char_traits@D@std@@V?$allocator@D@2@@std@@H@std@@@std@@@std@@@std@@@std@@V?$_Vector_val@U?$_Simple_types@V?$_List_unchecked_iterator@V?$_List_val@U?$_List_simple_types@U?$pair@$$CBV?$basic_string@DU?$char_traits@D@std@@V?$allocator@D@2@@std@@H@std@@@std@@@std@@@std@@@std@@@2@$00@std@@QEAA@U_One_then_variadic_args_t@1@AEBV?$allocator@U?$_List_node@U?$pair@$$CBV?$basic_string@DU?$char_traits@D@std@@V?$allocator@D@2@@std@@H@std@@PEAX@std@@@1@@Z
	??$?0AEBV?$allocator@U?$_List_node@U?$pair@$$CBV?$basic_string@DU?$char_traits@D@std@@V?$allocator@D@2@@std@@H@std@@PEAX@std@@@std@@$0A@@?$_Hash_vec@V?$allocator@V?$_List_unchecked_iterator@V?$_List_val@U?$_List_simple_types@U?$pair@$$CBV?$basic_string@DU?$char_traits@D@std@@V?$allocator@D@2@@std@@H@std@@@std@@@std@@@std@@@std@@@std@@QEAA@AEBV?$allocator@U?$_List_node@U?$pair@$$CBV?$basic_string@DU?$char_traits@D@std@@V?$allocator@D@2@@std@@H@std@@PEAX@std@@@1@@Z
	??$?0AEBV?$allocator@U?$pair@$$CBUTileLocator@Trellis@@V?$shared_ptr@VTileBitDatabase@Trellis@@@std@@@std@@@std@@$$V@?$_Compressed_pair@V?$allocator@U?$_List_node@U?$pair@$$CBUTileLocator@Trellis@@V?$shared_ptr@VTileBitDatabase@Trellis@@@std@@@std@@PEAX@std@@@std@@V?$_List_val@U?$_List_simple_types@U?$pair@$$CBUTileLocator@Trellis@@V?$shared_ptr@VTileBitDatabase@Trellis@@@std@@@std@@@std@@@2@$00@std@@QEAA@U_One_then_variadic_args_t@1@AEBV?$allocator@U?$pair@$$CBUTileLocator@Trellis@@V?$shared_ptr@VTileBitDatabase@Trellis@@@std@@@std@@@1@@Z
	??$?0AEBV?$allocator@U?$pair@$$CBUTileLocator@Trellis@@V?$shared_ptr@VTileBitDatabase@Trellis@@@std@@@std@@@std@@$$V@?$_Compressed_pair@V?$allocator@V?$_List_unchecked_iterator@V?$_List_val@U?$_List_simple_types@U?$pair@$$CBUTileLocator@Trellis@@V?$shared_ptr@VTileBitDatabase@Trellis@@@std@@@std@@@std@@@std@@@std@@@std@@V?$_Vector_val@U?$_Simple_types@V?$_List_unchecked_iterator@V?$_List_val@U?$_List_simple_types@U?$pair@$$CBUTileLocator@Trellis@@V?$shared_ptr@VTileBitDatabase@Trellis@@@std@@@std@@@std@@@std@@@std@@@std@@@2@$00@std@@QEAA@U_One_then_variadic_args_t@1@AEBV?$allocator@U?$pair@$$CBUTileLocator@Trellis@@V?$shared_ptr@VTileBitDatabase@Trellis@@@std@@@std@@@1@@Z
	??$?0AEBV?$allocator@U?$pair@$$CBUTileLocator@Trellis@@V?$shared_ptr@VTileBitDatabase@Trellis@@@std@@@std@@@std@@$0A@@?$_Hash_vec@V?$allocator@V?$_List_unchecked_iterator@V?$_List_val@U?$_List_simple_types@U?$pair@$$CBUTileLocator@Trellis@@V?$shared_ptr@VTileBitDatabase@Trellis@@@std@@@std@@@std@@@std@@@std@@@std@@@std@@QEAA@AEBV?$allocator@U?$pair@$$CBUTileLocator@Trellis@@V?$shared_ptr@VTileBitDatabase@Trellis@@@std@@@std@@@1@@Z
	??$?0AEBV?$allocator@U?$pair@$$CBV?$basic_string@DU?$char_traits@D@std@@V?$allocator@D@2@@std@@H@std@@@std@@$$V@?$_Compressed_pair@V?$allocator@U?$_List_node@U?$pair@$$CBV?$basic_string@DU?$char_traits@D@std@@V?$allocator@D@2@@std@@H@std@@PEAX@std@@@std@@V?$_List_val@U?$_List_simple_types@U?$pair@$$CBV?$basic_string@DU?$char_traits@D@std@@V?$allocator@D@2@@std@@H@std@@@std@@@2@$00@std@@QEAA@U_One_then_variadic_args_t@1@AEBV?$allocator@U?$pair@$$CBV?$basic_string@DU?$char_traits@D@std@@V?$allocator@D@2@@std@@H@std@@@1@@Z
	??$?0AEBV?$allocator@U?$pair@$$CBV?$basic_string@DU?$char_traits@D@std@@V?$allocator@D@2@@std@@H@std@@@std@@$$V@?$_Compressed_pair@V?$allocator@V?$_List_unchecked_iterator@V?$_List_val@U?$_List_simple_types@U?$pair@$$CBV?$basic_string@DU?$char_traits@D@std@@V?$allocator@D@2@@std@@H@std@@@std@@@std@@@std@@@std@@V?$_Vector_val@U?$_Simple_types@V?$_List_unchecked_iterator@V?$_List_val@U?$_List_simple_types@U?$pair@$$CBV?$basic_string@DU?$char_traits@D@std@@V?$allocator@D@2@@std@@H@std@@@std@@@std@@@std@@@std@@@2@$00@std@@QEAA@U_One_then_variadic_args_t@1@AEBV?$allocator@U?$pair@$$CBV?$basic_string@DU?$char_traits@D@std@@V?$allocator@D@2@@std@@H@std@@@1@@Z
	??$?0AEBV?$allocator@U?$pair@$$CBV?$basic_string@DU?$char_traits@D@std@@V?$allocator@D@2@@std@@H@std@@@std@@$0A@@?$_Hash_vec@V?$allocator@V?$_List_unchecked_iterator@V?$_List_val@U?$_List_simple_types@U?$pair@$$CBV?$basic_string@DU?$char_traits@D@std@@V?$allocator@D@2@@std@@H@std@@@std@@@std@@@std@@@std@@@std@@QEAA@AEBV?$allocator@U?$pair@$$CBV?$basic_string@DU?$char_traits@D@std@@V?$allocator@D@2@@std@@H@std@@@1@@Z
	??$?0AEBV?$allocator@U?$pair@V?$basic_string@DU?$char_traits@D@std@@V?$allocator@D@2@@std@@E@std@@@std@@$$V@?$_Compressed_pair@V?$allocator@U?$pair@V?$basic_string@DU?$char_traits@D@std@@V?$allocator@D@2@@std@@E@std@@@std@@V?$_Vector_val@U?$_Simple_types@U?$pair@V?$basic_string@DU?$char_traits@D@std@@V?$allocator@D@2@@std@@E@std@@@std@@@2@$00@std@@QEAA@U_One_then_variadic_args_t@1@AEBV?$allocator@U?$pair@V?$basic_string@DU?$char_traits@D@std@@V?$allocator@D@2@@std@@E@std@@@1@@Z
	??$?0AEBV?$allocator@UConfigBit@Trellis@@@std@@$$V@?$_Compressed_pair@V?$allocator@U?$_List_node@UConfigBit@Trellis@@PEAX@std@@@std@@V?$_List_val@U?$_List_simple_types@UConfigBit@Trellis@@@std@@@2@$00@std@@QEAA@U_One_then_variadic_args_t@1@AEBV?$allocator@UConfigBit@Trellis@@@1@@Z
	??$?0AEBV?$allocator@UConfigBit@Trellis@@@std@@$$V@?$_Compressed_pair@V?$allocator@V?$_List_unchecked_const_iterator@V?$_List_val@U?$_List_simple_types@UConfigBit@Trellis@@@std@@@std@@U_Iterator_base0@2@@std@@@std@@V?$_Vector_val@U?$_Simple_types@V?$_List_unchecked_const_iterator@V?$_List_val@U?$_List_simple_types@UConfigBit@Trellis@@@std@@@std@@U_Iterator_base0@2@@std@@@std@@@2@$00@std@@QEAA@U_One_then_variadic_args_t@1@AEBV?$allocator@UConfigBit@Trellis@@@1@@Z
	??$?0AEBV?$allocator@UConfigBit@Trellis@@@std@@$0A@@?$_Hash_vec@V?$allocator@V?$_List_unchecked_const_iterator@V?$_List_val@U?$_List_simple_types@UConfigBit@Trellis@@@std@@@std@@U_Iterator_base0@2@@std@@@std@@@std@@QEAA@AEBV?$allocator@UConfigBit@Trellis@@@1@@Z
	??$?0AEBV?$allocator@USpineInfo@Trellis@@@std@@$$V@?$_Compressed_pair@V?$allocator@USpineInfo@Trellis@@@std@@V?$_Vector_val@U?$_Simple_types@USpineInfo@Trellis@@@std@@@2@$00@std@@QEAA@U_One_then_variadic_args_t@1@AEBV?$allocator@USpineInfo@Trellis@@@1@@Z
	??$?0AEBV?$basic_string@DU?$char_traits@D@std@@V?$allocator@D@2@@std@@$$Z$$V@?$pair@$$CBV?$basic_string@DU?$char_traits@D@std@@V?$allocator@D@2@@std@@H@std@@QEAA@Upiecewise_construct_t@1@V?$tuple@AEBV?$basic_string@DU?$char_traits@D@std@@V?$allocator@D@2@@std@@@1@V?$tuple@$$V@1@@Z
	??$?0AEBV?$basic_string@DU?$char_traits@D@std@@V?$allocator@D@2@@std@@$$Z$$V@?$pair@$$CBV?$basic_string@DU?$char_traits@D@std@@V?$allocator@D@2@@std@@UArcData@Trellis@@@std@@QEAA@Upiecewise_construct_t@1@V?$tuple@AEBV?$basic_string@DU?$char_traits@D@std@@V?$allocator@D@2@@std@@@1@V?$tuple@$$V@1@@Z
	??$?0AEBV?$basic_string@DU?$char_traits@D@std@@V?$allocator@D@2@@std@@$$Z$$V@?$pair@$$CBV?$basic_string@DU?$char_traits@D@std@@V?$allocator@D@2@@std@@UBitGroup@Trellis@@@std@@QEAA@Upiecewise_construct_t@1@V?$tuple@AEBV?$basic_string@DU?$char_traits@D@std@@V?$allocator@D@2@@std@@@1@V?$tuple@$$V@1@@Z
	??$?0AEBV?$basic_string@DU?$char_traits@D@std@@V?$allocator@D@2@@std@@$$Z$$V@?$pair@$$CBV?$basic_string@DU?$char_traits@D@std@@V?$allocator@D@2@@std@@UEnumSettingBits@Trellis@@@std@@QEAA@Upiecewise_construct_t@1@V?$tuple@AEBV?$basic_string@DU?$char_traits@D@std@@V?$allocator@D@2@@std@@@1@V?$tuple@$$V@1@@Z
	??$?0AEBV?$basic_string@DU?$char_traits@D@std@@V?$allocator@D@2@@std@@$$Z$$V@?$pair@$$CBV?$basic_string@DU?$char_traits@D@std@@V?$allocator@D@2@@std@@UMuxBits@Trellis@@@std@@QEAA@Upiecewise_construct_t@1@V?$tuple@AEBV?$basic_string@DU?$char_traits@D@std@@V?$allocator@D@2@@std@@@1@V?$tuple@$$V@1@@Z
	??$?0AEBV?$basic_string@DU?$char_traits@D@std@@V?$allocator@D@2@@std@@$$Z$$V@?$pair@$$CBV?$basic_string@DU?$char_traits@D@std@@V?$allocator@D@2@@std@@UTileConfig@Trellis@@@std@@QEAA@Upiecewise_construct_t@1@V?$tuple@AEBV?$basic_string@DU?$char_traits@D@std@@V?$allocator@D@2@@std@@@1@V?$tuple@$$V@1@@Z
	??$?0AEBV?$basic_string@DU?$char_traits@D@std@@V?$allocator@D@2@@std@@$$Z$$V@?$pair@$$CBV?$basic_string@DU?$char_traits@D@std@@V?$allocator@D@2@@std@@UWordSettingBits@Trellis@@@std@@QEAA@Upiecewise_construct_t@1@V?$tuple@AEBV?$basic_string@DU?$char_traits@D@std@@V?$allocator@D@2@@std@@@1@V?$tuple@$$V@1@@Z
	??$?0AEBV?$basic_string@DU?$char_traits@D@std@@V?$allocator@D@2@@std@@$$Z$$V@?$pair@$$CBV?$basic_string@DU?$char_traits@D@std@@V?$allocator@D@2@@std@@V12@@std@@QEAA@Upiecewise_construct_t@1@V?$tuple@AEBV?$basic_string@DU?$char_traits@D@std@@V?$allocator@D@2@@std@@@1@V?$tuple@$$V@1@@Z
	??$?0AEBV?$basic_string@DU?$char_traits@D@std@@V?$allocator@D@2@@std@@$$Z$$V@?$pair@$$CBV?$basic_string@DU?$char_traits@D@std@@V?$allocator@D@2@@std@@V?$basic_ptree@V?$basic_string@DU?$char_traits@D@std@@V?$allocator@D@2@@std@@V12@U?$less@V?$basic_string@DU?$char_traits@D@std@@V?$allocator@D@2@@std@@@2@@property_tree@boost@@@std@@QEAA@Upiecewise_construct_t@1@V?$tuple@AEBV?$basic_string@DU?$char_traits@D@std@@V?$allocator@D@2@@std@@@1@V?$tuple@$$V@1@@Z
	??$?0AEBV?$basic_string@DU?$char_traits@D@std@@V?$allocator@D@2@@std@@$$Z$$V@?$pair@$$CBV?$basic_string@DU?$char_traits@D@std@@V?$allocator@D@2@@std@@V?$set@UFixedConnection@Trellis@@U?$less@UFixedConnection@Trellis@@@std@@V?$allocator@UFixedConnection@Trellis@@@4@@2@@std@@QEAA@Upiecewise_construct_t@1@V?$tuple@AEBV?$basic_string@DU?$char_traits@D@std@@V?$allocator@D@2@@std@@@1@V?$tuple@$$V@1@@Z
	??$?0AEBV?$basic_string@DU?$char_traits@D@std@@V?$allocator@D@2@@std@@$$Z$$V@?$pair@$$CBV?$basic_string@DU?$char_traits@D@std@@V?$allocator@D@2@@std@@V?$shared_ptr@VTile@Trellis@@@2@@std@@QEAA@Upiecewise_construct_t@1@V?$tuple@AEBV?$basic_string@DU?$char_traits@D@std@@V?$allocator@D@2@@std@@@1@V?$tuple@$$V@1@@Z
	??$?0AEBV?$basic_string@DU?$char_traits@D@std@@V?$allocator@D@2@@std@@$$Z$$V@?$pair@$$CBV?$basic_string@DU?$char_traits@D@std@@V?$allocator@D@2@@std@@V?$vector@UChangedBit@Trellis@@V?$allocator@UChangedBit@Trellis@@@std@@@2@@std@@QEAA@Upiecewise_construct_t@1@V?$tuple@AEBV?$basic_string@DU?$char_traits@D@std@@V?$allocator@D@2@@std@@@1@V?$tuple@$$V@1@@Z
	??$?0AEBV?$basic_string@DU?$char_traits@D@std@@V?$allocator@D@2@@std@@$0A@@?$tuple@AEBV?$basic_string@DU?$char_traits@D@std@@V?$allocator@D@2@@std@@@std@@QEAA@AEBV?$basic_string@DU?$char_traits@D@std@@V?$allocator@D@2@@1@@Z
	??$?0AEBV?$basic_string@DU?$char_traits@D@std@@V?$allocator@D@2@@std@@@?$_Tree_temp_node@V?$allocator@U?$_Tree_node@V?$basic_string@DU?$char_traits@D@std@@V?$allocator@D@2@@std@@PEAX@std@@@std@@@std@@QEAA@AEAV?$allocator@U?$_Tree_node@V?$basic_string@DU?$char_traits@D@std@@V?$allocator@D@2@@std@@PEAX@std@@@1@PEAU?$_Tree_node@V?$basic_string@DU?$char_traits@D@std@@V?$allocator@D@2@@std@@PEAX@1@AEBV?$basic_string@DU?$char_traits@D@std@@V?$allocator@D@2@@1@@Z
	??$?0AEBV?$basic_string@DU?$char_traits@D@std@@V?$allocator@D@2@@std@@@?$_Tuple_val@AEBV?$basic_string@DU?$char_traits@D@std@@V?$allocator@D@2@@std@@@std@@QEAA@AEBV?$basic_string@DU?$char_traits@D@std@@V?$allocator@D@2@@1@@Z
	??$?0AEBV?$basic_string@DU?$char_traits@D@std@@V?$allocator@D@2@@std@@_N$0A@@?$pair@V?$basic_string@DU?$char_traits@D@std@@V?$allocator@D@2@@std@@_N@std@@QEAA@AEBV?$basic_string@DU?$char_traits@D@std@@V?$allocator@D@2@@1@$$QEA_N@Z
	??$?0HAEAH$0A@@?$pair@HH@std@@QEAA@$$QEAHAEAH@Z
	??$?0HH$0A@@?$pair@HE@std@@QEAA@$$QEAU?$pair@HH@1@@Z
	??$?0HH$0A@@?$pair@HH@std@@QEAA@$$QEAH0@Z
	??$?0HH$0A@@?$pair@HH@std@@QEAA@AEBH0@Z
	??$?0HH$0A@@?$pair@HH@std@@QEAA@XZ
	??$?0HH$0A@@?$pair@_K_K@std@@QEAA@$$QEAU?$pair@HH@1@@Z
	??$?0M@?$_Compressed_pair@U?$equal_to@UConfigBit@Trellis@@@std@@M$00@std@@QEAA@U_Zero_then_variadic_args_t@1@$$QEAM@Z
	??$?0M@?$_Compressed_pair@U?$equal_to@UTileLocator@Trellis@@@std@@M$00@std@@QEAA@U_Zero_then_variadic_args_t@1@$$QEAM@Z
	??$?0M@?$_Compressed_pair@U?$equal_to@V?$basic_string@DU?$char_traits@D@std@@V?$allocator@D@2@@std@@@std@@M$00@std@@QEAA@U_Zero_then_variadic_args_t@1@$$QEAM@Z
	??$?0PEAD$0A@@?$basic_string@DU?$char_traits@D@std@@V?$allocator@D@2@@std@@QEAA@PEAD0AEBV?$allocator@D@1@@Z
	??$?0PEAEU?$default_delete@$$BY0A@E@std@@$0A@$0A@@?$unique_ptr@$$BY0A@EU?$default_delete@$$BY0A@E@std@@@std@@QEAA@PEAE@Z
	??$?0PEAU?$_List_node@U?$pair@$$CBUTileLocator@Trellis@@V?$shared_ptr@VTileBitDatabase@Trellis@@@std@@@std@@PEAX@std@@_N$0A@@?$pair@PEAU?$_List_node@U?$pair@$$CBUTileLocator@Trellis@@V?$shared_ptr@VTileBitDatabase@Trellis@@@std@@@std@@PEAX@std@@_N@std@@QEAA@$$QEAPEAU?$_List_node@U?$pair@$$CBUTileLocator@Trellis@@V?$shared_ptr@VTileBitDatabase@Trellis@@@std@@@std@@PEAX@1@$$QEA_N@Z
	??$?0PEAU?$_List_node@U?$pair@$$CBV?$basic_string@DU?$char_traits@D@std@@V?$allocator@D@2@@std@@H@std@@PEAX@std@@_N$0A@@?$pair@PEAU?$_List_node@U?$pair@$$CBV?$basic_string@DU?$char_traits@D@std@@V?$allocator@D@2@@std@@H@std@@PEAX@std@@_N@std@@QEAA@$$QEAPEAU?$_List_node@U?$pair@$$CBV?$basic_string@DU?$char_traits@D@std@@V?$allocator@D@2@@std@@H@std@@PEAX@1@$$QEA_N@Z
	??$?0PEAU?$_Tree_node@U?$pair@$$CBGV?$vector@GV?$allocator@G@std@@@std@@@std@@PEAX@std@@_N$0A@@?$pair@PEAU?$_Tree_node@U?$pair@$$CBGV?$vector@GV?$allocator@G@std@@@std@@@std@@PEAX@std@@_N@std@@QEAA@$$QEAPEAU?$_Tree_node@U?$pair@$$CBGV?$vector@GV?$allocator@G@std@@@std@@@std@@PEAX@1@$$QEA_N@Z
	??$?0PEAU?$_Tree_node@U?$pair@$$CBHU?$pair@URoutingId@Trellis@@W4PortDirection@2@@std@@@std@@PEAX@std@@_N$0A@@?$pair@PEAU?$_Tree_node@U?$pair@$$CBHU?$pair@URoutingId@Trellis@@W4PortDirection@2@@std@@@std@@PEAX@std@@_N@std@@QEAA@$$QEAPEAU?$_Tree_node@U?$pair@$$CBHU?$pair@URoutingId@Trellis@@W4PortDirection@2@@std@@@std@@PEAX@1@$$QEA_N@Z
	??$?0PEAU?$_Tree_node@U?$pair@$$CBHURoutingArc@Trellis@@@std@@PEAX@std@@_N$0A@@?$pair@PEAU?$_Tree_node@U?$pair@$$CBHURoutingArc@Trellis@@@std@@PEAX@std@@_N@std@@QEAA@$$QEAPEAU?$_Tree_node@U?$pair@$$CBHURoutingArc@Trellis@@@std@@PEAX@1@$$QEA_N@Z
	??$?0PEAU?$_Tree_node@U?$pair@$$CBHURoutingBel@Trellis@@@std@@PEAX@std@@_N$0A@@?$pair@PEAU?$_Tree_node@U?$pair@$$CBHURoutingBel@Trellis@@@std@@PEAX@std@@_N@std@@QEAA@$$QEAPEAU?$_Tree_node@U?$pair@$$CBHURoutingBel@Trellis@@@std@@PEAX@1@$$QEA_N@Z
	??$?0PEAU?$_Tree_node@U?$pair@$$CBHURoutingWire@Trellis@@@std@@PEAX@std@@_N$0A@@?$pair@PEAU?$_Tree_node@U?$pair@$$CBHURoutingWire@Trellis@@@std@@PEAX@std@@_N@std@@QEAA@$$QEAPEAU?$_Tree_node@U?$pair@$$CBHURoutingWire@Trellis@@@std@@PEAX@1@$$QEA_N@Z
	??$?0PEAU?$_Tree_node@U?$pair@$$CBU?$pair@HH@std@@H@std@@PEAX@std@@_N$0A@@?$pair@PEAU?$_Tree_node@U?$pair@$$CBU?$pair@HH@std@@H@std@@PEAX@std@@_N@std@@QEAA@$$QEAPEAU?$_Tree_node@U?$pair@$$CBU?$pair@HH@std@@H@std@@PEAX@1@$$QEA_N@Z
	??$?0PEAU?$_Tree_node@U?$pair@$$CBU?$pair@HH@std@@U12@@std@@PEAX@std@@_N$0A@@?$pair@PEAU?$_Tree_node@U?$pair@$$CBU?$pair@HH@std@@U12@@std@@PEAX@std@@_N@std@@QEAA@$$QEAPEAU?$_Tree_node@U?$pair@$$CBU?$pair@HH@std@@U12@@std@@PEAX@1@$$QEA_N@Z
	??$?0PEAU?$_Tree_node@U?$pair@$$CBU?$pair@HH@std@@V?$vector@USpineInfo@Trellis@@V?$allocator@USpineInfo@Trellis@@@std@@@2@@std@@PEAX@std@@_N$0A@@?$pair@PEAU?$_Tree_node@U?$pair@$$CBU?$pair@HH@std@@V?$vector@USpineInfo@Trellis@@V?$allocator@USpineInfo@Trellis@@@std@@@2@@std@@PEAX@std@@_N@std@@QEAA@$$QEAPEAU?$_Tree_node@U?$pair@$$CBU?$pair@HH@std@@V?$vector@USpineInfo@Trellis@@V?$allocator@USpineInfo@Trellis@@@std@@@2@@std@@PEAX@1@$$QEA_N@Z
	??$?0PEAU?$_Tree_node@U?$pair@$$CBU?$pair@_K_K@std@@ULocationData@DDChipDb@Trellis@@@std@@PEAX@std@@_N$0A@@?$pair@PEAU?$_Tree_node@U?$pair@$$CBU?$pair@_K_K@std@@ULocationData@DDChipDb@Trellis@@@std@@PEAX@std@@_N@std@@QEAA@$$QEAPEAU?$_Tree_node@U?$pair@$$CBU?$pair@_K_K@std@@ULocationData@DDChipDb@Trellis@@@std@@PEAX@1@$$QEA_N@Z
	??$?0PEAU?$_Tree_node@U?$pair@$$CBULocation@Trellis@@U?$pair@_K_K@std@@@std@@PEAX@std@@_N$0A@@?$pair@PEAU?$_Tree_node@U?$pair@$$CBULocation@Trellis@@U?$pair@_K_K@std@@@std@@PEAX@std@@_N@std@@QEAA@$$QEAPEAU?$_Tree_node@U?$pair@$$CBULocation@Trellis@@U?$pair@_K_K@std@@@std@@PEAX@1@$$QEA_N@Z
	??$?0PEAU?$_Tree_node@U?$pair@$$CBULocation@Trellis@@ULocationData@DDChipDb@2@@std@@PEAX@std@@_N$0A@@?$pair@PEAU?$_Tree_node@U?$pair@$$CBULocation@Trellis@@ULocationData@DDChipDb@2@@std@@PEAX@std@@_N@std@@QEAA@$$QEAPEAU?$_Tree_node@U?$pair@$$CBULocation@Trellis@@ULocationData@DDChipDb@2@@std@@PEAX@1@$$QEA_N@Z
	??$?0PEAU?$_Tree_node@U?$pair@$$CBULocation@Trellis@@URoutingTileLoc@2@@std@@PEAX@std@@_N$0A@@?$pair@PEAU?$_Tree_node@U?$pair@$$CBULocation@Trellis@@URoutingTileLoc@2@@std@@PEAX@std@@_N@std@@QEAA@$$QEAPEAU?$_Tree_node@U?$pair@$$CBULocation@Trellis@@URoutingTileLoc@2@@std@@PEAX@1@$$QEA_N@Z
	??$?0PEAU?$_Tree_node@U?$pair@$$CBV?$basic_string@DU?$char_traits@D@std@@V?$allocator@D@2@@std@@UArcData@Trellis@@@std@@PEAX@std@@_N$0A@@?$pair@PEAU?$_Tree_node@U?$pair@$$CBV?$basic_string@DU?$char_traits@D@std@@V?$allocator@D@2@@std@@UArcData@Trellis@@@std@@PEAX@std@@_N@std@@QEAA@$$QEAPEAU?$_Tree_node@U?$pair@$$CBV?$basic_string@DU?$char_traits@D@std@@V?$allocator@D@2@@std@@UArcData@Trellis@@@std@@PEAX@1@$$QEA_N@Z
	??$?0PEAU?$_Tree_node@U?$pair@$$CBV?$basic_string@DU?$char_traits@D@std@@V?$allocator@D@2@@std@@UBitGroup@Trellis@@@std@@PEAX@std@@_N$0A@@?$pair@PEAU?$_Tree_node@U?$pair@$$CBV?$basic_string@DU?$char_traits@D@std@@V?$allocator@D@2@@std@@UBitGroup@Trellis@@@std@@PEAX@std@@_N@std@@QEAA@$$QEAPEAU?$_Tree_node@U?$pair@$$CBV?$basic_string@DU?$char_traits@D@std@@V?$allocator@D@2@@std@@UBitGroup@Trellis@@@std@@PEAX@1@$$QEA_N@Z
	??$?0PEAU?$_Tree_node@U?$pair@$$CBV?$basic_string@DU?$char_traits@D@std@@V?$allocator@D@2@@std@@UEnumSettingBits@Trellis@@@std@@PEAX@std@@_N$0A@@?$pair@PEAU?$_Tree_node@U?$pair@$$CBV?$basic_string@DU?$char_traits@D@std@@V?$allocator@D@2@@std@@UEnumSettingBits@Trellis@@@std@@PEAX@std@@_N@std@@QEAA@$$QEAPEAU?$_Tree_node@U?$pair@$$CBV?$basic_string@DU?$char_traits@D@std@@V?$allocator@D@2@@std@@UEnumSettingBits@Trellis@@@std@@PEAX@1@$$QEA_N@Z
	??$?0PEAU?$_Tree_node@U?$pair@$$CBV?$basic_string@DU?$char_traits@D@std@@V?$allocator@D@2@@std@@UMuxBits@Trellis@@@std@@PEAX@std@@_N$0A@@?$pair@PEAU?$_Tree_node@U?$pair@$$CBV?$basic_string@DU?$char_traits@D@std@@V?$allocator@D@2@@std@@UMuxBits@Trellis@@@std@@PEAX@std@@_N@std@@QEAA@$$QEAPEAU?$_Tree_node@U?$pair@$$CBV?$basic_string@DU?$char_traits@D@std@@V?$allocator@D@2@@std@@UMuxBits@Trellis@@@std@@PEAX@1@$$QEA_N@Z
	??$?0PEAU?$_Tree_node@U?$pair@$$CBV?$basic_string@DU?$char_traits@D@std@@V?$allocator@D@2@@std@@UTileConfig@Trellis@@@std@@PEAX@std@@_N$0A@@?$pair@PEAU?$_Tree_node@U?$pair@$$CBV?$basic_string@DU?$char_traits@D@std@@V?$allocator@D@2@@std@@UTileConfig@Trellis@@@std@@PEAX@std@@_N@std@@QEAA@$$QEAPEAU?$_Tree_node@U?$pair@$$CBV?$basic_string@DU?$char_traits@D@std@@V?$allocator@D@2@@std@@UTileConfig@Trellis@@@std@@PEAX@1@$$QEA_N@Z
	??$?0PEAU?$_Tree_node@U?$pair@$$CBV?$basic_string@DU?$char_traits@D@std@@V?$allocator@D@2@@std@@UWordSettingBits@Trellis@@@std@@PEAX@std@@_N$0A@@?$pair@PEAU?$_Tree_node@U?$pair@$$CBV?$basic_string@DU?$char_traits@D@std@@V?$allocator@D@2@@std@@UWordSettingBits@Trellis@@@std@@PEAX@std@@_N@std@@QEAA@$$QEAPEAU?$_Tree_node@U?$pair@$$CBV?$basic_string@DU?$char_traits@D@std@@V?$allocator@D@2@@std@@UWordSettingBits@Trellis@@@std@@PEAX@1@$$QEA_N@Z
	??$?0PEAU?$_Tree_node@U?$pair@$$CBV?$basic_string@DU?$char_traits@D@std@@V?$allocator@D@2@@std@@V12@@std@@PEAX@std@@_N$0A@@?$pair@PEAU?$_Tree_node@U?$pair@$$CBV?$basic_string@DU?$char_traits@D@std@@V?$allocator@D@2@@std@@V12@@std@@PEAX@std@@_N@std@@QEAA@$$QEAPEAU?$_Tree_node@U?$pair@$$CBV?$basic_string@DU?$char_traits@D@std@@V?$allocator@D@2@@std@@V12@@std@@PEAX@1@$$QEA_N@Z
	??$?0PEAU?$_Tree_node@U?$pair@$$CBV?$basic_string@DU?$char_traits@D@std@@V?$allocator@D@2@@std@@V?$basic_ptree@V?$basic_string@DU?$char_traits@D@std@@V?$allocator@D@2@@std@@V12@U?$less@V?$basic_string@DU?$char_traits@D@std@@V?$allocator@D@2@@std@@@2@@property_tree@boost@@@std@@PEAX@std@@_N$0A@@?$pair@PEAU?$_Tree_node@U?$pair@$$CBV?$basic_string@DU?$char_traits@D@std@@V?$allocator@D@2@@std@@V?$basic_ptree@V?$basic_string@DU?$char_traits@D@std@@V?$allocator@D@2@@std@@V12@U?$less@V?$basic_string@DU?$char_traits@D@std@@V?$allocator@D@2@@std@@@2@@property_tree@boost@@@std@@PEAX@std@@_N@std@@QEAA@$$QEAPEAU?$_Tree_node@U?$pair@$$CBV?$basic_string@DU?$char_traits@D@std@@V?$allocator@D@2@@std@@V?$basic_ptree@V?$basic_string@DU?$char_traits@D@std@@V?$allocator@D@2@@std@@V12@U?$less@V?$basic_string@DU?$char_traits@D@std@@V?$allocator@D@2@@std@@@2@@property_tree@boost@@@std@@PEAX@1@$$QEA_N@Z
	??$?0PEAU?$_Tree_node@U?$pair@$$CBV?$basic_string@DU?$char_traits@D@std@@V?$allocator@D@2@@std@@V?$set@UFixedConnection@Trellis@@U?$less@UFixedConnection@Trellis@@@std@@V?$allocator@UFixedConnection@Trellis@@@4@@2@@std@@PEAX@std@@_N$0A@@?$pair@PEAU?$_Tree_node@U?$pair@$$CBV?$basic_string@DU?$char_traits@D@std@@V?$allocator@D@2@@std@@V?$set@UFixedConnection@Trellis@@U?$less@UFixedConnection@Trellis@@@std@@V?$allocator@UFixedConnection@Trellis@@@4@@2@@std@@PEAX@std@@_N@std@@QEAA@$$QEAPEAU?$_Tree_node@U?$pair@$$CBV?$basic_string@DU?$char_traits@D@std@@V?$allocator@D@2@@std@@V?$set@UFixedConnection@Trellis@@U?$less@UFixedConnection@Trellis@@@std@@V?$allocator@UFixedConnection@Trellis@@@4@@2@@std@@PEAX@1@$$QEA_N@Z
	??$?0PEAU?$_Tree_node@U?$pair@$$CBV?$basic_string@DU?$char_traits@D@std@@V?$allocator@D@2@@std@@V?$shared_ptr@VTile@Trellis@@@2@@std@@PEAX@std@@_N$0A@@?$pair@PEAU?$_Tree_node@U?$pair@$$CBV?$basic_string@DU?$char_traits@D@std@@V?$allocator@D@2@@std@@V?$shared_ptr@VTile@Trellis@@@2@@std@@PEAX@std@@_N@std@@QEAA@$$QEAPEAU?$_Tree_node@U?$pair@$$CBV?$basic_string@DU?$char_traits@D@std@@V?$allocator@D@2@@std@@V?$shared_ptr@VTile@Trellis@@@2@@std@@PEAX@1@$$QEA_N@Z
	??$?0PEAU?$_Tree_node@U?$pair@$$CBV?$basic_string@DU?$char_traits@D@std@@V?$allocator@D@2@@std@@V?$vector@UChangedBit@Trellis@@V?$allocator@UChangedBit@Trellis@@@std@@@2@@std@@PEAX@std@@_N$0A@@?$pair@PEAU?$_Tree_node@U?$pair@$$CBV?$basic_string@DU?$char_traits@D@std@@V?$allocator@D@2@@std@@V?$vector@UChangedBit@Trellis@@V?$allocator@UChangedBit@Trellis@@@std@@@2@@std@@PEAX@std@@_N@std@@QEAA@$$QEAPEAU?$_Tree_node@U?$pair@$$CBV?$basic_string@DU?$char_traits@D@std@@V?$allocator@D@2@@std@@V?$vector@UChangedBit@Trellis@@V?$allocator@UChangedBit@Trellis@@@std@@@2@@std@@PEAX@1@$$QEA_N@Z
	??$?0PEAU?$_Tree_node@UConfigBit@Trellis@@PEAX@std@@_N$0A@@?$pair@PEAU?$_Tree_node@UConfigBit@Trellis@@PEAX@std@@_N@std@@QEAA@$$QEAPEAU?$_Tree_node@UConfigBit@Trellis@@PEAX@1@$$QEA_N@Z
	??$?0PEAU?$_Tree_node@UFixedConnection@Trellis@@PEAX@std@@_N$0A@@?$pair@PEAU?$_Tree_node@UFixedConnection@Trellis@@PEAX@std@@_N@std@@QEAA@$$QEAPEAU?$_Tree_node@UFixedConnection@Trellis@@PEAX@1@$$QEA_N@Z
	??$?0PEAU?$_Tree_node@URelId@DDChipDb@Trellis@@PEAX@std@@_N$0A@@?$pair@PEAU?$_Tree_node@URelId@DDChipDb@Trellis@@PEAX@std@@_N@std@@QEAA@$$QEAPEAU?$_Tree_node@URelId@DDChipDb@Trellis@@PEAX@1@$$QEA_N@Z
	??$?0PEAU?$_Tree_node@V?$basic_string@DU?$char_traits@D@std@@V?$allocator@D@2@@std@@PEAX@std@@_N$0A@@?$pair@PEAU?$_Tree_node@V?$basic_string@DU?$char_traits@D@std@@V?$allocator@D@2@@std@@PEAX@std@@_N@std@@QEAA@$$QEAPEAU?$_Tree_node@V?$basic_string@DU?$char_traits@D@std@@V?$allocator@D@2@@std@@PEAX@1@$$QEA_N@Z
	??$?0PEAU?$ordered_index_node@Unull_augment_policy@detail@multi_index@boost@@U?$index_node_base@U?$pair@$$CBV?$basic_string@DU?$char_traits@D@std@@V?$allocator@D@2@@std@@V?$basic_ptree@V?$basic_string@DU?$char_traits@D@std@@V?$allocator@D@2@@std@@V12@U?$less@V?$basic_string@DU?$char_traits@D@std@@V?$allocator@D@2@@std@@@2@@property_tree@boost@@@std@@V?$allocator@U?$pair@$$CBV?$basic_string@DU?$char_traits@D@std@@V?$allocator@D@2@@std@@V?$basic_ptree@V?$basic_string@DU?$char_traits@D@std@@V?$allocator@D@2@@std@@V12@U?$less@V?$basic_string@DU?$char_traits@D@std@@V?$allocator@D@2@@std@@@2@@property_tree@boost@@@std@@@2@@234@@detail@multi_index@boost@@PEAU0123@$0A@@?$pair@PEAU?$ordered_index_node@Unull_augment_policy@detail@multi_index@boost@@U?$index_node_base@U?$pair@$$CBV?$basic_string@DU?$char_traits@D@std@@V?$allocator@D@2@@std@@V?$basic_ptree@V?$basic_string@DU?$char_traits@D@std@@V?$allocator@D@2@@std@@V12@U?$less@V?$basic_string@DU?$char_traits@D@std@@V?$allocator@D@2@@std@@@2@@property_tree@boost@@@std@@V?$allocator@U?$pair@$$CBV?$basic_string@DU?$char_traits@D@std@@V?$allocator@D@2@@std@@V?$basic_ptree@V?$basic_string@DU?$char_traits@D@std@@V?$allocator@D@2@@std@@V12@U?$less@V?$basic_string@DU?$char_traits@D@std@@V?$allocator@D@2@@std@@@2@@property_tree@boost@@@std@@@2@@234@@detail@multi_index@boost@@PEAU1234@@std@@QEAA@$$QEAPEAU?$ordered_index_node@Unull_augment_policy@detail@multi_index@boost@@U?$index_node_base@U?$pair@$$CBV?$basic_string@DU?$char_traits@D@std@@V?$allocator@D@2@@std@@V?$basic_ptree@V?$basic_string@DU?$char_traits@D@std@@V?$allocator@D@2@@std@@V12@U?$less@V?$basic_string@DU?$char_traits@D@std@@V?$allocator@D@2@@std@@@2@@property_tree@boost@@@std@@V?$allocator@U?$pair@$$CBV?$basic_string@DU?$char_traits@D@std@@V?$allocator@D@2@@std@@V?$basic_ptree@V?$basic_string@DU?$char_traits@D@std@@V?$allocator@D@2@@std@@V12@U?$less@V?$basic_string@DU?$char_traits@D@std@@V?$allocator@D@2@@std@@@2@@property_tree@boost@@@std@@@2@@234@@detail@multi_index@boost@@0@Z
	??$?0PEBD$0A@@?$basic_string@DU?$char_traits@D@std@@V?$allocator@D@2@@std@@QEAA@PEBD0AEBV?$allocator@D@1@@Z
	??$?0U?$_List_node@U?$pair@$$CBV?$basic_string@DU?$char_traits@D@std@@V?$allocator@D@2@@std@@H@std@@PEAX@std@@@?$allocator@U?$pair@$$CBV?$basic_string@DU?$char_traits@D@std@@V?$allocator@D@2@@std@@H@std@@@std@@QEAA@AEBV?$allocator@U?$_List_node@U?$pair@$$CBV?$basic_string@DU?$char_traits@D@std@@V?$allocator@D@2@@std@@H@std@@PEAX@std@@@1@@Z
	??$?0U?$_List_node@U?$pair@$$CBV?$basic_string@DU?$char_traits@D@std@@V?$allocator@D@2@@std@@H@std@@PEAX@std@@@?$allocator@V?$_List_unchecked_iterator@V?$_List_val@U?$_List_simple_types@U?$pair@$$CBV?$basic_string@DU?$char_traits@D@std@@V?$allocator@D@2@@std@@H@std@@@std@@@std@@@std@@@std@@QEAA@AEBV?$allocator@U?$_List_node@U?$pair@$$CBV?$basic_string@DU?$char_traits@D@std@@V?$allocator@D@2@@std@@H@std@@PEAX@std@@@1@@Z
	??$?0U?$default_delete@$$BY0A@E@std@@$0A@@?$unique_ptr@$$BY0A@EU?$default_delete@$$BY0A@E@std@@@std@@QEAA@$$QEAV01@@Z
	??$?0U?$default_delete@$$BY0A@E@std@@PEAE@?$_Compressed_pair@U?$default_delete@$$BY0A@E@std@@PEAE$00@std@@QEAA@U_One_then_variadic_args_t@1@$$QEAU?$default_delete@$$BY0A@E@1@$$QEAPEAE@Z
	??$?0U?$default_delete@V_Facet_base@std@@@std@@$0A@@?$unique_ptr@V_Facet_base@std@@U?$default_delete@V_Facet_base@std@@@2@@std@@QEAA@PEAV_Facet_base@1@@Z
	??$?0U?$default_delete@V_Node_assert@std@@@std@@$0A@@?$unique_ptr@V_Node_assert@std@@U?$default_delete@V_Node_assert@std@@@2@@std@@QEAA@$$QEAV01@@Z
	??$?0U?$default_delete@V_Node_assert@std@@@std@@$0A@@?$unique_ptr@V_Node_assert@std@@U?$default_delete@V_Node_assert@std@@@2@@std@@QEAA@PEAV_Node_assert@1@@Z
	??$?0U?$default_delete@V_Node_assert@std@@@std@@PEAV_Node_assert@1@@?$_Compressed_pair@U?$default_delete@V_Node_assert@std@@@std@@PEAV_Node_assert@2@$00@std@@QEAA@U_One_then_variadic_args_t@1@$$QEAU?$default_delete@V_Node_assert@std@@@1@$$QEAPEAV_Node_assert@1@@Z
	??$?0U?$less@G@std@@U_One_then_variadic_args_t@1@V?$allocator@U?$_Tree_node@U?$pair@$$CBGV?$vector@GV?$allocator@G@std@@@std@@@std@@PEAX@std@@@1@@?$_Compressed_pair@U?$less@G@std@@V?$_Compressed_pair@V?$allocator@U?$_Tree_node@U?$pair@$$CBGV?$vector@GV?$allocator@G@std@@@std@@@std@@PEAX@std@@@std@@V?$_Tree_val@U?$_Tree_simple_types@U?$pair@$$CBGV?$vector@GV?$allocator@G@std@@@std@@@std@@@std@@@2@$00@2@$00@std@@QEAA@U_One_then_variadic_args_t@1@$$QEAU?$less@G@1@$$QEAU21@$$QEAV?$allocator@U?$_Tree_node@U?$pair@$$CBGV?$vector@GV?$allocator@G@std@@@std@@@std@@PEAX@std@@@1@@Z
	??$?0U?$less@UConfigBit@Trellis@@@std@@U_One_then_variadic_args_t@1@V?$allocator@U?$_Tree_node@UConfigBit@Trellis@@PEAX@std@@@1@@?$_Compressed_pair@U?$less@UConfigBit@Trellis@@@std@@V?$_Compressed_pair@V?$allocator@U?$_Tree_node@UConfigBit@Trellis@@PEAX@std@@@std@@V?$_Tree_val@U?$_Tree_simple_types@UConfigBit@Trellis@@@std@@@2@$00@2@$00@std@@QEAA@U_One_then_variadic_args_t@1@$$QEAU?$less@UConfigBit@Trellis@@@1@$$QEAU21@$$QEAV?$allocator@U?$_Tree_node@UConfigBit@Trellis@@PEAX@std@@@1@@Z
	??$?0U?$less@UFixedConnection@Trellis@@@std@@U_One_then_variadic_args_t@1@V?$allocator@U?$_Tree_node@UFixedConnection@Trellis@@PEAX@std@@@1@@?$_Compressed_pair@U?$less@UFixedConnection@Trellis@@@std@@V?$_Compressed_pair@V?$allocator@U?$_Tree_node@UFixedConnection@Trellis@@PEAX@std@@@std@@V?$_Tree_val@U?$_Tree_simple_types@UFixedConnection@Trellis@@@std@@@2@$00@2@$00@std@@QEAA@U_One_then_variadic_args_t@1@$$QEAU?$less@UFixedConnection@Trellis@@@1@$$QEAU21@$$QEAV?$allocator@U?$_Tree_node@UFixedConnection@Trellis@@PEAX@std@@@1@@Z
	??$?0U?$less@URelId@DDChipDb@Trellis@@@std@@U_One_then_variadic_args_t@1@V?$allocator@U?$_Tree_node@URelId@DDChipDb@Trellis@@PEAX@std@@@1@@?$_Compressed_pair@U?$less@URelId@DDChipDb@Trellis@@@std@@V?$_Compressed_pair@V?$allocator@U?$_Tree_node@URelId@DDChipDb@Trellis@@PEAX@std@@@std@@V?$_Tree_val@U?$_Tree_simple_types@URelId@DDChipDb@Trellis@@@std@@@2@$00@2@$00@std@@QEAA@U_One_then_variadic_args_t@1@$$QEAU?$less@URelId@DDChipDb@Trellis@@@1@$$QEAU21@$$QEAV?$allocator@U?$_Tree_node@URelId@DDChipDb@Trellis@@PEAX@std@@@1@@Z
	??$?0U?$less@V?$basic_string@DU?$char_traits@D@std@@V?$allocator@D@2@@std@@@std@@U_One_then_variadic_args_t@1@V?$allocator@U?$_Tree_node@U?$pair@$$CBV?$basic_string@DU?$char_traits@D@std@@V?$allocator@D@2@@std@@UArcData@Trellis@@@std@@PEAX@std@@@1@@?$_Compressed_pair@U?$less@V?$basic_string@DU?$char_traits@D@std@@V?$allocator@D@2@@std@@@std@@V?$_Compressed_pair@V?$allocator@U?$_Tree_node@U?$pair@$$CBV?$basic_string@DU?$char_traits@D@std@@V?$allocator@D@2@@std@@UArcData@Trellis@@@std@@PEAX@std@@@std@@V?$_Tree_val@U?$_Tree_simple_types@U?$pair@$$CBV?$basic_string@DU?$char_traits@D@std@@V?$allocator@D@2@@std@@UArcData@Trellis@@@std@@@std@@@2@$00@2@$00@std@@QEAA@U_One_then_variadic_args_t@1@$$QEAU?$less@V?$basic_string@DU?$char_traits@D@std@@V?$allocator@D@2@@std@@@1@$$QEAU21@$$QEAV?$allocator@U?$_Tree_node@U?$pair@$$CBV?$basic_string@DU?$char_traits@D@std@@V?$allocator@D@2@@std@@UArcData@Trellis@@@std@@PEAX@std@@@1@@Z
	??$?0U?$less@V?$basic_string@DU?$char_traits@D@std@@V?$allocator@D@2@@std@@@std@@U_One_then_variadic_args_t@1@V?$allocator@U?$_Tree_node@U?$pair@$$CBV?$basic_string@DU?$char_traits@D@std@@V?$allocator@D@2@@std@@UBitGroup@Trellis@@@std@@PEAX@std@@@1@@?$_Compressed_pair@U?$less@V?$basic_string@DU?$char_traits@D@std@@V?$allocator@D@2@@std@@@std@@V?$_Compressed_pair@V?$allocator@U?$_Tree_node@U?$pair@$$CBV?$basic_string@DU?$char_traits@D@std@@V?$allocator@D@2@@std@@UBitGroup@Trellis@@@std@@PEAX@std@@@std@@V?$_Tree_val@U?$_Tree_simple_types@U?$pair@$$CBV?$basic_string@DU?$char_traits@D@std@@V?$allocator@D@2@@std@@UBitGroup@Trellis@@@std@@@std@@@2@$00@2@$00@std@@QEAA@U_One_then_variadic_args_t@1@$$QEAU?$less@V?$basic_string@DU?$char_traits@D@std@@V?$allocator@D@2@@std@@@1@$$QEAU21@$$QEAV?$allocator@U?$_Tree_node@U?$pair@$$CBV?$basic_string@DU?$char_traits@D@std@@V?$allocator@D@2@@std@@UBitGroup@Trellis@@@std@@PEAX@std@@@1@@Z
	??$?0U?$less@V?$basic_string@DU?$char_traits@D@std@@V?$allocator@D@2@@std@@@std@@U_One_then_variadic_args_t@1@V?$allocator@U?$_Tree_node@U?$pair@$$CBV?$basic_string@DU?$char_traits@D@std@@V?$allocator@D@2@@std@@UTileConfig@Trellis@@@std@@PEAX@std@@@1@@?$_Compressed_pair@U?$less@V?$basic_string@DU?$char_traits@D@std@@V?$allocator@D@2@@std@@@std@@V?$_Compressed_pair@V?$allocator@U?$_Tree_node@U?$pair@$$CBV?$basic_string@DU?$char_traits@D@std@@V?$allocator@D@2@@std@@UTileConfig@Trellis@@@std@@PEAX@std@@@std@@V?$_Tree_val@U?$_Tree_simple_types@U?$pair@$$CBV?$basic_string@DU?$char_traits@D@std@@V?$allocator@D@2@@std@@UTileConfig@Trellis@@@std@@@std@@@2@$00@2@$00@std@@QEAA@U_One_then_variadic_args_t@1@$$QEAU?$less@V?$basic_string@DU?$char_traits@D@std@@V?$allocator@D@2@@std@@@1@$$QEAU21@$$QEAV?$allocator@U?$_Tree_node@U?$pair@$$CBV?$basic_string@DU?$char_traits@D@std@@V?$allocator@D@2@@std@@UTileConfig@Trellis@@@std@@PEAX@std@@@1@@Z
	??$?0U?$less@V?$basic_string@DU?$char_traits@D@std@@V?$allocator@D@2@@std@@@std@@U_One_then_variadic_args_t@1@V?$allocator@U?$_Tree_node@U?$pair@$$CBV?$basic_string@DU?$char_traits@D@std@@V?$allocator@D@2@@std@@V12@@std@@PEAX@std@@@1@@?$_Compressed_pair@U?$less@V?$basic_string@DU?$char_traits@D@std@@V?$allocator@D@2@@std@@@std@@V?$_Compressed_pair@V?$allocator@U?$_Tree_node@U?$pair@$$CBV?$basic_string@DU?$char_traits@D@std@@V?$allocator@D@2@@std@@V12@@std@@PEAX@std@@@std@@V?$_Tree_val@U?$_Tree_simple_types@U?$pair@$$CBV?$basic_string@DU?$char_traits@D@std@@V?$allocator@D@2@@std@@V12@@std@@@std@@@2@$00@2@$00@std@@QEAA@U_One_then_variadic_args_t@1@$$QEAU?$less@V?$basic_string@DU?$char_traits@D@std@@V?$allocator@D@2@@std@@@1@$$QEAU21@$$QEAV?$allocator@U?$_Tree_node@U?$pair@$$CBV?$basic_string@DU?$char_traits@D@std@@V?$allocator@D@2@@std@@V12@@std@@PEAX@std@@@1@@Z
	??$?0U?$less@V?$basic_string@DU?$char_traits@D@std@@V?$allocator@D@2@@std@@@std@@U_One_then_variadic_args_t@1@V?$allocator@U?$_Tree_node@U?$pair@$$CBV?$basic_string@DU?$char_traits@D@std@@V?$allocator@D@2@@std@@V?$shared_ptr@VTile@Trellis@@@2@@std@@PEAX@std@@@1@@?$_Compressed_pair@U?$less@V?$basic_string@DU?$char_traits@D@std@@V?$allocator@D@2@@std@@@std@@V?$_Compressed_pair@V?$allocator@U?$_Tree_node@U?$pair@$$CBV?$basic_string@DU?$char_traits@D@std@@V?$allocator@D@2@@std@@V?$shared_ptr@VTile@Trellis@@@2@@std@@PEAX@std@@@std@@V?$_Tree_val@U?$_Tree_simple_types@U?$pair@$$CBV?$basic_string@DU?$char_traits@D@std@@V?$allocator@D@2@@std@@V?$shared_ptr@VTile@Trellis@@@2@@std@@@std@@@2@$00@2@$00@std@@QEAA@U_One_then_variadic_args_t@1@$$QEAU?$less@V?$basic_string@DU?$char_traits@D@std@@V?$allocator@D@2@@std@@@1@$$QEAU21@$$QEAV?$allocator@U?$_Tree_node@U?$pair@$$CBV?$basic_string@DU?$char_traits@D@std@@V?$allocator@D@2@@std@@V?$shared_ptr@VTile@Trellis@@@2@@std@@PEAX@std@@@1@@Z
	??$?0U?$less@V?$basic_string@DU?$char_traits@D@std@@V?$allocator@D@2@@std@@@std@@U_One_then_variadic_args_t@1@V?$allocator@U?$_Tree_node@U?$pair@$$CBV?$basic_string@DU?$char_traits@D@std@@V?$allocator@D@2@@std@@V?$vector@UChangedBit@Trellis@@V?$allocator@UChangedBit@Trellis@@@std@@@2@@std@@PEAX@std@@@1@@?$_Compressed_pair@U?$less@V?$basic_string@DU?$char_traits@D@std@@V?$allocator@D@2@@std@@@std@@V?$_Compressed_pair@V?$allocator@U?$_Tree_node@U?$pair@$$CBV?$basic_string@DU?$char_traits@D@std@@V?$allocator@D@2@@std@@V?$vector@UChangedBit@Trellis@@V?$allocator@UChangedBit@Trellis@@@std@@@2@@std@@PEAX@std@@@std@@V?$_Tree_val@U?$_Tree_simple_types@U?$pair@$$CBV?$basic_string@DU?$char_traits@D@std@@V?$allocator@D@2@@std@@V?$vector@UChangedBit@Trellis@@V?$allocator@UChangedBit@Trellis@@@std@@@2@@std@@@std@@@2@$00@2@$00@std@@QEAA@U_One_then_variadic_args_t@1@$$QEAU?$less@V?$basic_string@DU?$char_traits@D@std@@V?$allocator@D@2@@std@@@1@$$QEAU21@$$QEAV?$allocator@U?$_Tree_node@U?$pair@$$CBV?$basic_string@DU?$char_traits@D@std@@V?$allocator@D@2@@std@@V?$vector@UChangedBit@Trellis@@V?$allocator@UChangedBit@Trellis@@@std@@@2@@std@@PEAX@std@@@1@@Z
	??$?0U?$pair@$$CBUTileLocator@Trellis@@V?$shared_ptr@VTileBitDatabase@Trellis@@@std@@@std@@@?$allocator@U?$_List_node@U?$pair@$$CBUTileLocator@Trellis@@V?$shared_ptr@VTileBitDatabase@Trellis@@@std@@@std@@PEAX@std@@@std@@QEAA@AEBV?$allocator@U?$pair@$$CBUTileLocator@Trellis@@V?$shared_ptr@VTileBitDatabase@Trellis@@@std@@@std@@@1@@Z
	??$?0U?$pair@$$CBUTileLocator@Trellis@@V?$shared_ptr@VTileBitDatabase@Trellis@@@std@@@std@@@?$allocator@V?$_List_unchecked_iterator@V?$_List_val@U?$_List_simple_types@U?$pair@$$CBUTileLocator@Trellis@@V?$shared_ptr@VTileBitDatabase@Trellis@@@std@@@std@@@std@@@std@@@std@@@std@@QEAA@AEBV?$allocator@U?$pair@$$CBUTileLocator@Trellis@@V?$shared_ptr@VTileBitDatabase@Trellis@@@std@@@std@@@1@@Z
	??$?0U?$pair@$$CBV?$basic_string@DU?$char_traits@D@std@@V?$allocator@D@2@@std@@H@std@@@?$allocator@U?$_List_node@U?$pair@$$CBV?$basic_string@DU?$char_traits@D@std@@V?$allocator@D@2@@std@@H@std@@PEAX@std@@@std@@QEAA@AEBV?$allocator@U?$pair@$$CBV?$basic_string@DU?$char_traits@D@std@@V?$allocator@D@2@@std@@H@std@@@1@@Z
	??$?0U?$pair@$$CBV?$basic_string@DU?$char_traits@D@std@@V?$allocator@D@2@@std@@H@std@@@?$allocator@V?$_List_unchecked_iterator@V?$_List_val@U?$_List_simple_types@U?$pair@$$CBV?$basic_string@DU?$char_traits@D@std@@V?$allocator@D@2@@std@@H@std@@@std@@@std@@@std@@@std@@QEAA@AEBV?$allocator@U?$pair@$$CBV?$basic_string@DU?$char_traits@D@std@@V?$allocator@D@2@@std@@H@std@@@1@@Z
	??$?0U?$pair@$$CBV?$basic_string@DU?$char_traits@D@std@@V?$allocator@D@2@@std@@V?$basic_ptree@V?$basic_string@DU?$char_traits@D@std@@V?$allocator@D@2@@std@@V12@U?$less@V?$basic_string@DU?$char_traits@D@std@@V?$allocator@D@2@@std@@@2@@property_tree@boost@@@std@@@?$allocator@U?$copy_map_entry@U?$sequenced_index_node@U?$ordered_index_node@Unull_augment_policy@detail@multi_index@boost@@U?$index_node_base@U?$pair@$$CBV?$basic_string@DU?$char_traits@D@std@@V?$allocator@D@2@@std@@V?$basic_ptree@V?$basic_string@DU?$char_traits@D@std@@V?$allocator@D@2@@std@@V12@U?$less@V?$basic_string@DU?$char_traits@D@std@@V?$allocator@D@2@@std@@@2@@property_tree@boost@@@std@@V?$allocator@U?$pair@$$CBV?$basic_string@DU?$char_traits@D@std@@V?$allocator@D@2@@std@@V?$basic_ptree@V?$basic_string@DU?$char_traits@D@std@@V?$allocator@D@2@@std@@V12@U?$less@V?$basic_string@DU?$char_traits@D@std@@V?$allocator@D@2@@std@@@2@@property_tree@boost@@@std@@@2@@234@@detail@multi_index@boost@@@detail@multi_index@boost@@@detail@multi_index@boost@@@std@@QEAA@AEBV?$allocator@U?$pair@$$CBV?$basic_string@DU?$char_traits@D@std@@V?$allocator@D@2@@std@@V?$basic_ptree@V?$basic_string@DU?$char_traits@D@std@@V?$allocator@D@2@@std@@V12@U?$less@V?$basic_string@DU?$char_traits@D@std@@V?$allocator@D@2@@std@@@2@@property_tree@boost@@@std@@@1@@Z
	??$?0U?$pair@$$CBV?$basic_string@DU?$char_traits@D@std@@V?$allocator@D@2@@std@@V?$basic_ptree@V?$basic_string@DU?$char_traits@D@std@@V?$allocator@D@2@@std@@V12@U?$less@V?$basic_string@DU?$char_traits@D@std@@V?$allocator@D@2@@std@@@2@@property_tree@boost@@@std@@@?$allocator@U?$sequenced_index_node@U?$ordered_index_node@Unull_augment_policy@detail@multi_index@boost@@U?$index_node_base@U?$pair@$$CBV?$basic_string@DU?$char_traits@D@std@@V?$allocator@D@2@@std@@V?$basic_ptree@V?$basic_string@DU?$char_traits@D@std@@V?$allocator@D@2@@std@@V12@U?$less@V?$basic_string@DU?$char_traits@D@std@@V?$allocator@D@2@@std@@@2@@property_tree@boost@@@std@@V?$allocator@U?$pair@$$CBV?$basic_string@DU?$char_traits@D@std@@V?$allocator@D@2@@std@@V?$basic_ptree@V?$basic_string@DU?$char_traits@D@std@@V?$allocator@D@2@@std@@V12@U?$less@V?$basic_string@DU?$char_traits@D@std@@V?$allocator@D@2@@std@@@2@@property_tree@boost@@@std@@@2@@234@@detail@multi_index@boost@@@detail@multi_index@boost@@@std@@QEAA@AEBV?$allocator@U?$pair@$$CBV?$basic_string@DU?$char_traits@D@std@@V?$allocator@D@2@@std@@V?$basic_ptree@V?$basic_string@DU?$char_traits@D@std@@V?$allocator@D@2@@std@@V12@U?$less@V?$basic_string@DU?$char_traits@D@std@@V?$allocator@D@2@@std@@@2@@property_tree@boost@@@std@@@1@@Z
	??$?0U?$pair@HH@std@@$$V$0A@@?$tuple@$$QEAU?$pair@HH@std@@@std@@QEAA@$$QEAU?$pair@HH@1@@Z
	??$?0U?$pair@HH@std@@@?$_Tuple_val@$$QEAU?$pair@HH@std@@@std@@QEAA@$$QEAU?$pair@HH@1@@Z
	??$?0U?$pair@HH@std@@H$0A@@?$pair@$$CBU?$pair@HH@std@@H@std@@QEAA@$$QEAU?$pair@HH@1@$$QEAH@Z
	??$?0U?$pair@HH@std@@U01@$0A@@?$pair@$$CBU?$pair@HH@std@@U12@@std@@QEAA@$$QEAU?$pair@HH@1@0@Z
	??$?0U?$sequenced_index_node@U?$ordered_index_node@Unull_augment_policy@detail@multi_index@boost@@U?$index_node_base@U?$pair@$$CBV?$basic_string@DU?$char_traits@D@std@@V?$allocator@D@2@@std@@V?$basic_ptree@V?$basic_string@DU?$char_traits@D@std@@V?$allocator@D@2@@std@@V12@U?$less@V?$basic_string@DU?$char_traits@D@std@@V?$allocator@D@2@@std@@@2@@property_tree@boost@@@std@@V?$allocator@U?$pair@$$CBV?$basic_string@DU?$char_traits@D@std@@V?$allocator@D@2@@std@@V?$basic_ptree@V?$basic_string@DU?$char_traits@D@std@@V?$allocator@D@2@@std@@V12@U?$less@V?$basic_string@DU?$char_traits@D@std@@V?$allocator@D@2@@std@@@2@@property_tree@boost@@@std@@@2@@234@@detail@multi_index@boost@@@detail@multi_index@boost@@@?$allocator@U?$pair@$$CBV?$basic_string@DU?$char_traits@D@std@@V?$allocator@D@2@@std@@V?$basic_ptree@V?$basic_string@DU?$char_traits@D@std@@V?$allocator@D@2@@std@@V12@U?$less@V?$basic_string@DU?$char_traits@D@std@@V?$allocator@D@2@@std@@@2@@property_tree@boost@@@std@@@std@@QEAA@AEBV?$allocator@U?$sequenced_index_node@U?$ordered_index_node@Unull_augment_policy@detail@multi_index@boost@@U?$index_node_base@U?$pair@$$CBV?$basic_string@DU?$char_traits@D@std@@V?$allocator@D@2@@std@@V?$basic_ptree@V?$basic_string@DU?$char_traits@D@std@@V?$allocator@D@2@@std@@V12@U?$less@V?$basic_string@DU?$char_traits@D@std@@V?$allocator@D@2@@std@@@2@@property_tree@boost@@@std@@V?$allocator@U?$pair@$$CBV?$basic_string@DU?$char_traits@D@std@@V?$allocator@D@2@@std@@V?$basic_ptree@V?$basic_string@DU?$char_traits@D@std@@V?$allocator@D@2@@std@@V12@U?$less@V?$basic_string@DU?$char_traits@D@std@@V?$allocator@D@2@@std@@@2@@property_tree@boost@@@std@@@2@@234@@detail@multi_index@boost@@@detail@multi_index@boost@@@1@@Z
	??$?0UConfigBit@Trellis@@@?$_List_node_emplace_op2@V?$allocator@U?$_List_node@UConfigBit@Trellis@@PEAX@std@@@std@@@std@@QEAA@AEAV?$allocator@U?$_List_node@UConfigBit@Trellis@@PEAX@std@@@1@$$QEAUConfigBit@Trellis@@@Z
	??$?0UConfigBit@Trellis@@@?$_Tree_temp_node@V?$allocator@U?$_Tree_node@UConfigBit@Trellis@@PEAX@std@@@std@@@std@@QEAA@AEAV?$allocator@U?$_Tree_node@UConfigBit@Trellis@@PEAX@std@@@1@PEAU?$_Tree_node@UConfigBit@Trellis@@PEAX@1@$$QEAUConfigBit@Trellis@@@Z
	??$?0UConfigBit@Trellis@@@?$allocator@U?$_List_node@UConfigBit@Trellis@@PEAX@std@@@std@@QEAA@AEBV?$allocator@UConfigBit@Trellis@@@1@@Z
	??$?0UConfigBit@Trellis@@@?$allocator@V?$_List_unchecked_const_iterator@V?$_List_val@U?$_List_simple_types@UConfigBit@Trellis@@@std@@@std@@U_Iterator_base0@2@@std@@@std@@QEAA@AEBV?$allocator@UConfigBit@Trellis@@@1@@Z
	??$?0URelId@DDChipDb@Trellis@@@?$_Tree_temp_node@V?$allocator@U?$_Tree_node@URelId@DDChipDb@Trellis@@PEAX@std@@@std@@@std@@QEAA@AEAV?$allocator@U?$_Tree_node@URelId@DDChipDb@Trellis@@PEAX@std@@@1@PEAU?$_Tree_node@URelId@DDChipDb@Trellis@@PEAX@1@$$QEAURelId@DDChipDb@Trellis@@@Z
	??$?0URoutingId@Trellis@@W4PortDirection@1@$0A@@?$pair@URoutingId@Trellis@@W4PortDirection@2@@std@@QEAA@XZ
	??$?0U_Exact_args_t@std@@$0A@@?$tuple@$$V@std@@QEAA@U_Exact_args_t@1@@Z
	??$?0U_Exact_args_t@std@@AEAD$$V$0A@@?$tuple@AEAD@std@@QEAA@U_Exact_args_t@1@AEAD@Z
	??$?0U_Exact_args_t@std@@AEAE$$V$0A@@?$tuple@AEAE@std@@QEAA@U_Exact_args_t@1@AEAE@Z
	??$?0U_Exact_args_t@std@@AEAH$$V$0A@@?$tuple@AEAH@std@@QEAA@U_Exact_args_t@1@AEAH@Z
	??$?0U_Exact_args_t@std@@AEAHAEAH$0A@@?$tuple@AEAHAEAH@std@@QEAA@U_Exact_args_t@1@AEAH1@Z
	??$?0U_Exact_args_t@std@@AEAU?$arg@$00@boost@@$$V$0A@@?$tuple@U?$arg@$00@boost@@@std@@QEAA@U_Exact_args_t@1@AEAU?$arg@$00@boost@@@Z
	??$?0U_Exact_args_t@std@@AEAV?$reference_wrapper@V?$standard_callbacks@V?$basic_ptree@V?$basic_string@DU?$char_traits@D@std@@V?$allocator@D@2@@std@@V12@U?$less@V?$basic_string@DU?$char_traits@D@std@@V?$allocator@D@2@@std@@@2@@property_tree@boost@@@detail@json_parser@property_tree@boost@@@boost@@AEAU?$arg@$00@3@$0A@@?$tuple@V?$reference_wrapper@V?$standard_callbacks@V?$basic_ptree@V?$basic_string@DU?$char_traits@D@std@@V?$allocator@D@2@@std@@V12@U?$less@V?$basic_string@DU?$char_traits@D@std@@V?$allocator@D@2@@std@@@2@@property_tree@boost@@@detail@json_parser@property_tree@boost@@@boost@@U?$arg@$00@2@@std@@QEAA@U_Exact_args_t@1@AEAV?$reference_wrapper@V?$standard_callbacks@V?$basic_ptree@V?$basic_string@DU?$char_traits@D@std@@V?$allocator@D@2@@std@@V12@U?$less@V?$basic_string@DU?$char_traits@D@std@@V?$allocator@D@2@@std@@@2@@property_tree@boost@@@detail@json_parser@property_tree@boost@@@boost@@AEAU?$arg@$00@4@@Z
	??$?0U_Exact_args_t@std@@AEAV?$value@PEAV?$parser@V?$standard_callbacks@V?$basic_ptree@V?$basic_string@DU?$char_traits@D@std@@V?$allocator@D@2@@std@@V12@U?$less@V?$basic_string@DU?$char_traits@D@std@@V?$allocator@D@2@@std@@@2@@property_tree@boost@@@detail@json_parser@property_tree@boost@@U?$encoding@D@2345@V?$istreambuf_iterator@DU?$char_traits@D@std@@@std@@V78@@detail@json_parser@property_tree@boost@@@_bi@boost@@AEAV?$value@PEBD@34@$0A@@?$tuple@V?$value@PEAV?$parser@V?$standard_callbacks@V?$basic_ptree@V?$basic_string@DU?$char_traits@D@std@@V?$allocator@D@2@@std@@V12@U?$less@V?$basic_string@DU?$char_traits@D@std@@V?$allocator@D@2@@std@@@2@@property_tree@boost@@@detail@json_parser@property_tree@boost@@U?$encoding@D@2345@V?$istreambuf_iterator@DU?$char_traits@D@std@@@std@@V78@@detail@json_parser@property_tree@boost@@@_bi@boost@@V?$value@PEBD@23@@std@@QEAA@U_Exact_args_t@1@AEAV?$value@PEAV?$parser@V?$standard_callbacks@V?$basic_ptree@V?$basic_string@DU?$char_traits@D@std@@V?$allocator@D@2@@std@@V12@U?$less@V?$basic_string@DU?$char_traits@D@std@@V?$allocator@D@2@@std@@@2@@property_tree@boost@@@detail@json_parser@property_tree@boost@@U?$encoding@D@2345@V?$istreambuf_iterator@DU?$char_traits@D@std@@@std@@V78@@detail@json_parser@property_tree@boost@@@_bi@boost@@AEAV?$value@PEBD@45@@Z
	??$?0U_Exact_args_t@std@@AEAV?$value@PEBD@_bi@boost@@$$V$0A@@?$tuple@V?$value@PEBD@_bi@boost@@@std@@QEAA@U_Exact_args_t@1@AEAV?$value@PEBD@_bi@boost@@@Z
	??$?0U_Exact_args_t@std@@AEBG$$V$0A@@?$tuple@AEBG@std@@QEAA@U_Exact_args_t@1@AEBG@Z
	??$?0U_Exact_args_t@std@@AEBH$$V$0A@@?$tuple@AEBH@std@@QEAA@U_Exact_args_t@1@AEBH@Z
	??$?0U_Exact_args_t@std@@AEBU?$pair@HH@1@$$V$0A@@?$tuple@AEBU?$pair@HH@std@@@std@@QEAA@U_Exact_args_t@1@AEBU?$pair@HH@1@@Z
	??$?0U_Exact_args_t@std@@AEBU?$pair@_K_K@1@$$V$0A@@?$tuple@AEBU?$pair@_K_K@std@@@std@@QEAA@U_Exact_args_t@1@AEBU?$pair@_K_K@1@@Z
	??$?0U_Exact_args_t@std@@AEBULocation@Trellis@@$$V$0A@@?$tuple@AEBULocation@Trellis@@@std@@QEAA@U_Exact_args_t@1@AEBULocation@Trellis@@@Z
	??$?0U_Exact_args_t@std@@AEBUTileLocator@Trellis@@$$V$0A@@?$tuple@AEBUTileLocator@Trellis@@@std@@QEAA@U_Exact_args_t@1@AEBUTileLocator@Trellis@@@Z
	??$?0U_Exact_args_t@std@@AEBV?$basic_string@DU?$char_traits@D@std@@V?$allocator@D@2@@1@$$V$0A@@?$tuple@AEBV?$basic_string@DU?$char_traits@D@std@@V?$allocator@D@2@@std@@@std@@QEAA@U_Exact_args_t@1@AEBV?$basic_string@DU?$char_traits@D@std@@V?$allocator@D@2@@1@@Z
	??$?0U_Exact_args_t@std@@U?$pair@HH@1@$$V$0A@@?$tuple@$$QEAU?$pair@HH@std@@@std@@QEAA@U_Exact_args_t@1@$$QEAU?$pair@HH@1@@Z
	??$?0U_Zero_then_variadic_args_t@std@@M@?$_Compressed_pair@U?$hash@UConfigBit@Trellis@@@std@@V?$_Compressed_pair@U?$equal_to@UConfigBit@Trellis@@@std@@M$00@2@$00@std@@QEAA@U_Zero_then_variadic_args_t@1@$$QEAU21@$$QEAM@Z
	??$?0U_Zero_then_variadic_args_t@std@@M@?$_Compressed_pair@U?$hash@UTileLocator@Trellis@@@std@@V?$_Compressed_pair@U?$equal_to@UTileLocator@Trellis@@@std@@M$00@2@$00@std@@QEAA@U_Zero_then_variadic_args_t@1@$$QEAU21@$$QEAM@Z
	??$?0U_Zero_then_variadic_args_t@std@@M@?$_Compressed_pair@U?$hash@V?$basic_string@DU?$char_traits@D@std@@V?$allocator@D@2@@std@@@std@@V?$_Compressed_pair@U?$equal_to@V?$basic_string@DU?$char_traits@D@std@@V?$allocator@D@2@@std@@@std@@M$00@2@$00@std@@QEAA@U_Zero_then_variadic_args_t@1@$$QEAU21@$$QEAM@Z
	??$?0V?$_List_iterator@V?$_List_val@U?$_List_simple_types@U?$pair@$$CBV?$basic_string@DU?$char_traits@D@std@@V?$allocator@D@2@@std@@H@std@@@std@@@std@@@std@@_N$0A@@?$pair@V?$_List_iterator@V?$_List_val@U?$_List_simple_types@U?$pair@$$CBV?$basic_string@DU?$char_traits@D@std@@V?$allocator@D@2@@std@@H@std@@@std@@@std@@@std@@_N@std@@QEAA@$$QEAV?$_List_iterator@V?$_List_val@U?$_List_simple_types@U?$pair@$$CBV?$basic_string@DU?$char_traits@D@std@@V?$allocator@D@2@@std@@H@std@@@std@@@std@@@1@$$QEA_N@Z
	??$?0V?$_List_iterator@V?$_List_val@U?$_List_simple_types@UConfigBit@Trellis@@@std@@@std@@@std@@_N$0A@@?$pair@V?$_List_const_iterator@V?$_List_val@U?$_List_simple_types@UConfigBit@Trellis@@@std@@@std@@@std@@_N@std@@QEAA@$$QEAV?$_List_iterator@V?$_List_val@U?$_List_simple_types@UConfigBit@Trellis@@@std@@@std@@@1@$$QEA_N@Z
	??$?0V?$_String_const_iterator@V?$_String_val@U?$_Simple_types@D@std@@@std@@@std@@$0A@@?$basic_string@DU?$char_traits@D@std@@V?$allocator@D@2@@std@@QEAA@V?$_String_const_iterator@V?$_String_val@U?$_Simple_types@D@std@@@std@@@1@0AEBV?$allocator@D@1@@Z
	??$?0V?$_String_const_iterator@V?$_String_val@U?$_Simple_types@D@std@@@std@@@std@@V01@$0A@@?$pair@V?$_String_const_iterator@V?$_String_val@U?$_Simple_types@D@std@@@std@@@std@@V12@@std@@QEAA@XZ
	??$?0V?$_String_iterator@V?$_String_val@U?$_Simple_types@D@std@@@std@@@std@@$0A@@?$basic_string@DU?$char_traits@D@std@@V?$allocator@D@2@@std@@QEAA@V?$_String_iterator@V?$_String_val@U?$_Simple_types@D@std@@@std@@@1@0AEBV?$allocator@D@1@@Z
	??$?0V?$_Tree_const_iterator@V?$_Tree_val@U?$_Tree_simple_types@UConfigBit@Trellis@@@std@@@std@@@std@@AEB_N$0A@@?$pair@V?$_Tree_const_iterator@V?$_Tree_val@U?$_Tree_simple_types@UConfigBit@Trellis@@@std@@@std@@@std@@_N@std@@QEAA@$$QEAV?$_Tree_const_iterator@V?$_Tree_val@U?$_Tree_simple_types@UConfigBit@Trellis@@@std@@@std@@@1@AEB_N@Z
	??$?0V?$_Tree_const_iterator@V?$_Tree_val@U?$_Tree_simple_types@UFixedConnection@Trellis@@@std@@@std@@@std@@AEB_N$0A@@?$pair@V?$_Tree_const_iterator@V?$_Tree_val@U?$_Tree_simple_types@UFixedConnection@Trellis@@@std@@@std@@@std@@_N@std@@QEAA@$$QEAV?$_Tree_const_iterator@V?$_Tree_val@U?$_Tree_simple_types@UFixedConnection@Trellis@@@std@@@std@@@1@AEB_N@Z
	??$?0V?$_Tree_const_iterator@V?$_Tree_val@U?$_Tree_simple_types@URelId@DDChipDb@Trellis@@@std@@@std@@@std@@AEB_N$0A@@?$pair@V?$_Tree_const_iterator@V?$_Tree_val@U?$_Tree_simple_types@URelId@DDChipDb@Trellis@@@std@@@std@@@std@@_N@std@@QEAA@$$QEAV?$_Tree_const_iterator@V?$_Tree_val@U?$_Tree_simple_types@URelId@DDChipDb@Trellis@@@std@@@std@@@1@AEB_N@Z
	??$?0V?$_Tree_const_iterator@V?$_Tree_val@U?$_Tree_simple_types@V?$basic_string@DU?$char_traits@D@std@@V?$allocator@D@2@@std@@@std@@@std@@@std@@AEB_N$0A@@?$pair@V?$_Tree_const_iterator@V?$_Tree_val@U?$_Tree_simple_types@V?$basic_string@DU?$char_traits@D@std@@V?$allocator@D@2@@std@@@std@@@std@@@std@@_N@std@@QEAA@$$QEAV?$_Tree_const_iterator@V?$_Tree_val@U?$_Tree_simple_types@V?$basic_string@DU?$char_traits@D@std@@V?$allocator@D@2@@std@@@std@@@std@@@1@AEB_N@Z
	??$?0V?$allocator@D@std@@$$V@?$_Compressed_pair@V?$allocator@D@std@@V?$_String_val@U?$_Simple_types@D@std@@@2@$00@std@@QEAA@U_One_then_variadic_args_t@1@$$QEAV?$allocator@D@1@@Z
	??$?0V?$allocator@D@std@@$$V@?$_Compressed_pair@V?$allocator@D@std@@V?$_Vector_val@U?$_Simple_types@D@std@@@2@$00@std@@QEAA@U_One_then_variadic_args_t@1@$$QEAV?$allocator@D@1@@Z
	??$?0V?$allocator@D@std@@PEADPEADPEAD@?$_Compressed_pair@V?$allocator@D@std@@V?$_Vector_val@U?$_Simple_types@D@std@@@2@$00@std@@QEAA@U_One_then_variadic_args_t@1@$$QEAV?$allocator@D@1@$$QEAPEAD22@Z
	??$?0V?$allocator@E@std@@$$V@?$_Compressed_pair@V?$allocator@E@std@@V?$_Vector_val@U?$_Simple_types@E@std@@@2@$00@std@@QEAA@U_One_then_variadic_args_t@1@$$QEAV?$allocator@E@1@@Z
	??$?0V?$allocator@E@std@@PEAEPEAEPEAE@?$_Compressed_pair@V?$allocator@E@std@@V?$_Vector_val@U?$_Simple_types@E@std@@@2@$00@std@@QEAA@U_One_then_variadic_args_t@1@$$QEAV?$allocator@E@1@$$QEAPEAE22@Z
	??$?0V?$allocator@G@std@@$$V@?$_Compressed_pair@V?$allocator@G@std@@V?$_Vector_val@U?$_Simple_types@G@std@@@2@$00@std@@QEAA@U_One_then_variadic_args_t@1@$$QEAV?$allocator@G@1@@Z
	??$?0V?$allocator@H@std@@$$V@?$_Compressed_pair@V?$allocator@H@std@@V?$_Vector_val@U?$_Simple_types@H@std@@@2@$00@std@@QEAA@U_One_then_variadic_args_t@1@$$QEAV?$allocator@H@1@@Z
	??$?0V?$allocator@H@std@@PEAHPEAHPEAH@?$_Compressed_pair@V?$allocator@H@std@@V?$_Vector_val@U?$_Simple_types@H@std@@@2@$00@std@@QEAA@U_One_then_variadic_args_t@1@$$QEAV?$allocator@H@1@$$QEAPEAH22@Z
	??$?0V?$allocator@I@std@@$$V@?$_Compressed_pair@V?$allocator@I@std@@V?$_Vector_val@U?$_Simple_types@I@std@@@2@$00@std@@QEAA@U_One_then_variadic_args_t@1@$$QEAV?$allocator@I@1@@Z
	??$?0V?$allocator@I@std@@PEAIPEAIPEAI@?$_Compressed_pair@V?$allocator@I@std@@V?$_Vector_val@U?$_Simple_types@I@std@@@2@$00@std@@QEAA@U_One_then_variadic_args_t@1@$$QEAV?$allocator@I@1@$$QEAPEAI22@Z
	??$?0V?$allocator@U?$_List_node@U?$pair@$$CBV?$basic_string@DU?$char_traits@D@std@@V?$allocator@D@2@@std@@H@std@@PEAX@std@@@std@@@?$_Hash@V?$_Umap_traits@V?$basic_string@DU?$char_traits@D@std@@V?$allocator@D@2@@std@@HV?$_Uhash_compare@V?$basic_string@DU?$char_traits@D@std@@V?$allocator@D@2@@std@@U?$hash@V?$basic_string@DU?$char_traits@D@std@@V?$allocator@D@2@@std@@@2@U?$equal_to@V?$basic_string@DU?$char_traits@D@std@@V?$allocator@D@2@@std@@@2@@2@V?$allocator@U?$pair@$$CBV?$basic_string@DU?$char_traits@D@std@@V?$allocator@D@2@@std@@H@std@@@2@$0A@@std@@@std@@IEAA@AEBV01@AEBV?$allocator@U?$_List_node@U?$pair@$$CBV?$basic_string@DU?$char_traits@D@std@@V?$allocator@D@2@@std@@H@std@@PEAX@std@@@1@@Z
	??$?0V?$allocator@U?$_Tree_node@U?$pair@$$CBGV?$vector@GV?$allocator@G@std@@@std@@@std@@PEAX@std@@@std@@$$V@?$_Compressed_pair@V?$allocator@U?$_Tree_node@U?$pair@$$CBGV?$vector@GV?$allocator@G@std@@@std@@@std@@PEAX@std@@@std@@V?$_Tree_val@U?$_Tree_simple_types@U?$pair@$$CBGV?$vector@GV?$allocator@G@std@@@std@@@std@@@std@@@2@$00@std@@QEAA@U_One_then_variadic_args_t@1@$$QEAV?$allocator@U?$_Tree_node@U?$pair@$$CBGV?$vector@GV?$allocator@G@std@@@std@@@std@@PEAX@std@@@1@@Z
	??$?0V?$allocator@U?$_Tree_node@U?$pair@$$CBGV?$vector@GV?$allocator@G@std@@@std@@@std@@PEAX@std@@@std@@@?$_Tree@V?$_Tmap_traits@GV?$vector@GV?$allocator@G@std@@@std@@U?$less@G@2@V?$allocator@U?$pair@$$CBGV?$vector@GV?$allocator@G@std@@@std@@@std@@@2@$0A@@std@@@std@@QEAA@AEBV01@$$QEAV?$allocator@U?$_Tree_node@U?$pair@$$CBGV?$vector@GV?$allocator@G@std@@@std@@@std@@PEAX@std@@@1@@Z
	??$?0V?$allocator@U?$_Tree_node@U?$pair@$$CBV?$basic_string@DU?$char_traits@D@std@@V?$allocator@D@2@@std@@UArcData@Trellis@@@std@@PEAX@std@@@std@@$$V@?$_Compressed_pair@V?$allocator@U?$_Tree_node@U?$pair@$$CBV?$basic_string@DU?$char_traits@D@std@@V?$allocator@D@2@@std@@UArcData@Trellis@@@std@@PEAX@std@@@std@@V?$_Tree_val@U?$_Tree_simple_types@U?$pair@$$CBV?$basic_string@DU?$char_traits@D@std@@V?$allocator@D@2@@std@@UArcData@Trellis@@@std@@@std@@@2@$00@std@@QEAA@U_One_then_variadic_args_t@1@$$QEAV?$allocator@U?$_Tree_node@U?$pair@$$CBV?$basic_string@DU?$char_traits@D@std@@V?$allocator@D@2@@std@@UArcData@Trellis@@@std@@PEAX@std@@@1@@Z
	??$?0V?$allocator@U?$_Tree_node@U?$pair@$$CBV?$basic_string@DU?$char_traits@D@std@@V?$allocator@D@2@@std@@UArcData@Trellis@@@std@@PEAX@std@@@std@@@?$_Tree@V?$_Tmap_traits@V?$basic_string@DU?$char_traits@D@std@@V?$allocator@D@2@@std@@UArcData@Trellis@@U?$less@V?$basic_string@DU?$char_traits@D@std@@V?$allocator@D@2@@std@@@2@V?$allocator@U?$pair@$$CBV?$basic_string@DU?$char_traits@D@std@@V?$allocator@D@2@@std@@UArcData@Trellis@@@std@@@2@$0A@@std@@@std@@QEAA@AEBV01@$$QEAV?$allocator@U?$_Tree_node@U?$pair@$$CBV?$basic_string@DU?$char_traits@D@std@@V?$allocator@D@2@@std@@UArcData@Trellis@@@std@@PEAX@std@@@1@@Z
	??$?0V?$allocator@U?$_Tree_node@U?$pair@$$CBV?$basic_string@DU?$char_traits@D@std@@V?$allocator@D@2@@std@@UBitGroup@Trellis@@@std@@PEAX@std@@@std@@$$V@?$_Compressed_pair@V?$allocator@U?$_Tree_node@U?$pair@$$CBV?$basic_string@DU?$char_traits@D@std@@V?$allocator@D@2@@std@@UBitGroup@Trellis@@@std@@PEAX@std@@@std@@V?$_Tree_val@U?$_Tree_simple_types@U?$pair@$$CBV?$basic_string@DU?$char_traits@D@std@@V?$allocator@D@2@@std@@UBitGroup@Trellis@@@std@@@std@@@2@$00@std@@QEAA@U_One_then_variadic_args_t@1@$$QEAV?$allocator@U?$_Tree_node@U?$pair@$$CBV?$basic_string@DU?$char_traits@D@std@@V?$allocator@D@2@@std@@UBitGroup@Trellis@@@std@@PEAX@std@@@1@@Z
	??$?0V?$allocator@U?$_Tree_node@U?$pair@$$CBV?$basic_string@DU?$char_traits@D@std@@V?$allocator@D@2@@std@@UBitGroup@Trellis@@@std@@PEAX@std@@@std@@@?$_Tree@V?$_Tmap_traits@V?$basic_string@DU?$char_traits@D@std@@V?$allocator@D@2@@std@@UBitGroup@Trellis@@U?$less@V?$basic_string@DU?$char_traits@D@std@@V?$allocator@D@2@@std@@@2@V?$allocator@U?$pair@$$CBV?$basic_string@DU?$char_traits@D@std@@V?$allocator@D@2@@std@@UBitGroup@Trellis@@@std@@@2@$0A@@std@@@std@@QEAA@AEBV01@$$QEAV?$allocator@U?$_Tree_node@U?$pair@$$CBV?$basic_string@DU?$char_traits@D@std@@V?$allocator@D@2@@std@@UBitGroup@Trellis@@@std@@PEAX@std@@@1@@Z
	??$?0V?$allocator@U?$_Tree_node@U?$pair@$$CBV?$basic_string@DU?$char_traits@D@std@@V?$allocator@D@2@@std@@UTileConfig@Trellis@@@std@@PEAX@std@@@std@@$$V@?$_Compressed_pair@V?$allocator@U?$_Tree_node@U?$pair@$$CBV?$basic_string@DU?$char_traits@D@std@@V?$allocator@D@2@@std@@UTileConfig@Trellis@@@std@@PEAX@std@@@std@@V?$_Tree_val@U?$_Tree_simple_types@U?$pair@$$CBV?$basic_string@DU?$char_traits@D@std@@V?$allocator@D@2@@std@@UTileConfig@Trellis@@@std@@@std@@@2@$00@std@@QEAA@U_One_then_variadic_args_t@1@$$QEAV?$allocator@U?$_Tree_node@U?$pair@$$CBV?$basic_string@DU?$char_traits@D@std@@V?$allocator@D@2@@std@@UTileConfig@Trellis@@@std@@PEAX@std@@@1@@Z
	??$?0V?$allocator@U?$_Tree_node@U?$pair@$$CBV?$basic_string@DU?$char_traits@D@std@@V?$allocator@D@2@@std@@V12@@std@@PEAX@std@@@std@@$$V@?$_Compressed_pair@V?$allocator@U?$_Tree_node@U?$pair@$$CBV?$basic_string@DU?$char_traits@D@std@@V?$allocator@D@2@@std@@V12@@std@@PEAX@std@@@std@@V?$_Tree_val@U?$_Tree_simple_types@U?$pair@$$CBV?$basic_string@DU?$char_traits@D@std@@V?$allocator@D@2@@std@@V12@@std@@@std@@@2@$00@std@@QEAA@U_One_then_variadic_args_t@1@$$QEAV?$allocator@U?$_Tree_node@U?$pair@$$CBV?$basic_string@DU?$char_traits@D@std@@V?$allocator@D@2@@std@@V12@@std@@PEAX@std@@@1@@Z
	??$?0V?$allocator@U?$_Tree_node@U?$pair@$$CBV?$basic_string@DU?$char_traits@D@std@@V?$allocator@D@2@@std@@V12@@std@@PEAX@std@@@std@@@?$_Tree@V?$_Tmap_traits@V?$basic_string@DU?$char_traits@D@std@@V?$allocator@D@2@@std@@V12@U?$less@V?$basic_string@DU?$char_traits@D@std@@V?$allocator@D@2@@std@@@2@V?$allocator@U?$pair@$$CBV?$basic_string@DU?$char_traits@D@std@@V?$allocator@D@2@@std@@V12@@std@@@2@$0A@@std@@@std@@QEAA@AEBV01@$$QEAV?$allocator@U?$_Tree_node@U?$pair@$$CBV?$basic_string@DU?$char_traits@D@std@@V?$allocator@D@2@@std@@V12@@std@@PEAX@std@@@1@@Z
	??$?0V?$allocator@U?$_Tree_node@U?$pair@$$CBV?$basic_string@DU?$char_traits@D@std@@V?$allocator@D@2@@std@@V?$shared_ptr@VTile@Trellis@@@2@@std@@PEAX@std@@@std@@$$V@?$_Compressed_pair@V?$allocator@U?$_Tree_node@U?$pair@$$CBV?$basic_string@DU?$char_traits@D@std@@V?$allocator@D@2@@std@@V?$shared_ptr@VTile@Trellis@@@2@@std@@PEAX@std@@@std@@V?$_Tree_val@U?$_Tree_simple_types@U?$pair@$$CBV?$basic_string@DU?$char_traits@D@std@@V?$allocator@D@2@@std@@V?$shared_ptr@VTile@Trellis@@@2@@std@@@std@@@2@$00@std@@QEAA@U_One_then_variadic_args_t@1@$$QEAV?$allocator@U?$_Tree_node@U?$pair@$$CBV?$basic_string@DU?$char_traits@D@std@@V?$allocator@D@2@@std@@V?$shared_ptr@VTile@Trellis@@@2@@std@@PEAX@std@@@1@@Z
	??$?0V?$allocator@U?$_Tree_node@U?$pair@$$CBV?$basic_string@DU?$char_traits@D@std@@V?$allocator@D@2@@std@@V?$shared_ptr@VTile@Trellis@@@2@@std@@PEAX@std@@@std@@@?$_Tree@V?$_Tmap_traits@V?$basic_string@DU?$char_traits@D@std@@V?$allocator@D@2@@std@@V?$shared_ptr@VTile@Trellis@@@2@U?$less@V?$basic_string@DU?$char_traits@D@std@@V?$allocator@D@2@@std@@@2@V?$allocator@U?$pair@$$CBV?$basic_string@DU?$char_traits@D@std@@V?$allocator@D@2@@std@@V?$shared_ptr@VTile@Trellis@@@2@@std@@@2@$0A@@std@@@std@@QEAA@AEBV01@$$QEAV?$allocator@U?$_Tree_node@U?$pair@$$CBV?$basic_string@DU?$char_traits@D@std@@V?$allocator@D@2@@std@@V?$shared_ptr@VTile@Trellis@@@2@@std@@PEAX@std@@@1@@Z
	??$?0V?$allocator@U?$_Tree_node@U?$pair@$$CBV?$basic_string@DU?$char_traits@D@std@@V?$allocator@D@2@@std@@V?$vector@UChangedBit@Trellis@@V?$allocator@UChangedBit@Trellis@@@std@@@2@@std@@PEAX@std@@@std@@$$V@?$_Compressed_pair@V?$allocator@U?$_Tree_node@U?$pair@$$CBV?$basic_string@DU?$char_traits@D@std@@V?$allocator@D@2@@std@@V?$vector@UChangedBit@Trellis@@V?$allocator@UChangedBit@Trellis@@@std@@@2@@std@@PEAX@std@@@std@@V?$_Tree_val@U?$_Tree_simple_types@U?$pair@$$CBV?$basic_string@DU?$char_traits@D@std@@V?$allocator@D@2@@std@@V?$vector@UChangedBit@Trellis@@V?$allocator@UChangedBit@Trellis@@@std@@@2@@std@@@std@@@2@$00@std@@QEAA@U_One_then_variadic_args_t@1@$$QEAV?$allocator@U?$_Tree_node@U?$pair@$$CBV?$basic_string@DU?$char_traits@D@std@@V?$allocator@D@2@@std@@V?$vector@UChangedBit@Trellis@@V?$allocator@UChangedBit@Trellis@@@std@@@2@@std@@PEAX@std@@@1@@Z
	??$?0V?$allocator@U?$_Tree_node@UConfigBit@Trellis@@PEAX@std@@@std@@$$V@?$_Compressed_pair@V?$allocator@U?$_Tree_node@UConfigBit@Trellis@@PEAX@std@@@std@@V?$_Tree_val@U?$_Tree_simple_types@UConfigBit@Trellis@@@std@@@2@$00@std@@QEAA@U_One_then_variadic_args_t@1@$$QEAV?$allocator@U?$_Tree_node@UConfigBit@Trellis@@PEAX@std@@@1@@Z
	??$?0V?$allocator@U?$_Tree_node@UConfigBit@Trellis@@PEAX@std@@@std@@@?$_Tree@V?$_Tset_traits@UConfigBit@Trellis@@U?$less@UConfigBit@Trellis@@@std@@V?$allocator@UConfigBit@Trellis@@@4@$0A@@std@@@std@@QEAA@AEBV01@$$QEAV?$allocator@U?$_Tree_node@UConfigBit@Trellis@@PEAX@std@@@1@@Z
	??$?0V?$allocator@U?$_Tree_node@UFixedConnection@Trellis@@PEAX@std@@@std@@$$V@?$_Compressed_pair@V?$allocator@U?$_Tree_node@UFixedConnection@Trellis@@PEAX@std@@@std@@V?$_Tree_val@U?$_Tree_simple_types@UFixedConnection@Trellis@@@std@@@2@$00@std@@QEAA@U_One_then_variadic_args_t@1@$$QEAV?$allocator@U?$_Tree_node@UFixedConnection@Trellis@@PEAX@std@@@1@@Z
	??$?0V?$allocator@U?$_Tree_node@UFixedConnection@Trellis@@PEAX@std@@@std@@@?$_Tree@V?$_Tset_traits@UFixedConnection@Trellis@@U?$less@UFixedConnection@Trellis@@@std@@V?$allocator@UFixedConnection@Trellis@@@4@$0A@@std@@@std@@QEAA@AEBV01@$$QEAV?$allocator@U?$_Tree_node@UFixedConnection@Trellis@@PEAX@std@@@1@@Z
	??$?0V?$allocator@U?$_Tree_node@URelId@DDChipDb@Trellis@@PEAX@std@@@std@@$$V@?$_Compressed_pair@V?$allocator@U?$_Tree_node@URelId@DDChipDb@Trellis@@PEAX@std@@@std@@V?$_Tree_val@U?$_Tree_simple_types@URelId@DDChipDb@Trellis@@@std@@@2@$00@std@@QEAA@U_One_then_variadic_args_t@1@$$QEAV?$allocator@U?$_Tree_node@URelId@DDChipDb@Trellis@@PEAX@std@@@1@@Z
	??$?0V?$allocator@U?$_Tree_node@URelId@DDChipDb@Trellis@@PEAX@std@@@std@@@?$_Tree@V?$_Tset_traits@URelId@DDChipDb@Trellis@@U?$less@URelId@DDChipDb@Trellis@@@std@@V?$allocator@URelId@DDChipDb@Trellis@@@5@$0A@@std@@@std@@QEAA@AEBV01@$$QEAV?$allocator@U?$_Tree_node@URelId@DDChipDb@Trellis@@PEAX@std@@@1@@Z
	??$?0V?$allocator@U?$pair@$$CBV?$basic_string@DU?$char_traits@D@std@@V?$allocator@D@2@@std@@V?$basic_ptree@V?$basic_string@DU?$char_traits@D@std@@V?$allocator@D@2@@std@@V12@U?$less@V?$basic_string@DU?$char_traits@D@std@@V?$allocator@D@2@@std@@@2@@property_tree@boost@@@std@@@std@@X@?$base_from_member@V?$allocator@U?$sequenced_index_node@U?$ordered_index_node@Unull_augment_policy@detail@multi_index@boost@@U?$index_node_base@U?$pair@$$CBV?$basic_string@DU?$char_traits@D@std@@V?$allocator@D@2@@std@@V?$basic_ptree@V?$basic_string@DU?$char_traits@D@std@@V?$allocator@D@2@@std@@V12@U?$less@V?$basic_string@DU?$char_traits@D@std@@V?$allocator@D@2@@std@@@2@@property_tree@boost@@@std@@V?$allocator@U?$pair@$$CBV?$basic_string@DU?$char_traits@D@std@@V?$allocator@D@2@@std@@V?$basic_ptree@V?$basic_string@DU?$char_traits@D@std@@V?$allocator@D@2@@std@@V12@U?$less@V?$basic_string@DU?$char_traits@D@std@@V?$allocator@D@2@@std@@@2@@property_tree@boost@@@std@@@2@@234@@detail@multi_index@boost@@@detail@multi_index@boost@@@std@@$0A@@boost@@IEAA@$$QEAV?$allocator@U?$pair@$$CBV?$basic_string@DU?$char_traits@D@std@@V?$allocator@D@2@@std@@V?$basic_ptree@V?$basic_string@DU?$char_traits@D@std@@V?$allocator@D@2@@std@@V12@U?$less@V?$basic_string@DU?$char_traits@D@std@@V?$allocator@D@2@@std@@@2@@property_tree@boost@@@std@@@std@@@Z
	??$?0V?$allocator@U?$pair@V?$basic_string@DU?$char_traits@D@std@@V?$allocator@D@2@@std@@V12@@std@@@std@@$$V@?$_Compressed_pair@V?$allocator@U?$pair@V?$basic_string@DU?$char_traits@D@std@@V?$allocator@D@2@@std@@V12@@std@@@std@@V?$_Vector_val@U?$_Simple_types@U?$pair@V?$basic_string@DU?$char_traits@D@std@@V?$allocator@D@2@@std@@V12@@std@@@std@@@2@$00@std@@QEAA@U_One_then_variadic_args_t@1@$$QEAV?$allocator@U?$pair@V?$basic_string@DU?$char_traits@D@std@@V?$allocator@D@2@@std@@V12@@std@@@1@@Z
	??$?0V?$allocator@U?$pair@V?$basic_string@DU?$char_traits@D@std@@V?$allocator@D@2@@std@@V12@@std@@@std@@PEAU?$pair@V?$basic_string@DU?$char_traits@D@std@@V?$allocator@D@2@@std@@V12@@1@PEAU21@PEAU21@@?$_Compressed_pair@V?$allocator@U?$pair@V?$basic_string@DU?$char_traits@D@std@@V?$allocator@D@2@@std@@V12@@std@@@std@@V?$_Vector_val@U?$_Simple_types@U?$pair@V?$basic_string@DU?$char_traits@D@std@@V?$allocator@D@2@@std@@V12@@std@@@std@@@2@$00@std@@QEAA@U_One_then_variadic_args_t@1@$$QEAV?$allocator@U?$pair@V?$basic_string@DU?$char_traits@D@std@@V?$allocator@D@2@@std@@V12@@std@@@1@$$QEAPEAU?$pair@V?$basic_string@DU?$char_traits@D@std@@V?$allocator@D@2@@std@@V12@@1@22@Z
	??$?0V?$allocator@U?$pair@V?$basic_string@DU?$char_traits@D@std@@V?$allocator@D@2@@std@@_N@std@@@std@@PEAU?$pair@V?$basic_string@DU?$char_traits@D@std@@V?$allocator@D@2@@std@@_N@1@PEAU21@PEAU21@@?$_Compressed_pair@V?$allocator@U?$pair@V?$basic_string@DU?$char_traits@D@std@@V?$allocator@D@2@@std@@_N@std@@@std@@V?$_Vector_val@U?$_Simple_types@U?$pair@V?$basic_string@DU?$char_traits@D@std@@V?$allocator@D@2@@std@@_N@std@@@std@@@2@$00@std@@QEAA@U_One_then_variadic_args_t@1@$$QEAV?$allocator@U?$pair@V?$basic_string@DU?$char_traits@D@std@@V?$allocator@D@2@@std@@_N@std@@@1@$$QEAPEAU?$pair@V?$basic_string@DU?$char_traits@D@std@@V?$allocator@D@2@@std@@_N@1@22@Z
	??$?0V?$allocator@U?$sequenced_index_node@U?$ordered_index_node@Unull_augment_policy@detail@multi_index@boost@@U?$index_node_base@U?$pair@$$CBV?$basic_string@DU?$char_traits@D@std@@V?$allocator@D@2@@std@@V?$basic_ptree@V?$basic_string@DU?$char_traits@D@std@@V?$allocator@D@2@@std@@V12@U?$less@V?$basic_string@DU?$char_traits@D@std@@V?$allocator@D@2@@std@@@2@@property_tree@boost@@@std@@V?$allocator@U?$pair@$$CBV?$basic_string@DU?$char_traits@D@std@@V?$allocator@D@2@@std@@V?$basic_ptree@V?$basic_string@DU?$char_traits@D@std@@V?$allocator@D@2@@std@@V12@U?$less@V?$basic_string@DU?$char_traits@D@std@@V?$allocator@D@2@@std@@@2@@property_tree@boost@@@std@@@2@@234@@detail@multi_index@boost@@@detail@multi_index@boost@@@std@@X@?$base_from_member@V?$allocator@U?$sequenced_index_node@U?$ordered_index_node@Unull_augment_policy@detail@multi_index@boost@@U?$index_node_base@U?$pair@$$CBV?$basic_string@DU?$char_traits@D@std@@V?$allocator@D@2@@std@@V?$basic_ptree@V?$basic_string@DU?$char_traits@D@std@@V?$allocator@D@2@@std@@V12@U?$less@V?$basic_string@DU?$char_traits@D@std@@V?$allocator@D@2@@std@@@2@@property_tree@boost@@@std@@V?$allocator@U?$pair@$$CBV?$basic_string@DU?$char_traits@D@std@@V?$allocator@D@2@@std@@V?$basic_ptree@V?$basic_string@DU?$char_traits@D@std@@V?$allocator@D@2@@std@@V12@U?$less@V?$basic_string@DU?$char_traits@D@std@@V?$allocator@D@2@@std@@@2@@property_tree@boost@@@std@@@2@@234@@detail@multi_index@boost@@@detail@multi_index@boost@@@std@@$0A@@boost@@IEAA@$$QEAV?$allocator@U?$sequenced_index_node@U?$ordered_index_node@Unull_augment_policy@detail@multi_index@boost@@U?$index_node_base@U?$pair@$$CBV?$basic_string@DU?$char_traits@D@std@@V?$allocator@D@2@@std@@V?$basic_ptree@V?$basic_string@DU?$char_traits@D@std@@V?$allocator@D@2@@std@@V12@U?$less@V?$basic_string@DU?$char_traits@D@std@@V?$allocator@D@2@@std@@@2@@property_tree@boost@@@std@@V?$allocator@U?$pair@$$CBV?$basic_string@DU?$char_traits@D@std@@V?$allocator@D@2@@std@@V?$basic_ptree@V?$basic_string@DU?$char_traits@D@std@@V?$allocator@D@2@@std@@V12@U?$less@V?$basic_string@DU?$char_traits@D@std@@V?$allocator@D@2@@std@@@2@@property_tree@boost@@@std@@@2@@234@@detail@multi_index@boost@@@detail@multi_index@boost@@@std@@@Z
	??$?0V?$allocator@UBelData@DDChipDb@Trellis@@@std@@$$V@?$_Compressed_pair@V?$allocator@UBelData@DDChipDb@Trellis@@@std@@V?$_Vector_val@U?$_Simple_types@UBelData@DDChipDb@Trellis@@@std@@@2@$00@std@@QEAA@U_One_then_variadic_args_t@1@$$QEAV?$allocator@UBelData@DDChipDb@Trellis@@@1@@Z
	??$?0V?$allocator@UBelPort@DDChipDb@Trellis@@@std@@$$V@?$_Compressed_pair@V?$allocator@UBelPort@DDChipDb@Trellis@@@std@@V?$_Vector_val@U?$_Simple_types@UBelPort@DDChipDb@Trellis@@@std@@@2@$00@std@@QEAA@U_One_then_variadic_args_t@1@$$QEAV?$allocator@UBelPort@DDChipDb@Trellis@@@1@@Z
	??$?0V?$allocator@UBelPort@DDChipDb@Trellis@@@std@@PEAUBelPort@DDChipDb@Trellis@@PEAU234@PEAU234@@?$_Compressed_pair@V?$allocator@UBelPort@DDChipDb@Trellis@@@std@@V?$_Vector_val@U?$_Simple_types@UBelPort@DDChipDb@Trellis@@@std@@@2@$00@std@@QEAA@U_One_then_variadic_args_t@1@$$QEAV?$allocator@UBelPort@DDChipDb@Trellis@@@1@$$QEAPEAUBelPort@DDChipDb@Trellis@@22@Z
	??$?0V?$allocator@UBelWire@DDChipDb@Trellis@@@std@@$$V@?$_Compressed_pair@V?$allocator@UBelWire@DDChipDb@Trellis@@@std@@V?$_Vector_val@U?$_Simple_types@UBelWire@DDChipDb@Trellis@@@std@@@2@$00@std@@QEAA@U_One_then_variadic_args_t@1@$$QEAV?$allocator@UBelWire@DDChipDb@Trellis@@@1@@Z
	??$?0V?$allocator@UBelWire@DDChipDb@Trellis@@@std@@PEAUBelWire@DDChipDb@Trellis@@PEAU234@PEAU234@@?$_Compressed_pair@V?$allocator@UBelWire@DDChipDb@Trellis@@@std@@V?$_Vector_val@U?$_Simple_types@UBelWire@DDChipDb@Trellis@@@std@@@2@$00@std@@QEAA@U_One_then_variadic_args_t@1@$$QEAV?$allocator@UBelWire@DDChipDb@Trellis@@@1@$$QEAPEAUBelWire@DDChipDb@Trellis@@22@Z
	??$?0V?$allocator@UBitGroup@Trellis@@@std@@$$V@?$_Compressed_pair@V?$allocator@UBitGroup@Trellis@@@std@@V?$_Vector_val@U?$_Simple_types@UBitGroup@Trellis@@@std@@@2@$00@std@@QEAA@U_One_then_variadic_args_t@1@$$QEAV?$allocator@UBitGroup@Trellis@@@1@@Z
	??$?0V?$allocator@UChangedBit@Trellis@@@std@@PEAUChangedBit@Trellis@@PEAU23@PEAU23@@?$_Compressed_pair@V?$allocator@UChangedBit@Trellis@@@std@@V?$_Vector_val@U?$_Simple_types@UChangedBit@Trellis@@@std@@@2@$00@std@@QEAA@U_One_then_variadic_args_t@1@$$QEAV?$allocator@UChangedBit@Trellis@@@1@$$QEAPEAUChangedBit@Trellis@@22@Z
	??$?0V?$allocator@UConfigArc@Trellis@@@std@@$$V@?$_Compressed_pair@V?$allocator@UConfigArc@Trellis@@@std@@V?$_Vector_val@U?$_Simple_types@UConfigArc@Trellis@@@std@@@2@$00@std@@QEAA@U_One_then_variadic_args_t@1@$$QEAV?$allocator@UConfigArc@Trellis@@@1@@Z
	??$?0V?$allocator@UConfigArc@Trellis@@@std@@PEAUConfigArc@Trellis@@PEAU23@PEAU23@@?$_Compressed_pair@V?$allocator@UConfigArc@Trellis@@@std@@V?$_Vector_val@U?$_Simple_types@UConfigArc@Trellis@@@std@@@2@$00@std@@QEAA@U_One_then_variadic_args_t@1@$$QEAV?$allocator@UConfigArc@Trellis@@@1@$$QEAPEAUConfigArc@Trellis@@22@Z
	??$?0V?$allocator@UConfigEnum@Trellis@@@std@@$$V@?$_Compressed_pair@V?$allocator@UConfigEnum@Trellis@@@std@@V?$_Vector_val@U?$_Simple_types@UConfigEnum@Trellis@@@std@@@2@$00@std@@QEAA@U_One_then_variadic_args_t@1@$$QEAV?$allocator@UConfigEnum@Trellis@@@1@@Z
	??$?0V?$allocator@UConfigEnum@Trellis@@@std@@PEAUConfigEnum@Trellis@@PEAU23@PEAU23@@?$_Compressed_pair@V?$allocator@UConfigEnum@Trellis@@@std@@V?$_Vector_val@U?$_Simple_types@UConfigEnum@Trellis@@@std@@@2@$00@std@@QEAA@U_One_then_variadic_args_t@1@$$QEAV?$allocator@UConfigEnum@Trellis@@@1@$$QEAPEAUConfigEnum@Trellis@@22@Z
	??$?0V?$allocator@UConfigUnknown@Trellis@@@std@@$$V@?$_Compressed_pair@V?$allocator@UConfigUnknown@Trellis@@@std@@V?$_Vector_val@U?$_Simple_types@UConfigUnknown@Trellis@@@std@@@2@$00@std@@QEAA@U_One_then_variadic_args_t@1@$$QEAV?$allocator@UConfigUnknown@Trellis@@@1@@Z
	??$?0V?$allocator@UConfigUnknown@Trellis@@@std@@PEAUConfigUnknown@Trellis@@PEAU23@PEAU23@@?$_Compressed_pair@V?$allocator@UConfigUnknown@Trellis@@@std@@V?$_Vector_val@U?$_Simple_types@UConfigUnknown@Trellis@@@std@@@2@$00@std@@QEAA@U_One_then_variadic_args_t@1@$$QEAV?$allocator@UConfigUnknown@Trellis@@@1@$$QEAPEAUConfigUnknown@Trellis@@22@Z
	??$?0V?$allocator@UConfigWord@Trellis@@@std@@$$V@?$_Compressed_pair@V?$allocator@UConfigWord@Trellis@@@std@@V?$_Vector_val@U?$_Simple_types@UConfigWord@Trellis@@@std@@@2@$00@std@@QEAA@U_One_then_variadic_args_t@1@$$QEAV?$allocator@UConfigWord@Trellis@@@1@@Z
	??$?0V?$allocator@UConfigWord@Trellis@@@std@@PEAUConfigWord@Trellis@@PEAU23@PEAU23@@?$_Compressed_pair@V?$allocator@UConfigWord@Trellis@@@std@@V?$_Vector_val@U?$_Simple_types@UConfigWord@Trellis@@@std@@@2@$00@std@@QEAA@U_One_then_variadic_args_t@1@$$QEAV?$allocator@UConfigWord@Trellis@@@1@$$QEAPEAUConfigWord@Trellis@@22@Z
	??$?0V?$allocator@UDdArcData@DDChipDb@Trellis@@@std@@$$V@?$_Compressed_pair@V?$allocator@UDdArcData@DDChipDb@Trellis@@@std@@V?$_Vector_val@U?$_Simple_types@UDdArcData@DDChipDb@Trellis@@@std@@@2@$00@std@@QEAA@U_One_then_variadic_args_t@1@$$QEAV?$allocator@UDdArcData@DDChipDb@Trellis@@@1@@Z
	??$?0V?$allocator@UFixedConnection@Trellis@@@std@@PEAUFixedConnection@Trellis@@PEAU23@PEAU23@@?$_Compressed_pair@V?$allocator@UFixedConnection@Trellis@@@std@@V?$_Vector_val@U?$_Simple_types@UFixedConnection@Trellis@@@std@@@2@$00@std@@QEAA@U_One_then_variadic_args_t@1@$$QEAV?$allocator@UFixedConnection@Trellis@@@1@$$QEAPEAUFixedConnection@Trellis@@22@Z
	??$?0V?$allocator@UGlobalRegion@Trellis@@@std@@$$V@?$_Compressed_pair@V?$allocator@UGlobalRegion@Trellis@@@std@@V?$_Vector_val@U?$_Simple_types@UGlobalRegion@Trellis@@@std@@@2@$00@std@@QEAA@U_One_then_variadic_args_t@1@$$QEAV?$allocator@UGlobalRegion@Trellis@@@1@@Z
	??$?0V?$allocator@UGlobalRegion@Trellis@@@std@@PEAUGlobalRegion@Trellis@@PEAU23@PEAU23@@?$_Compressed_pair@V?$allocator@UGlobalRegion@Trellis@@@std@@V?$_Vector_val@U?$_Simple_types@UGlobalRegion@Trellis@@@std@@@2@$00@std@@QEAA@U_One_then_variadic_args_t@1@$$QEAV?$allocator@UGlobalRegion@Trellis@@@1@$$QEAPEAUGlobalRegion@Trellis@@22@Z
	??$?0V?$allocator@USiteInfo@Trellis@@@std@@$$V@?$_Compressed_pair@V?$allocator@USiteInfo@Trellis@@@std@@V?$_Vector_val@U?$_Simple_types@USiteInfo@Trellis@@@std@@@2@$00@std@@QEAA@U_One_then_variadic_args_t@1@$$QEAV?$allocator@USiteInfo@Trellis@@@1@@Z
	??$?0V?$allocator@USiteInfo@Trellis@@@std@@PEAUSiteInfo@Trellis@@PEAU23@PEAU23@@?$_Compressed_pair@V?$allocator@USiteInfo@Trellis@@@std@@V?$_Vector_val@U?$_Simple_types@USiteInfo@Trellis@@@std@@@2@$00@std@@QEAA@U_One_then_variadic_args_t@1@$$QEAV?$allocator@USiteInfo@Trellis@@@1@$$QEAPEAUSiteInfo@Trellis@@22@Z
	??$?0V?$allocator@USpineInfo@Trellis@@@std@@$$V@?$_Compressed_pair@V?$allocator@USpineInfo@Trellis@@@std@@V?$_Vector_val@U?$_Simple_types@USpineInfo@Trellis@@@std@@@2@$00@std@@QEAA@U_One_then_variadic_args_t@1@$$QEAV?$allocator@USpineInfo@Trellis@@@1@@Z
	??$?0V?$allocator@USpineInfo@Trellis@@@std@@PEAUSpineInfo@Trellis@@PEAU23@PEAU23@@?$_Compressed_pair@V?$allocator@USpineInfo@Trellis@@@std@@V?$_Vector_val@U?$_Simple_types@USpineInfo@Trellis@@@std@@@2@$00@std@@QEAA@U_One_then_variadic_args_t@1@$$QEAV?$allocator@USpineInfo@Trellis@@@1@$$QEAPEAUSpineInfo@Trellis@@22@Z
	??$?0V?$allocator@USpineSegment@Trellis@@@std@@$$V@?$_Compressed_pair@V?$allocator@USpineSegment@Trellis@@@std@@V?$_Vector_val@U?$_Simple_types@USpineSegment@Trellis@@@std@@@2@$00@std@@QEAA@U_One_then_variadic_args_t@1@$$QEAV?$allocator@USpineSegment@Trellis@@@1@@Z
	??$?0V?$allocator@USpineSegment@Trellis@@@std@@PEAUSpineSegment@Trellis@@PEAU23@PEAU23@@?$_Compressed_pair@V?$allocator@USpineSegment@Trellis@@@std@@V?$_Vector_val@U?$_Simple_types@USpineSegment@Trellis@@@std@@@2@$00@std@@QEAA@U_One_then_variadic_args_t@1@$$QEAV?$allocator@USpineSegment@Trellis@@@1@$$QEAPEAUSpineSegment@Trellis@@22@Z
	??$?0V?$allocator@UTapSegment@Trellis@@@std@@$$V@?$_Compressed_pair@V?$allocator@UTapSegment@Trellis@@@std@@V?$_Vector_val@U?$_Simple_types@UTapSegment@Trellis@@@std@@@2@$00@std@@QEAA@U_One_then_variadic_args_t@1@$$QEAV?$allocator@UTapSegment@Trellis@@@1@@Z
	??$?0V?$allocator@UTapSegment@Trellis@@@std@@PEAUTapSegment@Trellis@@PEAU23@PEAU23@@?$_Compressed_pair@V?$allocator@UTapSegment@Trellis@@@std@@V?$_Vector_val@U?$_Simple_types@UTapSegment@Trellis@@@std@@@2@$00@std@@QEAA@U_One_then_variadic_args_t@1@$$QEAV?$allocator@UTapSegment@Trellis@@@1@$$QEAPEAUTapSegment@Trellis@@22@Z
	??$?0V?$allocator@UTileGroup@Trellis@@@std@@PEAUTileGroup@Trellis@@PEAU23@PEAU23@@?$_Compressed_pair@V?$allocator@UTileGroup@Trellis@@@std@@V?$_Vector_val@U?$_Simple_types@UTileGroup@Trellis@@@std@@@2@$00@std@@QEAA@U_One_then_variadic_args_t@1@$$QEAV?$allocator@UTileGroup@Trellis@@@1@$$QEAPEAUTileGroup@Trellis@@22@Z
	??$?0V?$allocator@UTileInfo@Trellis@@@std@@PEAUTileInfo@Trellis@@PEAU23@PEAU23@@?$_Compressed_pair@V?$allocator@UTileInfo@Trellis@@@std@@V?$_Vector_val@U?$_Simple_types@UTileInfo@Trellis@@@std@@@2@$00@std@@QEAA@U_One_then_variadic_args_t@1@$$QEAV?$allocator@UTileInfo@Trellis@@@1@$$QEAPEAUTileInfo@Trellis@@22@Z
	??$?0V?$allocator@UWireData@DDChipDb@Trellis@@@std@@$$V@?$_Compressed_pair@V?$allocator@UWireData@DDChipDb@Trellis@@@std@@V?$_Vector_val@U?$_Simple_types@UWireData@DDChipDb@Trellis@@@std@@@2@$00@std@@QEAA@U_One_then_variadic_args_t@1@$$QEAV?$allocator@UWireData@DDChipDb@Trellis@@@1@@Z
	??$?0V?$allocator@U_Grp_t@?$_Tgt_state_t@V?$_String_const_iterator@V?$_String_val@U?$_Simple_types@D@std@@@std@@@std@@@std@@@std@@$$V@?$_Compressed_pair@V?$allocator@U_Grp_t@?$_Tgt_state_t@V?$_String_const_iterator@V?$_String_val@U?$_Simple_types@D@std@@@std@@@std@@@std@@@std@@V?$_Vector_val@U?$_Simple_types@U_Grp_t@?$_Tgt_state_t@V?$_String_const_iterator@V?$_String_val@U?$_Simple_types@D@std@@@std@@@std@@@std@@@std@@@2@$00@std@@QEAA@U_One_then_variadic_args_t@1@$$QEAV?$allocator@U_Grp_t@?$_Tgt_state_t@V?$_String_const_iterator@V?$_String_val@U?$_Simple_types@D@std@@@std@@@std@@@std@@@1@@Z
	??$?0V?$allocator@U_Grp_t@?$_Tgt_state_t@V?$_String_const_iterator@V?$_String_val@U?$_Simple_types@D@std@@@std@@@std@@@std@@@std@@PEAU_Grp_t@?$_Tgt_state_t@V?$_String_const_iterator@V?$_String_val@U?$_Simple_types@D@std@@@std@@@std@@@1@PEAU231@PEAU231@@?$_Compressed_pair@V?$allocator@U_Grp_t@?$_Tgt_state_t@V?$_String_const_iterator@V?$_String_val@U?$_Simple_types@D@std@@@std@@@std@@@std@@@std@@V?$_Vector_val@U?$_Simple_types@U_Grp_t@?$_Tgt_state_t@V?$_String_const_iterator@V?$_String_val@U?$_Simple_types@D@std@@@std@@@std@@@std@@@std@@@2@$00@std@@QEAA@U_One_then_variadic_args_t@1@$$QEAV?$allocator@U_Grp_t@?$_Tgt_state_t@V?$_String_const_iterator@V?$_String_val@U?$_Simple_types@D@std@@@std@@@std@@@std@@@1@$$QEAPEAU_Grp_t@?$_Tgt_state_t@V?$_String_const_iterator@V?$_String_val@U?$_Simple_types@D@std@@@std@@@std@@@1@22@Z
	??$?0V?$allocator@V?$basic_string@DU?$char_traits@D@std@@V?$allocator@D@2@@std@@@std@@$$V@?$_Compressed_pair@V?$allocator@V?$basic_string@DU?$char_traits@D@std@@V?$allocator@D@2@@std@@@std@@V?$_Vector_val@U?$_Simple_types@V?$basic_string@DU?$char_traits@D@std@@V?$allocator@D@2@@std@@@std@@@2@$00@std@@QEAA@U_One_then_variadic_args_t@1@$$QEAV?$allocator@V?$basic_string@DU?$char_traits@D@std@@V?$allocator@D@2@@std@@@1@@Z
	??$?0V?$allocator@V?$basic_string@DU?$char_traits@D@std@@V?$allocator@D@2@@std@@@std@@PEAV?$basic_string@DU?$char_traits@D@std@@V?$allocator@D@2@@1@PEAV21@PEAV21@@?$_Compressed_pair@V?$allocator@V?$basic_string@DU?$char_traits@D@std@@V?$allocator@D@2@@std@@@std@@V?$_Vector_val@U?$_Simple_types@V?$basic_string@DU?$char_traits@D@std@@V?$allocator@D@2@@std@@@std@@@2@$00@std@@QEAA@U_One_then_variadic_args_t@1@$$QEAV?$allocator@V?$basic_string@DU?$char_traits@D@std@@V?$allocator@D@2@@std@@@1@$$QEAPEAV?$basic_string@DU?$char_traits@D@std@@V?$allocator@D@2@@1@22@Z
	??$?0V?$allocator@V?$shared_ptr@VTile@Trellis@@@std@@@std@@PEAV?$shared_ptr@VTile@Trellis@@@1@PEAV21@PEAV21@@?$_Compressed_pair@V?$allocator@V?$shared_ptr@VTile@Trellis@@@std@@@std@@V?$_Vector_val@U?$_Simple_types@V?$shared_ptr@VTile@Trellis@@@std@@@std@@@2@$00@std@@QEAA@U_One_then_variadic_args_t@1@$$QEAV?$allocator@V?$shared_ptr@VTile@Trellis@@@std@@@1@$$QEAPEAV?$shared_ptr@VTile@Trellis@@@1@22@Z
	??$?0V?$allocator@V?$vector@HV?$allocator@H@std@@@std@@@std@@$$V@?$_Compressed_pair@V?$allocator@V?$vector@HV?$allocator@H@std@@@std@@@std@@V?$_Vector_val@U?$_Simple_types@V?$vector@HV?$allocator@H@std@@@std@@@std@@@2@$00@std@@QEAA@U_One_then_variadic_args_t@1@$$QEAV?$allocator@V?$vector@HV?$allocator@H@std@@@std@@@1@@Z
	??$?0V?$allocator@V?$vector@HV?$allocator@H@std@@@std@@@std@@PEAV?$vector@HV?$allocator@H@std@@@1@PEAV21@PEAV21@@?$_Compressed_pair@V?$allocator@V?$vector@HV?$allocator@H@std@@@std@@@std@@V?$_Vector_val@U?$_Simple_types@V?$vector@HV?$allocator@H@std@@@std@@@std@@@2@$00@std@@QEAA@U_One_then_variadic_args_t@1@$$QEAV?$allocator@V?$vector@HV?$allocator@H@std@@@std@@@1@$$QEAPEAV?$vector@HV?$allocator@H@std@@@1@22@Z
	??$?0V?$allocator@V?$vector@U?$pair@V?$basic_string@DU?$char_traits@D@std@@V?$allocator@D@2@@std@@V12@@std@@V?$allocator@U?$pair@V?$basic_string@DU?$char_traits@D@std@@V?$allocator@D@2@@std@@V12@@std@@@2@@std@@@std@@$$V@?$_Compressed_pair@V?$allocator@V?$vector@U?$pair@V?$basic_string@DU?$char_traits@D@std@@V?$allocator@D@2@@std@@V12@@std@@V?$allocator@U?$pair@V?$basic_string@DU?$char_traits@D@std@@V?$allocator@D@2@@std@@V12@@std@@@2@@std@@@std@@V?$_Vector_val@U?$_Simple_types@V?$vector@U?$pair@V?$basic_string@DU?$char_traits@D@std@@V?$allocator@D@2@@std@@V12@@std@@V?$allocator@U?$pair@V?$basic_string@DU?$char_traits@D@std@@V?$allocator@D@2@@std@@V12@@std@@@2@@std@@@std@@@2@$00@std@@QEAA@U_One_then_variadic_args_t@1@$$QEAV?$allocator@V?$vector@U?$pair@V?$basic_string@DU?$char_traits@D@std@@V?$allocator@D@2@@std@@V12@@std@@V?$allocator@U?$pair@V?$basic_string@DU?$char_traits@D@std@@V?$allocator@D@2@@std@@V12@@std@@@2@@std@@@1@@Z
	??$?0V?$allocator@V?$vector@U?$pair@V?$basic_string@DU?$char_traits@D@std@@V?$allocator@D@2@@std@@V12@@std@@V?$allocator@U?$pair@V?$basic_string@DU?$char_traits@D@std@@V?$allocator@D@2@@std@@V12@@std@@@2@@std@@@std@@PEAV?$vector@U?$pair@V?$basic_string@DU?$char_traits@D@std@@V?$allocator@D@2@@std@@V12@@std@@V?$allocator@U?$pair@V?$basic_string@DU?$char_traits@D@std@@V?$allocator@D@2@@std@@V12@@std@@@2@@1@PEAV21@PEAV21@@?$_Compressed_pair@V?$allocator@V?$vector@U?$pair@V?$basic_string@DU?$char_traits@D@std@@V?$allocator@D@2@@std@@V12@@std@@V?$allocator@U?$pair@V?$basic_string@DU?$char_traits@D@std@@V?$allocator@D@2@@std@@V12@@std@@@2@@std@@@std@@V?$_Vector_val@U?$_Simple_types@V?$vector@U?$pair@V?$basic_string@DU?$char_traits@D@std@@V?$allocator@D@2@@std@@V12@@std@@V?$allocator@U?$pair@V?$basic_string@DU?$char_traits@D@std@@V?$allocator@D@2@@std@@V12@@std@@@2@@std@@@std@@@2@$00@std@@QEAA@U_One_then_variadic_args_t@1@$$QEAV?$allocator@V?$vector@U?$pair@V?$basic_string@DU?$char_traits@D@std@@V?$allocator@D@2@@std@@V12@@std@@V?$allocator@U?$pair@V?$basic_string@DU?$char_traits@D@std@@V?$allocator@D@2@@std@@V12@@std@@@2@@std@@@1@$$QEAPEAV?$vector@U?$pair@V?$basic_string@DU?$char_traits@D@std@@V?$allocator@D@2@@std@@V12@@std@@V?$allocator@U?$pair@V?$basic_string@DU?$char_traits@D@std@@V?$allocator@D@2@@std@@V12@@std@@@2@@1@22@Z
	??$?0V?$allocator@V?$vector@V?$vector@U?$pair@V?$basic_string@DU?$char_traits@D@std@@V?$allocator@D@2@@std@@V12@@std@@V?$allocator@U?$pair@V?$basic_string@DU?$char_traits@D@std@@V?$allocator@D@2@@std@@V12@@std@@@2@@std@@V?$allocator@V?$vector@U?$pair@V?$basic_string@DU?$char_traits@D@std@@V?$allocator@D@2@@std@@V12@@std@@V?$allocator@U?$pair@V?$basic_string@DU?$char_traits@D@std@@V?$allocator@D@2@@std@@V12@@std@@@2@@std@@@2@@std@@@std@@$$V@?$_Compressed_pair@V?$allocator@V?$vector@V?$vector@U?$pair@V?$basic_string@DU?$char_traits@D@std@@V?$allocator@D@2@@std@@V12@@std@@V?$allocator@U?$pair@V?$basic_string@DU?$char_traits@D@std@@V?$allocator@D@2@@std@@V12@@std@@@2@@std@@V?$allocator@V?$vector@U?$pair@V?$basic_string@DU?$char_traits@D@std@@V?$allocator@D@2@@std@@V12@@std@@V?$allocator@U?$pair@V?$basic_string@DU?$char_traits@D@std@@V?$allocator@D@2@@std@@V12@@std@@@2@@std@@@2@@std@@@std@@V?$_Vector_val@U?$_Simple_types@V?$vector@V?$vector@U?$pair@V?$basic_string@DU?$char_traits@D@std@@V?$allocator@D@2@@std@@V12@@std@@V?$allocator@U?$pair@V?$basic_string@DU?$char_traits@D@std@@V?$allocator@D@2@@std@@V12@@std@@@2@@std@@V?$allocator@V?$vector@U?$pair@V?$basic_string@DU?$char_traits@D@std@@V?$allocator@D@2@@std@@V12@@std@@V?$allocator@U?$pair@V?$basic_string@DU?$char_traits@D@std@@V?$allocator@D@2@@std@@V12@@std@@@2@@std@@@2@@std@@@std@@@2@$00@std@@QEAA@U_One_then_variadic_args_t@1@$$QEAV?$allocator@V?$vector@V?$vector@U?$pair@V?$basic_string@DU?$char_traits@D@std@@V?$allocator@D@2@@std@@V12@@std@@V?$allocator@U?$pair@V?$basic_string@DU?$char_traits@D@std@@V?$allocator@D@2@@std@@V12@@std@@@2@@std@@V?$allocator@V?$vector@U?$pair@V?$basic_string@DU?$char_traits@D@std@@V?$allocator@D@2@@std@@V12@@std@@V?$allocator@U?$pair@V?$basic_string@DU?$char_traits@D@std@@V?$allocator@D@2@@std@@V12@@std@@@2@@std@@@2@@std@@@1@@Z
	??$?0V?$allocator@V?$vector@V?$vector@U?$pair@V?$basic_string@DU?$char_traits@D@std@@V?$allocator@D@2@@std@@V12@@std@@V?$allocator@U?$pair@V?$basic_string@DU?$char_traits@D@std@@V?$allocator@D@2@@std@@V12@@std@@@2@@std@@V?$allocator@V?$vector@U?$pair@V?$basic_string@DU?$char_traits@D@std@@V?$allocator@D@2@@std@@V12@@std@@V?$allocator@U?$pair@V?$basic_string@DU?$char_traits@D@std@@V?$allocator@D@2@@std@@V12@@std@@@2@@std@@@2@@std@@@std@@PEAV?$vector@V?$vector@U?$pair@V?$basic_string@DU?$char_traits@D@std@@V?$allocator@D@2@@std@@V12@@std@@V?$allocator@U?$pair@V?$basic_string@DU?$char_traits@D@std@@V?$allocator@D@2@@std@@V12@@std@@@2@@std@@V?$allocator@V?$vector@U?$pair@V?$basic_string@DU?$char_traits@D@std@@V?$allocator@D@2@@std@@V12@@std@@V?$allocator@U?$pair@V?$basic_string@DU?$char_traits@D@std@@V?$allocator@D@2@@std@@V12@@std@@@2@@std@@@2@@1@PEAV21@PEAV21@@?$_Compressed_pair@V?$allocator@V?$vector@V?$vector@U?$pair@V?$basic_string@DU?$char_traits@D@std@@V?$allocator@D@2@@std@@V12@@std@@V?$allocator@U?$pair@V?$basic_string@DU?$char_traits@D@std@@V?$allocator@D@2@@std@@V12@@std@@@2@@std@@V?$allocator@V?$vector@U?$pair@V?$basic_string@DU?$char_traits@D@std@@V?$allocator@D@2@@std@@V12@@std@@V?$allocator@U?$pair@V?$basic_string@DU?$char_traits@D@std@@V?$allocator@D@2@@std@@V12@@std@@@2@@std@@@2@@std@@@std@@V?$_Vector_val@U?$_Simple_types@V?$vector@V?$vector@U?$pair@V?$basic_string@DU?$char_traits@D@std@@V?$allocator@D@2@@std@@V12@@std@@V?$allocator@U?$pair@V?$basic_string@DU?$char_traits@D@std@@V?$allocator@D@2@@std@@V12@@std@@@2@@std@@V?$allocator@V?$vector@U?$pair@V?$basic_string@DU?$char_traits@D@std@@V?$allocator@D@2@@std@@V12@@std@@V?$allocator@U?$pair@V?$basic_string@DU?$char_traits@D@std@@V?$allocator@D@2@@std@@V12@@std@@@2@@std@@@2@@std@@@std@@@2@$00@std@@QEAA@U_One_then_variadic_args_t@1@$$QEAV?$allocator@V?$vector@V?$vector@U?$pair@V?$basic_string@DU?$char_traits@D@std@@V?$allocator@D@2@@std@@V12@@std@@V?$allocator@U?$pair@V?$basic_string@DU?$char_traits@D@std@@V?$allocator@D@2@@std@@V12@@std@@@2@@std@@V?$allocator@V?$vector@U?$pair@V?$basic_string@DU?$char_traits@D@std@@V?$allocator@D@2@@std@@V12@@std@@V?$allocator@U?$pair@V?$basic_string@DU?$char_traits@D@std@@V?$allocator@D@2@@std@@V12@@std@@@2@@std@@@2@@std@@@1@$$QEAPEAV?$vector@V?$vector@U?$pair@V?$basic_string@DU?$char_traits@D@std@@V?$allocator@D@2@@std@@V12@@std@@V?$allocator@U?$pair@V?$basic_string@DU?$char_traits@D@std@@V?$allocator@D@2@@std@@V12@@std@@@2@@std@@V?$allocator@V?$vector@U?$pair@V?$basic_string@DU?$char_traits@D@std@@V?$allocator@D@2@@std@@V12@@std@@V?$allocator@U?$pair@V?$basic_string@DU?$char_traits@D@std@@V?$allocator@D@2@@std@@V12@@std@@@2@@std@@@2@@1@22@Z
	??$?0V?$basic_string@DU?$char_traits@D@std@@V?$allocator@D@2@@std@@@any@boost@@QEAA@AEBV?$basic_string@DU?$char_traits@D@std@@V?$allocator@D@2@@std@@@Z
	??$?0V?$basic_string@DU?$char_traits@D@std@@V?$allocator@D@2@@std@@@ptree_bad_data@property_tree@boost@@QEAA@AEBV?$basic_string@DU?$char_traits@D@std@@V?$allocator@D@2@@std@@0@Z
	??$?0V?$basic_string@DU?$char_traits@D@std@@V?$allocator@D@2@@std@@V01@$0A@@?$pair@V?$basic_string@DU?$char_traits@D@std@@V?$allocator@D@2@@std@@V12@@std@@QEAA@AEBV?$basic_string@DU?$char_traits@D@std@@V?$allocator@D@2@@1@0@Z
	??$?0V?$basic_string@DU?$char_traits@D@std@@V?$allocator@D@2@@std@@V?$basic_ptree@V?$basic_string@DU?$char_traits@D@std@@V?$allocator@D@2@@std@@V12@U?$less@V?$basic_string@DU?$char_traits@D@std@@V?$allocator@D@2@@std@@@2@@property_tree@boost@@$0A@@?$pair@$$CBV?$basic_string@DU?$char_traits@D@std@@V?$allocator@D@2@@std@@V?$basic_ptree@V?$basic_string@DU?$char_traits@D@std@@V?$allocator@D@2@@std@@V12@U?$less@V?$basic_string@DU?$char_traits@D@std@@V?$allocator@D@2@@std@@@2@@property_tree@boost@@@std@@QEAA@$$QEAU?$pair@V?$basic_string@DU?$char_traits@D@std@@V?$allocator@D@2@@std@@V?$basic_ptree@V?$basic_string@DU?$char_traits@D@std@@V?$allocator@D@2@@std@@V12@U?$less@V?$basic_string@DU?$char_traits@D@std@@V?$allocator@D@2@@std@@@2@@property_tree@boost@@@1@@Z
	??$?0V?$basic_string@DU?$char_traits@D@std@@V?$allocator@D@2@@std@@V?$basic_ptree@V?$basic_string@DU?$char_traits@D@std@@V?$allocator@D@2@@std@@V12@U?$less@V?$basic_string@DU?$char_traits@D@std@@V?$allocator@D@2@@std@@@2@@property_tree@boost@@$0A@@?$pair@V?$basic_string@DU?$char_traits@D@std@@V?$allocator@D@2@@std@@V?$basic_ptree@V?$basic_string@DU?$char_traits@D@std@@V?$allocator@D@2@@std@@V12@U?$less@V?$basic_string@DU?$char_traits@D@std@@V?$allocator@D@2@@std@@@2@@property_tree@boost@@@std@@QEAA@$$QEAV?$basic_string@DU?$char_traits@D@std@@V?$allocator@D@2@@1@$$QEAV?$basic_ptree@V?$basic_string@DU?$char_traits@D@std@@V?$allocator@D@2@@std@@V12@U?$less@V?$basic_string@DU?$char_traits@D@std@@V?$allocator@D@2@@std@@@2@@property_tree@boost@@@Z
	??$?0V?$bidir_node_iterator@U?$ordered_index_node@Unull_augment_policy@detail@multi_index@boost@@U?$index_node_base@U?$pair@$$CBV?$basic_string@DU?$char_traits@D@std@@V?$allocator@D@2@@std@@V?$basic_ptree@V?$basic_string@DU?$char_traits@D@std@@V?$allocator@D@2@@std@@V12@U?$less@V?$basic_string@DU?$char_traits@D@std@@V?$allocator@D@2@@std@@@2@@property_tree@boost@@@std@@V?$allocator@U?$pair@$$CBV?$basic_string@DU?$char_traits@D@std@@V?$allocator@D@2@@std@@V?$basic_ptree@V?$basic_string@DU?$char_traits@D@std@@V?$allocator@D@2@@std@@V12@U?$less@V?$basic_string@DU?$char_traits@D@std@@V?$allocator@D@2@@std@@@2@@property_tree@boost@@@std@@@2@@234@@detail@multi_index@boost@@@detail@multi_index@boost@@V0123@$0A@@?$pair@V?$bidir_node_iterator@U?$ordered_index_node@Unull_augment_policy@detail@multi_index@boost@@U?$index_node_base@U?$pair@$$CBV?$basic_string@DU?$char_traits@D@std@@V?$allocator@D@2@@std@@V?$basic_ptree@V?$basic_string@DU?$char_traits@D@std@@V?$allocator@D@2@@std@@V12@U?$less@V?$basic_string@DU?$char_traits@D@std@@V?$allocator@D@2@@std@@@2@@property_tree@boost@@@std@@V?$allocator@U?$pair@$$CBV?$basic_string@DU?$char_traits@D@std@@V?$allocator@D@2@@std@@V?$basic_ptree@V?$basic_string@DU?$char_traits@D@std@@V?$allocator@D@2@@std@@V12@U?$less@V?$basic_string@DU?$char_traits@D@std@@V?$allocator@D@2@@std@@@2@@property_tree@boost@@@std@@@2@@234@@detail@multi_index@boost@@@detail@multi_index@boost@@V1234@@std@@QEAA@$$QEAV?$bidir_node_iterator@U?$ordered_index_node@Unull_augment_policy@detail@multi_index@boost@@U?$index_node_base@U?$pair@$$CBV?$basic_string@DU?$char_traits@D@std@@V?$allocator@D@2@@std@@V?$basic_ptree@V?$basic_string@DU?$char_traits@D@std@@V?$allocator@D@2@@std@@V12@U?$less@V?$basic_string@DU?$char_traits@D@std@@V?$allocator@D@2@@std@@@2@@property_tree@boost@@@std@@V?$allocator@U?$pair@$$CBV?$basic_string@DU?$char_traits@D@std@@V?$allocator@D@2@@std@@V?$basic_ptree@V?$basic_string@DU?$char_traits@D@std@@V?$allocator@D@2@@std@@V12@U?$less@V?$basic_string@DU?$char_traits@D@std@@V?$allocator@D@2@@std@@@2@@property_tree@boost@@@std@@@2@@234@@detail@multi_index@boost@@@detail@multi_index@boost@@0@Z
	??$?0V?$bidir_node_iterator@U?$sequenced_index_node@U?$ordered_index_node@Unull_augment_policy@detail@multi_index@boost@@U?$index_node_base@U?$pair@$$CBV?$basic_string@DU?$char_traits@D@std@@V?$allocator@D@2@@std@@V?$basic_ptree@V?$basic_string@DU?$char_traits@D@std@@V?$allocator@D@2@@std@@V12@U?$less@V?$basic_string@DU?$char_traits@D@std@@V?$allocator@D@2@@std@@@2@@property_tree@boost@@@std@@V?$allocator@U?$pair@$$CBV?$basic_string@DU?$char_traits@D@std@@V?$allocator@D@2@@std@@V?$basic_ptree@V?$basic_string@DU?$char_traits@D@std@@V?$allocator@D@2@@std@@V12@U?$less@V?$basic_string@DU?$char_traits@D@std@@V?$allocator@D@2@@std@@@2@@property_tree@boost@@@std@@@2@@234@@detail@multi_index@boost@@@detail@multi_index@boost@@@detail@multi_index@boost@@AEA_N$0A@@?$pair@V?$bidir_node_iterator@U?$sequenced_index_node@U?$ordered_index_node@Unull_augment_policy@detail@multi_index@boost@@U?$index_node_base@U?$pair@$$CBV?$basic_string@DU?$char_traits@D@std@@V?$allocator@D@2@@std@@V?$basic_ptree@V?$basic_string@DU?$char_traits@D@std@@V?$allocator@D@2@@std@@V12@U?$less@V?$basic_string@DU?$char_traits@D@std@@V?$allocator@D@2@@std@@@2@@property_tree@boost@@@std@@V?$allocator@U?$pair@$$CBV?$basic_string@DU?$char_traits@D@std@@V?$allocator@D@2@@std@@V?$basic_ptree@V?$basic_string@DU?$char_traits@D@std@@V?$allocator@D@2@@std@@V12@U?$less@V?$basic_string@DU?$char_traits@D@std@@V?$allocator@D@2@@std@@@2@@property_tree@boost@@@std@@@2@@234@@detail@multi_index@boost@@@detail@multi_index@boost@@@detail@multi_index@boost@@_N@std@@QEAA@$$QEAV?$bidir_node_iterator@U?$sequenced_index_node@U?$ordered_index_node@Unull_augment_policy@detail@multi_index@boost@@U?$index_node_base@U?$pair@$$CBV?$basic_string@DU?$char_traits@D@std@@V?$allocator@D@2@@std@@V?$basic_ptree@V?$basic_string@DU?$char_traits@D@std@@V?$allocator@D@2@@std@@V12@U?$less@V?$basic_string@DU?$char_traits@D@std@@V?$allocator@D@2@@std@@@2@@property_tree@boost@@@std@@V?$allocator@U?$pair@$$CBV?$basic_string@DU?$char_traits@D@std@@V?$allocator@D@2@@std@@V?$basic_ptree@V?$basic_string@DU?$char_traits@D@std@@V?$allocator@D@2@@std@@V12@U?$less@V?$basic_string@DU?$char_traits@D@std@@V?$allocator@D@2@@std@@@2@@property_tree@boost@@@std@@@2@@234@@detail@multi_index@boost@@@detail@multi_index@boost@@@detail@multi_index@boost@@AEA_N@Z
	??$?0V?$reverse_iterator@V?$_String_iterator@V?$_String_val@U?$_Simple_types@D@std@@@std@@@std@@@iterators@boost@@@?$iterator_range@V?$reverse_iterator@V?$_String_iterator@V?$_String_val@U?$_Simple_types@D@std@@@std@@@std@@@iterators@boost@@@boost@@QEAA@V?$reverse_iterator@V?$_String_iterator@V?$_String_val@U?$_Simple_types@D@std@@@std@@@std@@@iterators@1@0@Z
	??$?0V?$reverse_iterator@V?$_String_iterator@V?$_String_val@U?$_Simple_types@D@std@@@std@@@std@@@iterators@boost@@@?$iterator_range_base@V?$reverse_iterator@V?$_String_iterator@V?$_String_val@U?$_Simple_types@D@std@@@std@@@std@@@iterators@boost@@Ubidirectional_traversal_tag@23@@iterator_range_detail@boost@@IEAA@V?$reverse_iterator@V?$_String_iterator@V?$_String_val@U?$_Simple_types@D@std@@@std@@@std@@@iterators@2@0@Z
	??$?0V?$reverse_iterator@V?$_String_iterator@V?$_String_val@U?$_Simple_types@D@std@@@std@@@std@@@iterators@boost@@@?$iterator_range_base@V?$reverse_iterator@V?$_String_iterator@V?$_String_val@U?$_Simple_types@D@std@@@std@@@std@@@iterators@boost@@Uincrementable_traversal_tag@23@@iterator_range_detail@boost@@IEAA@V?$reverse_iterator@V?$_String_iterator@V?$_String_val@U?$_Simple_types@D@std@@@std@@@std@@@iterators@2@0@Z
	??$?0V?$reverse_iterator@V?$_String_iterator@V?$_String_val@U?$_Simple_types@D@std@@@std@@@std@@@iterators@boost@@@?$iterator_range_base@V?$reverse_iterator@V?$_String_iterator@V?$_String_val@U?$_Simple_types@D@std@@@std@@@std@@@iterators@boost@@Urandom_access_traversal_tag@23@@iterator_range_detail@boost@@IEAA@V?$reverse_iterator@V?$_String_iterator@V?$_String_val@U?$_Simple_types@D@std@@@std@@@std@@@iterators@2@0@Z
	??$?0V?$reverse_iterator@V?$_Vb_const_iterator@U?$_Wrap_alloc@V?$allocator@I@std@@@std@@@std@@@iterators@boost@@@?$iterator_range@V?$reverse_iterator@V?$_Vb_const_iterator@U?$_Wrap_alloc@V?$allocator@I@std@@@std@@@std@@@iterators@boost@@@boost@@QEAA@V?$reverse_iterator@V?$_Vb_const_iterator@U?$_Wrap_alloc@V?$allocator@I@std@@@std@@@std@@@iterators@1@0@Z
	??$?0V?$reverse_iterator@V?$_Vb_const_iterator@U?$_Wrap_alloc@V?$allocator@I@std@@@std@@@std@@@iterators@boost@@@?$iterator_range_base@V?$reverse_iterator@V?$_Vb_const_iterator@U?$_Wrap_alloc@V?$allocator@I@std@@@std@@@std@@@iterators@boost@@Ubidirectional_traversal_tag@23@@iterator_range_detail@boost@@IEAA@V?$reverse_iterator@V?$_Vb_const_iterator@U?$_Wrap_alloc@V?$allocator@I@std@@@std@@@std@@@iterators@2@0@Z
	??$?0V?$reverse_iterator@V?$_Vb_const_iterator@U?$_Wrap_alloc@V?$allocator@I@std@@@std@@@std@@@iterators@boost@@@?$iterator_range_base@V?$reverse_iterator@V?$_Vb_const_iterator@U?$_Wrap_alloc@V?$allocator@I@std@@@std@@@std@@@iterators@boost@@Uincrementable_traversal_tag@23@@iterator_range_detail@boost@@IEAA@V?$reverse_iterator@V?$_Vb_const_iterator@U?$_Wrap_alloc@V?$allocator@I@std@@@std@@@std@@@iterators@2@0@Z
	??$?0V?$reverse_iterator@V?$_Vb_const_iterator@U?$_Wrap_alloc@V?$allocator@I@std@@@std@@@std@@@iterators@boost@@@?$iterator_range_base@V?$reverse_iterator@V?$_Vb_const_iterator@U?$_Wrap_alloc@V?$allocator@I@std@@@std@@@std@@@iterators@boost@@Urandom_access_traversal_tag@23@@iterator_range_detail@boost@@IEAA@V?$reverse_iterator@V?$_Vb_const_iterator@U?$_Wrap_alloc@V?$allocator@I@std@@@std@@@std@@@iterators@2@0@Z
	??$?0V?$string_path@V?$basic_string@DU?$char_traits@D@std@@V?$allocator@D@2@@std@@U?$id_translator@V?$basic_string@DU?$char_traits@D@std@@V?$allocator@D@2@@std@@@property_tree@boost@@@property_tree@boost@@@any@boost@@QEAA@AEBV?$string_path@V?$basic_string@DU?$char_traits@D@std@@V?$allocator@D@2@@std@@U?$id_translator@V?$basic_string@DU?$char_traits@D@std@@V?$allocator@D@2@@std@@@property_tree@boost@@@property_tree@1@@Z
	??$?0V?$string_path@V?$basic_string@DU?$char_traits@D@std@@V?$allocator@D@2@@std@@U?$id_translator@V?$basic_string@DU?$char_traits@D@std@@V?$allocator@D@2@@std@@@property_tree@boost@@@property_tree@boost@@@ptree_bad_path@property_tree@boost@@QEAA@AEBV?$basic_string@DU?$char_traits@D@std@@V?$allocator@D@2@@std@@AEBV?$string_path@V?$basic_string@DU?$char_traits@D@std@@V?$allocator@D@2@@std@@U?$id_translator@V?$basic_string@DU?$char_traits@D@std@@V?$allocator@D@2@@std@@@property_tree@boost@@@12@@Z
	??$?0V?$transform_iterator@U?$select_first@V?$map@V?$basic_string@DU?$char_traits@D@std@@V?$allocator@D@2@@std@@UArcData@Trellis@@U?$less@V?$basic_string@DU?$char_traits@D@std@@V?$allocator@D@2@@std@@@2@V?$allocator@U?$pair@$$CBV?$basic_string@DU?$char_traits@D@std@@V?$allocator@D@2@@std@@UArcData@Trellis@@@std@@@2@@std@@@range_detail@boost@@V?$_Tree_const_iterator@V?$_Tree_val@U?$_Tree_simple_types@U?$pair@$$CBV?$basic_string@DU?$char_traits@D@std@@V?$allocator@D@2@@std@@UArcData@Trellis@@@std@@@std@@@std@@@std@@Uuse_default@3@U63@@iterators@boost@@@?$iterator_range@V?$transform_iterator@U?$select_first@V?$map@V?$basic_string@DU?$char_traits@D@std@@V?$allocator@D@2@@std@@UArcData@Trellis@@U?$less@V?$basic_string@DU?$char_traits@D@std@@V?$allocator@D@2@@std@@@2@V?$allocator@U?$pair@$$CBV?$basic_string@DU?$char_traits@D@std@@V?$allocator@D@2@@std@@UArcData@Trellis@@@std@@@2@@std@@@range_detail@boost@@V?$_Tree_const_iterator@V?$_Tree_val@U?$_Tree_simple_types@U?$pair@$$CBV?$basic_string@DU?$char_traits@D@std@@V?$allocator@D@2@@std@@UArcData@Trellis@@@std@@@std@@@std@@@std@@Uuse_default@3@U63@@iterators@boost@@@boost@@QEAA@V?$transform_iterator@U?$select_first@V?$map@V?$basic_string@DU?$char_traits@D@std@@V?$allocator@D@2@@std@@UArcData@Trellis@@U?$less@V?$basic_string@DU?$char_traits@D@std@@V?$allocator@D@2@@std@@@2@V?$allocator@U?$pair@$$CBV?$basic_string@DU?$char_traits@D@std@@V?$allocator@D@2@@std@@UArcData@Trellis@@@std@@@2@@std@@@range_detail@boost@@V?$_Tree_const_iterator@V?$_Tree_val@U?$_Tree_simple_types@U?$pair@$$CBV?$basic_string@DU?$char_traits@D@std@@V?$allocator@D@2@@std@@UArcData@Trellis@@@std@@@std@@@std@@@std@@Uuse_default@3@U63@@iterators@1@0@Z
	??$?0V?$transform_iterator@U?$select_first@V?$map@V?$basic_string@DU?$char_traits@D@std@@V?$allocator@D@2@@std@@UArcData@Trellis@@U?$less@V?$basic_string@DU?$char_traits@D@std@@V?$allocator@D@2@@std@@@2@V?$allocator@U?$pair@$$CBV?$basic_string@DU?$char_traits@D@std@@V?$allocator@D@2@@std@@UArcData@Trellis@@@std@@@2@@std@@@range_detail@boost@@V?$_Tree_const_iterator@V?$_Tree_val@U?$_Tree_simple_types@U?$pair@$$CBV?$basic_string@DU?$char_traits@D@std@@V?$allocator@D@2@@std@@UArcData@Trellis@@@std@@@std@@@std@@@std@@Uuse_default@3@U63@@iterators@boost@@@?$iterator_range_base@V?$transform_iterator@U?$select_first@V?$map@V?$basic_string@DU?$char_traits@D@std@@V?$allocator@D@2@@std@@UArcData@Trellis@@U?$less@V?$basic_string@DU?$char_traits@D@std@@V?$allocator@D@2@@std@@@2@V?$allocator@U?$pair@$$CBV?$basic_string@DU?$char_traits@D@std@@V?$allocator@D@2@@std@@UArcData@Trellis@@@std@@@2@@std@@@range_detail@boost@@V?$_Tree_const_iterator@V?$_Tree_val@U?$_Tree_simple_types@U?$pair@$$CBV?$basic_string@DU?$char_traits@D@std@@V?$allocator@D@2@@std@@UArcData@Trellis@@@std@@@std@@@std@@@std@@Uuse_default@3@U63@@iterators@boost@@Ubidirectional_traversal_tag@23@@iterator_range_detail@boost@@IEAA@V?$transform_iterator@U?$select_first@V?$map@V?$basic_string@DU?$char_traits@D@std@@V?$allocator@D@2@@std@@UArcData@Trellis@@U?$less@V?$basic_string@DU?$char_traits@D@std@@V?$allocator@D@2@@std@@@2@V?$allocator@U?$pair@$$CBV?$basic_string@DU?$char_traits@D@std@@V?$allocator@D@2@@std@@UArcData@Trellis@@@std@@@2@@std@@@range_detail@boost@@V?$_Tree_const_iterator@V?$_Tree_val@U?$_Tree_simple_types@U?$pair@$$CBV?$basic_string@DU?$char_traits@D@std@@V?$allocator@D@2@@std@@UArcData@Trellis@@@std@@@std@@@std@@@std@@Uuse_default@3@U63@@iterators@2@0@Z
	??$?0V?$transform_iterator@U?$select_first@V?$map@V?$basic_string@DU?$char_traits@D@std@@V?$allocator@D@2@@std@@UArcData@Trellis@@U?$less@V?$basic_string@DU?$char_traits@D@std@@V?$allocator@D@2@@std@@@2@V?$allocator@U?$pair@$$CBV?$basic_string@DU?$char_traits@D@std@@V?$allocator@D@2@@std@@UArcData@Trellis@@@std@@@2@@std@@@range_detail@boost@@V?$_Tree_const_iterator@V?$_Tree_val@U?$_Tree_simple_types@U?$pair@$$CBV?$basic_string@DU?$char_traits@D@std@@V?$allocator@D@2@@std@@UArcData@Trellis@@@std@@@std@@@std@@@std@@Uuse_default@3@U63@@iterators@boost@@@?$iterator_range_base@V?$transform_iterator@U?$select_first@V?$map@V?$basic_string@DU?$char_traits@D@std@@V?$allocator@D@2@@std@@UArcData@Trellis@@U?$less@V?$basic_string@DU?$char_traits@D@std@@V?$allocator@D@2@@std@@@2@V?$allocator@U?$pair@$$CBV?$basic_string@DU?$char_traits@D@std@@V?$allocator@D@2@@std@@UArcData@Trellis@@@std@@@2@@std@@@range_detail@boost@@V?$_Tree_const_iterator@V?$_Tree_val@U?$_Tree_simple_types@U?$pair@$$CBV?$basic_string@DU?$char_traits@D@std@@V?$allocator@D@2@@std@@UArcData@Trellis@@@std@@@std@@@std@@@std@@Uuse_default@3@U63@@iterators@boost@@Uincrementable_traversal_tag@23@@iterator_range_detail@boost@@IEAA@V?$transform_iterator@U?$select_first@V?$map@V?$basic_string@DU?$char_traits@D@std@@V?$allocator@D@2@@std@@UArcData@Trellis@@U?$less@V?$basic_string@DU?$char_traits@D@std@@V?$allocator@D@2@@std@@@2@V?$allocator@U?$pair@$$CBV?$basic_string@DU?$char_traits@D@std@@V?$allocator@D@2@@std@@UArcData@Trellis@@@std@@@2@@std@@@range_detail@boost@@V?$_Tree_const_iterator@V?$_Tree_val@U?$_Tree_simple_types@U?$pair@$$CBV?$basic_string@DU?$char_traits@D@std@@V?$allocator@D@2@@std@@UArcData@Trellis@@@std@@@std@@@std@@@std@@Uuse_default@3@U63@@iterators@2@0@Z
	??$?0V?$transform_iterator@U?$select_first@V?$map@V?$basic_string@DU?$char_traits@D@std@@V?$allocator@D@2@@std@@UBitGroup@Trellis@@U?$less@V?$basic_string@DU?$char_traits@D@std@@V?$allocator@D@2@@std@@@2@V?$allocator@U?$pair@$$CBV?$basic_string@DU?$char_traits@D@std@@V?$allocator@D@2@@std@@UBitGroup@Trellis@@@std@@@2@@std@@@range_detail@boost@@V?$_Tree_const_iterator@V?$_Tree_val@U?$_Tree_simple_types@U?$pair@$$CBV?$basic_string@DU?$char_traits@D@std@@V?$allocator@D@2@@std@@UBitGroup@Trellis@@@std@@@std@@@std@@@std@@Uuse_default@3@U63@@iterators@boost@@@?$iterator_range@V?$transform_iterator@U?$select_first@V?$map@V?$basic_string@DU?$char_traits@D@std@@V?$allocator@D@2@@std@@UBitGroup@Trellis@@U?$less@V?$basic_string@DU?$char_traits@D@std@@V?$allocator@D@2@@std@@@2@V?$allocator@U?$pair@$$CBV?$basic_string@DU?$char_traits@D@std@@V?$allocator@D@2@@std@@UBitGroup@Trellis@@@std@@@2@@std@@@range_detail@boost@@V?$_Tree_const_iterator@V?$_Tree_val@U?$_Tree_simple_types@U?$pair@$$CBV?$basic_string@DU?$char_traits@D@std@@V?$allocator@D@2@@std@@UBitGroup@Trellis@@@std@@@std@@@std@@@std@@Uuse_default@3@U63@@iterators@boost@@@boost@@QEAA@V?$transform_iterator@U?$select_first@V?$map@V?$basic_string@DU?$char_traits@D@std@@V?$allocator@D@2@@std@@UBitGroup@Trellis@@U?$less@V?$basic_string@DU?$char_traits@D@std@@V?$allocator@D@2@@std@@@2@V?$allocator@U?$pair@$$CBV?$basic_string@DU?$char_traits@D@std@@V?$allocator@D@2@@std@@UBitGroup@Trellis@@@std@@@2@@std@@@range_detail@boost@@V?$_Tree_const_iterator@V?$_Tree_val@U?$_Tree_simple_types@U?$pair@$$CBV?$basic_string@DU?$char_traits@D@std@@V?$allocator@D@2@@std@@UBitGroup@Trellis@@@std@@@std@@@std@@@std@@Uuse_default@3@U63@@iterators@1@0@Z
	??$?0V?$transform_iterator@U?$select_first@V?$map@V?$basic_string@DU?$char_traits@D@std@@V?$allocator@D@2@@std@@UBitGroup@Trellis@@U?$less@V?$basic_string@DU?$char_traits@D@std@@V?$allocator@D@2@@std@@@2@V?$allocator@U?$pair@$$CBV?$basic_string@DU?$char_traits@D@std@@V?$allocator@D@2@@std@@UBitGroup@Trellis@@@std@@@2@@std@@@range_detail@boost@@V?$_Tree_const_iterator@V?$_Tree_val@U?$_Tree_simple_types@U?$pair@$$CBV?$basic_string@DU?$char_traits@D@std@@V?$allocator@D@2@@std@@UBitGroup@Trellis@@@std@@@std@@@std@@@std@@Uuse_default@3@U63@@iterators@boost@@@?$iterator_range_base@V?$transform_iterator@U?$select_first@V?$map@V?$basic_string@DU?$char_traits@D@std@@V?$allocator@D@2@@std@@UBitGroup@Trellis@@U?$less@V?$basic_string@DU?$char_traits@D@std@@V?$allocator@D@2@@std@@@2@V?$allocator@U?$pair@$$CBV?$basic_string@DU?$char_traits@D@std@@V?$allocator@D@2@@std@@UBitGroup@Trellis@@@std@@@2@@std@@@range_detail@boost@@V?$_Tree_const_iterator@V?$_Tree_val@U?$_Tree_simple_types@U?$pair@$$CBV?$basic_string@DU?$char_traits@D@std@@V?$allocator@D@2@@std@@UBitGroup@Trellis@@@std@@@std@@@std@@@std@@Uuse_default@3@U63@@iterators@boost@@Ubidirectional_traversal_tag@23@@iterator_range_detail@boost@@IEAA@V?$transform_iterator@U?$select_first@V?$map@V?$basic_string@DU?$char_traits@D@std@@V?$allocator@D@2@@std@@UBitGroup@Trellis@@U?$less@V?$basic_string@DU?$char_traits@D@std@@V?$allocator@D@2@@std@@@2@V?$allocator@U?$pair@$$CBV?$basic_string@DU?$char_traits@D@std@@V?$allocator@D@2@@std@@UBitGroup@Trellis@@@std@@@2@@std@@@range_detail@boost@@V?$_Tree_const_iterator@V?$_Tree_val@U?$_Tree_simple_types@U?$pair@$$CBV?$basic_string@DU?$char_traits@D@std@@V?$allocator@D@2@@std@@UBitGroup@Trellis@@@std@@@std@@@std@@@std@@Uuse_default@3@U63@@iterators@2@0@Z
	??$?0V?$transform_iterator@U?$select_first@V?$map@V?$basic_string@DU?$char_traits@D@std@@V?$allocator@D@2@@std@@UBitGroup@Trellis@@U?$less@V?$basic_string@DU?$char_traits@D@std@@V?$allocator@D@2@@std@@@2@V?$allocator@U?$pair@$$CBV?$basic_string@DU?$char_traits@D@std@@V?$allocator@D@2@@std@@UBitGroup@Trellis@@@std@@@2@@std@@@range_detail@boost@@V?$_Tree_const_iterator@V?$_Tree_val@U?$_Tree_simple_types@U?$pair@$$CBV?$basic_string@DU?$char_traits@D@std@@V?$allocator@D@2@@std@@UBitGroup@Trellis@@@std@@@std@@@std@@@std@@Uuse_default@3@U63@@iterators@boost@@@?$iterator_range_base@V?$transform_iterator@U?$select_first@V?$map@V?$basic_string@DU?$char_traits@D@std@@V?$allocator@D@2@@std@@UBitGroup@Trellis@@U?$less@V?$basic_string@DU?$char_traits@D@std@@V?$allocator@D@2@@std@@@2@V?$allocator@U?$pair@$$CBV?$basic_string@DU?$char_traits@D@std@@V?$allocator@D@2@@std@@UBitGroup@Trellis@@@std@@@2@@std@@@range_detail@boost@@V?$_Tree_const_iterator@V?$_Tree_val@U?$_Tree_simple_types@U?$pair@$$CBV?$basic_string@DU?$char_traits@D@std@@V?$allocator@D@2@@std@@UBitGroup@Trellis@@@std@@@std@@@std@@@std@@Uuse_default@3@U63@@iterators@boost@@Uincrementable_traversal_tag@23@@iterator_range_detail@boost@@IEAA@V?$transform_iterator@U?$select_first@V?$map@V?$basic_string@DU?$char_traits@D@std@@V?$allocator@D@2@@std@@UBitGroup@Trellis@@U?$less@V?$basic_string@DU?$char_traits@D@std@@V?$allocator@D@2@@std@@@2@V?$allocator@U?$pair@$$CBV?$basic_string@DU?$char_traits@D@std@@V?$allocator@D@2@@std@@UBitGroup@Trellis@@@std@@@2@@std@@@range_detail@boost@@V?$_Tree_const_iterator@V?$_Tree_val@U?$_Tree_simple_types@U?$pair@$$CBV?$basic_string@DU?$char_traits@D@std@@V?$allocator@D@2@@std@@UBitGroup@Trellis@@@std@@@std@@@std@@@std@@Uuse_default@3@U63@@iterators@2@0@Z
	??$?0V?$transform_iterator@U?$select_first@V?$map@V?$basic_string@DU?$char_traits@D@std@@V?$allocator@D@2@@std@@UEnumSettingBits@Trellis@@U?$less@V?$basic_string@DU?$char_traits@D@std@@V?$allocator@D@2@@std@@@2@V?$allocator@U?$pair@$$CBV?$basic_string@DU?$char_traits@D@std@@V?$allocator@D@2@@std@@UEnumSettingBits@Trellis@@@std@@@2@@std@@@range_detail@boost@@V?$_Tree_const_iterator@V?$_Tree_val@U?$_Tree_simple_types@U?$pair@$$CBV?$basic_string@DU?$char_traits@D@std@@V?$allocator@D@2@@std@@UEnumSettingBits@Trellis@@@std@@@std@@@std@@@std@@Uuse_default@3@U63@@iterators@boost@@@?$iterator_range@V?$transform_iterator@U?$select_first@V?$map@V?$basic_string@DU?$char_traits@D@std@@V?$allocator@D@2@@std@@UEnumSettingBits@Trellis@@U?$less@V?$basic_string@DU?$char_traits@D@std@@V?$allocator@D@2@@std@@@2@V?$allocator@U?$pair@$$CBV?$basic_string@DU?$char_traits@D@std@@V?$allocator@D@2@@std@@UEnumSettingBits@Trellis@@@std@@@2@@std@@@range_detail@boost@@V?$_Tree_const_iterator@V?$_Tree_val@U?$_Tree_simple_types@U?$pair@$$CBV?$basic_string@DU?$char_traits@D@std@@V?$allocator@D@2@@std@@UEnumSettingBits@Trellis@@@std@@@std@@@std@@@std@@Uuse_default@3@U63@@iterators@boost@@@boost@@QEAA@V?$transform_iterator@U?$select_first@V?$map@V?$basic_string@DU?$char_traits@D@std@@V?$allocator@D@2@@std@@UEnumSettingBits@Trellis@@U?$less@V?$basic_string@DU?$char_traits@D@std@@V?$allocator@D@2@@std@@@2@V?$allocator@U?$pair@$$CBV?$basic_string@DU?$char_traits@D@std@@V?$allocator@D@2@@std@@UEnumSettingBits@Trellis@@@std@@@2@@std@@@range_detail@boost@@V?$_Tree_const_iterator@V?$_Tree_val@U?$_Tree_simple_types@U?$pair@$$CBV?$basic_string@DU?$char_traits@D@std@@V?$allocator@D@2@@std@@UEnumSettingBits@Trellis@@@std@@@std@@@std@@@std@@Uuse_default@3@U63@@iterators@1@0@Z
	??$?0V?$transform_iterator@U?$select_first@V?$map@V?$basic_string@DU?$char_traits@D@std@@V?$allocator@D@2@@std@@UEnumSettingBits@Trellis@@U?$less@V?$basic_string@DU?$char_traits@D@std@@V?$allocator@D@2@@std@@@2@V?$allocator@U?$pair@$$CBV?$basic_string@DU?$char_traits@D@std@@V?$allocator@D@2@@std@@UEnumSettingBits@Trellis@@@std@@@2@@std@@@range_detail@boost@@V?$_Tree_const_iterator@V?$_Tree_val@U?$_Tree_simple_types@U?$pair@$$CBV?$basic_string@DU?$char_traits@D@std@@V?$allocator@D@2@@std@@UEnumSettingBits@Trellis@@@std@@@std@@@std@@@std@@Uuse_default@3@U63@@iterators@boost@@@?$iterator_range_base@V?$transform_iterator@U?$select_first@V?$map@V?$basic_string@DU?$char_traits@D@std@@V?$allocator@D@2@@std@@UEnumSettingBits@Trellis@@U?$less@V?$basic_string@DU?$char_traits@D@std@@V?$allocator@D@2@@std@@@2@V?$allocator@U?$pair@$$CBV?$basic_string@DU?$char_traits@D@std@@V?$allocator@D@2@@std@@UEnumSettingBits@Trellis@@@std@@@2@@std@@@range_detail@boost@@V?$_Tree_const_iterator@V?$_Tree_val@U?$_Tree_simple_types@U?$pair@$$CBV?$basic_string@DU?$char_traits@D@std@@V?$allocator@D@2@@std@@UEnumSettingBits@Trellis@@@std@@@std@@@std@@@std@@Uuse_default@3@U63@@iterators@boost@@Ubidirectional_traversal_tag@23@@iterator_range_detail@boost@@IEAA@V?$transform_iterator@U?$select_first@V?$map@V?$basic_string@DU?$char_traits@D@std@@V?$allocator@D@2@@std@@UEnumSettingBits@Trellis@@U?$less@V?$basic_string@DU?$char_traits@D@std@@V?$allocator@D@2@@std@@@2@V?$allocator@U?$pair@$$CBV?$basic_string@DU?$char_traits@D@std@@V?$allocator@D@2@@std@@UEnumSettingBits@Trellis@@@std@@@2@@std@@@range_detail@boost@@V?$_Tree_const_iterator@V?$_Tree_val@U?$_Tree_simple_types@U?$pair@$$CBV?$basic_string@DU?$char_traits@D@std@@V?$allocator@D@2@@std@@UEnumSettingBits@Trellis@@@std@@@std@@@std@@@std@@Uuse_default@3@U63@@iterators@2@0@Z
	??$?0V?$transform_iterator@U?$select_first@V?$map@V?$basic_string@DU?$char_traits@D@std@@V?$allocator@D@2@@std@@UEnumSettingBits@Trellis@@U?$less@V?$basic_string@DU?$char_traits@D@std@@V?$allocator@D@2@@std@@@2@V?$allocator@U?$pair@$$CBV?$basic_string@DU?$char_traits@D@std@@V?$allocator@D@2@@std@@UEnumSettingBits@Trellis@@@std@@@2@@std@@@range_detail@boost@@V?$_Tree_const_iterator@V?$_Tree_val@U?$_Tree_simple_types@U?$pair@$$CBV?$basic_string@DU?$char_traits@D@std@@V?$allocator@D@2@@std@@UEnumSettingBits@Trellis@@@std@@@std@@@std@@@std@@Uuse_default@3@U63@@iterators@boost@@@?$iterator_range_base@V?$transform_iterator@U?$select_first@V?$map@V?$basic_string@DU?$char_traits@D@std@@V?$allocator@D@2@@std@@UEnumSettingBits@Trellis@@U?$less@V?$basic_string@DU?$char_traits@D@std@@V?$allocator@D@2@@std@@@2@V?$allocator@U?$pair@$$CBV?$basic_string@DU?$char_traits@D@std@@V?$allocator@D@2@@std@@UEnumSettingBits@Trellis@@@std@@@2@@std@@@range_detail@boost@@V?$_Tree_const_iterator@V?$_Tree_val@U?$_Tree_simple_types@U?$pair@$$CBV?$basic_string@DU?$char_traits@D@std@@V?$allocator@D@2@@std@@UEnumSettingBits@Trellis@@@std@@@std@@@std@@@std@@Uuse_default@3@U63@@iterators@boost@@Uincrementable_traversal_tag@23@@iterator_range_detail@boost@@IEAA@V?$transform_iterator@U?$select_first@V?$map@V?$basic_string@DU?$char_traits@D@std@@V?$allocator@D@2@@std@@UEnumSettingBits@Trellis@@U?$less@V?$basic_string@DU?$char_traits@D@std@@V?$allocator@D@2@@std@@@2@V?$allocator@U?$pair@$$CBV?$basic_string@DU?$char_traits@D@std@@V?$allocator@D@2@@std@@UEnumSettingBits@Trellis@@@std@@@2@@std@@@range_detail@boost@@V?$_Tree_const_iterator@V?$_Tree_val@U?$_Tree_simple_types@U?$pair@$$CBV?$basic_string@DU?$char_traits@D@std@@V?$allocator@D@2@@std@@UEnumSettingBits@Trellis@@@std@@@std@@@std@@@std@@Uuse_default@3@U63@@iterators@2@0@Z
	??$?0V?$transform_iterator@U?$select_first@V?$map@V?$basic_string@DU?$char_traits@D@std@@V?$allocator@D@2@@std@@UMuxBits@Trellis@@U?$less@V?$basic_string@DU?$char_traits@D@std@@V?$allocator@D@2@@std@@@2@V?$allocator@U?$pair@$$CBV?$basic_string@DU?$char_traits@D@std@@V?$allocator@D@2@@std@@UMuxBits@Trellis@@@std@@@2@@std@@@range_detail@boost@@V?$_Tree_const_iterator@V?$_Tree_val@U?$_Tree_simple_types@U?$pair@$$CBV?$basic_string@DU?$char_traits@D@std@@V?$allocator@D@2@@std@@UMuxBits@Trellis@@@std@@@std@@@std@@@std@@Uuse_default@3@U63@@iterators@boost@@@?$iterator_range@V?$transform_iterator@U?$select_first@V?$map@V?$basic_string@DU?$char_traits@D@std@@V?$allocator@D@2@@std@@UMuxBits@Trellis@@U?$less@V?$basic_string@DU?$char_traits@D@std@@V?$allocator@D@2@@std@@@2@V?$allocator@U?$pair@$$CBV?$basic_string@DU?$char_traits@D@std@@V?$allocator@D@2@@std@@UMuxBits@Trellis@@@std@@@2@@std@@@range_detail@boost@@V?$_Tree_const_iterator@V?$_Tree_val@U?$_Tree_simple_types@U?$pair@$$CBV?$basic_string@DU?$char_traits@D@std@@V?$allocator@D@2@@std@@UMuxBits@Trellis@@@std@@@std@@@std@@@std@@Uuse_default@3@U63@@iterators@boost@@@boost@@QEAA@V?$transform_iterator@U?$select_first@V?$map@V?$basic_string@DU?$char_traits@D@std@@V?$allocator@D@2@@std@@UMuxBits@Trellis@@U?$less@V?$basic_string@DU?$char_traits@D@std@@V?$allocator@D@2@@std@@@2@V?$allocator@U?$pair@$$CBV?$basic_string@DU?$char_traits@D@std@@V?$allocator@D@2@@std@@UMuxBits@Trellis@@@std@@@2@@std@@@range_detail@boost@@V?$_Tree_const_iterator@V?$_Tree_val@U?$_Tree_simple_types@U?$pair@$$CBV?$basic_string@DU?$char_traits@D@std@@V?$allocator@D@2@@std@@UMuxBits@Trellis@@@std@@@std@@@std@@@std@@Uuse_default@3@U63@@iterators@1@0@Z
	??$?0V?$transform_iterator@U?$select_first@V?$map@V?$basic_string@DU?$char_traits@D@std@@V?$allocator@D@2@@std@@UMuxBits@Trellis@@U?$less@V?$basic_string@DU?$char_traits@D@std@@V?$allocator@D@2@@std@@@2@V?$allocator@U?$pair@$$CBV?$basic_string@DU?$char_traits@D@std@@V?$allocator@D@2@@std@@UMuxBits@Trellis@@@std@@@2@@std@@@range_detail@boost@@V?$_Tree_const_iterator@V?$_Tree_val@U?$_Tree_simple_types@U?$pair@$$CBV?$basic_string@DU?$char_traits@D@std@@V?$allocator@D@2@@std@@UMuxBits@Trellis@@@std@@@std@@@std@@@std@@Uuse_default@3@U63@@iterators@boost@@@?$iterator_range_base@V?$transform_iterator@U?$select_first@V?$map@V?$basic_string@DU?$char_traits@D@std@@V?$allocator@D@2@@std@@UMuxBits@Trellis@@U?$less@V?$basic_string@DU?$char_traits@D@std@@V?$allocator@D@2@@std@@@2@V?$allocator@U?$pair@$$CBV?$basic_string@DU?$char_traits@D@std@@V?$allocator@D@2@@std@@UMuxBits@Trellis@@@std@@@2@@std@@@range_detail@boost@@V?$_Tree_const_iterator@V?$_Tree_val@U?$_Tree_simple_types@U?$pair@$$CBV?$basic_string@DU?$char_traits@D@std@@V?$allocator@D@2@@std@@UMuxBits@Trellis@@@std@@@std@@@std@@@std@@Uuse_default@3@U63@@iterators@boost@@Ubidirectional_traversal_tag@23@@iterator_range_detail@boost@@IEAA@V?$transform_iterator@U?$select_first@V?$map@V?$basic_string@DU?$char_traits@D@std@@V?$allocator@D@2@@std@@UMuxBits@Trellis@@U?$less@V?$basic_string@DU?$char_traits@D@std@@V?$allocator@D@2@@std@@@2@V?$allocator@U?$pair@$$CBV?$basic_string@DU?$char_traits@D@std@@V?$allocator@D@2@@std@@UMuxBits@Trellis@@@std@@@2@@std@@@range_detail@boost@@V?$_Tree_const_iterator@V?$_Tree_val@U?$_Tree_simple_types@U?$pair@$$CBV?$basic_string@DU?$char_traits@D@std@@V?$allocator@D@2@@std@@UMuxBits@Trellis@@@std@@@std@@@std@@@std@@Uuse_default@3@U63@@iterators@2@0@Z
	??$?0V?$transform_iterator@U?$select_first@V?$map@V?$basic_string@DU?$char_traits@D@std@@V?$allocator@D@2@@std@@UMuxBits@Trellis@@U?$less@V?$basic_string@DU?$char_traits@D@std@@V?$allocator@D@2@@std@@@2@V?$allocator@U?$pair@$$CBV?$basic_string@DU?$char_traits@D@std@@V?$allocator@D@2@@std@@UMuxBits@Trellis@@@std@@@2@@std@@@range_detail@boost@@V?$_Tree_const_iterator@V?$_Tree_val@U?$_Tree_simple_types@U?$pair@$$CBV?$basic_string@DU?$char_traits@D@std@@V?$allocator@D@2@@std@@UMuxBits@Trellis@@@std@@@std@@@std@@@std@@Uuse_default@3@U63@@iterators@boost@@@?$iterator_range_base@V?$transform_iterator@U?$select_first@V?$map@V?$basic_string@DU?$char_traits@D@std@@V?$allocator@D@2@@std@@UMuxBits@Trellis@@U?$less@V?$basic_string@DU?$char_traits@D@std@@V?$allocator@D@2@@std@@@2@V?$allocator@U?$pair@$$CBV?$basic_string@DU?$char_traits@D@std@@V?$allocator@D@2@@std@@UMuxBits@Trellis@@@std@@@2@@std@@@range_detail@boost@@V?$_Tree_const_iterator@V?$_Tree_val@U?$_Tree_simple_types@U?$pair@$$CBV?$basic_string@DU?$char_traits@D@std@@V?$allocator@D@2@@std@@UMuxBits@Trellis@@@std@@@std@@@std@@@std@@Uuse_default@3@U63@@iterators@boost@@Uincrementable_traversal_tag@23@@iterator_range_detail@boost@@IEAA@V?$transform_iterator@U?$select_first@V?$map@V?$basic_string@DU?$char_traits@D@std@@V?$allocator@D@2@@std@@UMuxBits@Trellis@@U?$less@V?$basic_string@DU?$char_traits@D@std@@V?$allocator@D@2@@std@@@2@V?$allocator@U?$pair@$$CBV?$basic_string@DU?$char_traits@D@std@@V?$allocator@D@2@@std@@UMuxBits@Trellis@@@std@@@2@@std@@@range_detail@boost@@V?$_Tree_const_iterator@V?$_Tree_val@U?$_Tree_simple_types@U?$pair@$$CBV?$basic_string@DU?$char_traits@D@std@@V?$allocator@D@2@@std@@UMuxBits@Trellis@@@std@@@std@@@std@@@std@@Uuse_default@3@U63@@iterators@2@0@Z
	??$?0V?$transform_iterator@U?$select_first@V?$map@V?$basic_string@DU?$char_traits@D@std@@V?$allocator@D@2@@std@@UWordSettingBits@Trellis@@U?$less@V?$basic_string@DU?$char_traits@D@std@@V?$allocator@D@2@@std@@@2@V?$allocator@U?$pair@$$CBV?$basic_string@DU?$char_traits@D@std@@V?$allocator@D@2@@std@@UWordSettingBits@Trellis@@@std@@@2@@std@@@range_detail@boost@@V?$_Tree_const_iterator@V?$_Tree_val@U?$_Tree_simple_types@U?$pair@$$CBV?$basic_string@DU?$char_traits@D@std@@V?$allocator@D@2@@std@@UWordSettingBits@Trellis@@@std@@@std@@@std@@@std@@Uuse_default@3@U63@@iterators@boost@@@?$iterator_range@V?$transform_iterator@U?$select_first@V?$map@V?$basic_string@DU?$char_traits@D@std@@V?$allocator@D@2@@std@@UWordSettingBits@Trellis@@U?$less@V?$basic_string@DU?$char_traits@D@std@@V?$allocator@D@2@@std@@@2@V?$allocator@U?$pair@$$CBV?$basic_string@DU?$char_traits@D@std@@V?$allocator@D@2@@std@@UWordSettingBits@Trellis@@@std@@@2@@std@@@range_detail@boost@@V?$_Tree_const_iterator@V?$_Tree_val@U?$_Tree_simple_types@U?$pair@$$CBV?$basic_string@DU?$char_traits@D@std@@V?$allocator@D@2@@std@@UWordSettingBits@Trellis@@@std@@@std@@@std@@@std@@Uuse_default@3@U63@@iterators@boost@@@boost@@QEAA@V?$transform_iterator@U?$select_first@V?$map@V?$basic_string@DU?$char_traits@D@std@@V?$allocator@D@2@@std@@UWordSettingBits@Trellis@@U?$less@V?$basic_string@DU?$char_traits@D@std@@V?$allocator@D@2@@std@@@2@V?$allocator@U?$pair@$$CBV?$basic_string@DU?$char_traits@D@std@@V?$allocator@D@2@@std@@UWordSettingBits@Trellis@@@std@@@2@@std@@@range_detail@boost@@V?$_Tree_const_iterator@V?$_Tree_val@U?$_Tree_simple_types@U?$pair@$$CBV?$basic_string@DU?$char_traits@D@std@@V?$allocator@D@2@@std@@UWordSettingBits@Trellis@@@std@@@std@@@std@@@std@@Uuse_default@3@U63@@iterators@1@0@Z
	??$?0V?$transform_iterator@U?$select_first@V?$map@V?$basic_string@DU?$char_traits@D@std@@V?$allocator@D@2@@std@@UWordSettingBits@Trellis@@U?$less@V?$basic_string@DU?$char_traits@D@std@@V?$allocator@D@2@@std@@@2@V?$allocator@U?$pair@$$CBV?$basic_string@DU?$char_traits@D@std@@V?$allocator@D@2@@std@@UWordSettingBits@Trellis@@@std@@@2@@std@@@range_detail@boost@@V?$_Tree_const_iterator@V?$_Tree_val@U?$_Tree_simple_types@U?$pair@$$CBV?$basic_string@DU?$char_traits@D@std@@V?$allocator@D@2@@std@@UWordSettingBits@Trellis@@@std@@@std@@@std@@@std@@Uuse_default@3@U63@@iterators@boost@@@?$iterator_range_base@V?$transform_iterator@U?$select_first@V?$map@V?$basic_string@DU?$char_traits@D@std@@V?$allocator@D@2@@std@@UWordSettingBits@Trellis@@U?$less@V?$basic_string@DU?$char_traits@D@std@@V?$allocator@D@2@@std@@@2@V?$allocator@U?$pair@$$CBV?$basic_string@DU?$char_traits@D@std@@V?$allocator@D@2@@std@@UWordSettingBits@Trellis@@@std@@@2@@std@@@range_detail@boost@@V?$_Tree_const_iterator@V?$_Tree_val@U?$_Tree_simple_types@U?$pair@$$CBV?$basic_string@DU?$char_traits@D@std@@V?$allocator@D@2@@std@@UWordSettingBits@Trellis@@@std@@@std@@@std@@@std@@Uuse_default@3@U63@@iterators@boost@@Ubidirectional_traversal_tag@23@@iterator_range_detail@boost@@IEAA@V?$transform_iterator@U?$select_first@V?$map@V?$basic_string@DU?$char_traits@D@std@@V?$allocator@D@2@@std@@UWordSettingBits@Trellis@@U?$less@V?$basic_string@DU?$char_traits@D@std@@V?$allocator@D@2@@std@@@2@V?$allocator@U?$pair@$$CBV?$basic_string@DU?$char_traits@D@std@@V?$allocator@D@2@@std@@UWordSettingBits@Trellis@@@std@@@2@@std@@@range_detail@boost@@V?$_Tree_const_iterator@V?$_Tree_val@U?$_Tree_simple_types@U?$pair@$$CBV?$basic_string@DU?$char_traits@D@std@@V?$allocator@D@2@@std@@UWordSettingBits@Trellis@@@std@@@std@@@std@@@std@@Uuse_default@3@U63@@iterators@2@0@Z
	??$?0V?$transform_iterator@U?$select_first@V?$map@V?$basic_string@DU?$char_traits@D@std@@V?$allocator@D@2@@std@@UWordSettingBits@Trellis@@U?$less@V?$basic_string@DU?$char_traits@D@std@@V?$allocator@D@2@@std@@@2@V?$allocator@U?$pair@$$CBV?$basic_string@DU?$char_traits@D@std@@V?$allocator@D@2@@std@@UWordSettingBits@Trellis@@@std@@@2@@std@@@range_detail@boost@@V?$_Tree_const_iterator@V?$_Tree_val@U?$_Tree_simple_types@U?$pair@$$CBV?$basic_string@DU?$char_traits@D@std@@V?$allocator@D@2@@std@@UWordSettingBits@Trellis@@@std@@@std@@@std@@@std@@Uuse_default@3@U63@@iterators@boost@@@?$iterator_range_base@V?$transform_iterator@U?$select_first@V?$map@V?$basic_string@DU?$char_traits@D@std@@V?$allocator@D@2@@std@@UWordSettingBits@Trellis@@U?$less@V?$basic_string@DU?$char_traits@D@std@@V?$allocator@D@2@@std@@@2@V?$allocator@U?$pair@$$CBV?$basic_string@DU?$char_traits@D@std@@V?$allocator@D@2@@std@@UWordSettingBits@Trellis@@@std@@@2@@std@@@range_detail@boost@@V?$_Tree_const_iterator@V?$_Tree_val@U?$_Tree_simple_types@U?$pair@$$CBV?$basic_string@DU?$char_traits@D@std@@V?$allocator@D@2@@std@@UWordSettingBits@Trellis@@@std@@@std@@@std@@@std@@Uuse_default@3@U63@@iterators@boost@@Uincrementable_traversal_tag@23@@iterator_range_detail@boost@@IEAA@V?$transform_iterator@U?$select_first@V?$map@V?$basic_string@DU?$char_traits@D@std@@V?$allocator@D@2@@std@@UWordSettingBits@Trellis@@U?$less@V?$basic_string@DU?$char_traits@D@std@@V?$allocator@D@2@@std@@@2@V?$allocator@U?$pair@$$CBV?$basic_string@DU?$char_traits@D@std@@V?$allocator@D@2@@std@@UWordSettingBits@Trellis@@@std@@@2@@std@@@range_detail@boost@@V?$_Tree_const_iterator@V?$_Tree_val@U?$_Tree_simple_types@U?$pair@$$CBV?$basic_string@DU?$char_traits@D@std@@V?$allocator@D@2@@std@@UWordSettingBits@Trellis@@@std@@@std@@@std@@@std@@Uuse_default@3@U63@@iterators@2@0@Z
	??$?0V?$tuple@$$QEAU?$pair@HH@std@@@std@@V?$tuple@$$V@1@$0A@$$Z$S@?$pair@$$CBU?$pair@HH@std@@H@std@@AEAA@AEAV?$tuple@$$QEAU?$pair@HH@std@@@1@AEAV?$tuple@$$V@1@U?$integer_sequence@_K$0A@@1@U?$integer_sequence@_K$S@1@@Z
	??$?0V?$tuple@$$QEAU?$pair@HH@std@@@std@@V?$tuple@$$V@1@$0A@$$Z$S@?$pair@$$CBU?$pair@HH@std@@U12@@std@@AEAA@AEAV?$tuple@$$QEAU?$pair@HH@std@@@1@AEAV?$tuple@$$V@1@U?$integer_sequence@_K$0A@@1@U?$integer_sequence@_K$S@1@@Z
	??$?0V?$tuple@$$QEAU?$pair@HH@std@@@std@@V?$tuple@$$V@1@$0A@$$Z$S@?$pair@$$CBU?$pair@HH@std@@V?$vector@USpineInfo@Trellis@@V?$allocator@USpineInfo@Trellis@@@std@@@2@@std@@AEAA@AEAV?$tuple@$$QEAU?$pair@HH@std@@@1@AEAV?$tuple@$$V@1@U?$integer_sequence@_K$0A@@1@U?$integer_sequence@_K$S@1@@Z
	??$?0V?$tuple@AEBG@std@@V?$tuple@$$V@1@$0A@$$Z$S@?$pair@$$CBGV?$vector@GV?$allocator@G@std@@@std@@@std@@AEAA@AEAV?$tuple@AEBG@1@AEAV?$tuple@$$V@1@U?$integer_sequence@_K$0A@@1@U?$integer_sequence@_K$S@1@@Z
	??$?0V?$tuple@AEBH@std@@V?$tuple@$$V@1@$0A@$$Z$S@?$pair@$$CBHU?$pair@URoutingId@Trellis@@W4PortDirection@2@@std@@@std@@AEAA@AEAV?$tuple@AEBH@1@AEAV?$tuple@$$V@1@U?$integer_sequence@_K$0A@@1@U?$integer_sequence@_K$S@1@@Z
	??$?0V?$tuple@AEBH@std@@V?$tuple@$$V@1@$0A@$$Z$S@?$pair@$$CBHURoutingArc@Trellis@@@std@@AEAA@AEAV?$tuple@AEBH@1@AEAV?$tuple@$$V@1@U?$integer_sequence@_K$0A@@1@U?$integer_sequence@_K$S@1@@Z
	??$?0V?$tuple@AEBH@std@@V?$tuple@$$V@1@$0A@$$Z$S@?$pair@$$CBHURoutingBel@Trellis@@@std@@AEAA@AEAV?$tuple@AEBH@1@AEAV?$tuple@$$V@1@U?$integer_sequence@_K$0A@@1@U?$integer_sequence@_K$S@1@@Z
	??$?0V?$tuple@AEBH@std@@V?$tuple@$$V@1@$0A@$$Z$S@?$pair@$$CBHURoutingWire@Trellis@@@std@@AEAA@AEAV?$tuple@AEBH@1@AEAV?$tuple@$$V@1@U?$integer_sequence@_K$0A@@1@U?$integer_sequence@_K$S@1@@Z
	??$?0V?$tuple@AEBU?$pair@HH@std@@@std@@V?$tuple@$$V@1@$0A@$$Z$S@?$pair@$$CBU?$pair@HH@std@@H@std@@AEAA@AEAV?$tuple@AEBU?$pair@HH@std@@@1@AEAV?$tuple@$$V@1@U?$integer_sequence@_K$0A@@1@U?$integer_sequence@_K$S@1@@Z
	??$?0V?$tuple@AEBU?$pair@HH@std@@@std@@V?$tuple@$$V@1@$0A@$$Z$S@?$pair@$$CBU?$pair@HH@std@@U12@@std@@AEAA@AEAV?$tuple@AEBU?$pair@HH@std@@@1@AEAV?$tuple@$$V@1@U?$integer_sequence@_K$0A@@1@U?$integer_sequence@_K$S@1@@Z
	??$?0V?$tuple@AEBU?$pair@_K_K@std@@@std@@V?$tuple@$$V@1@$0A@$$Z$S@?$pair@$$CBU?$pair@_K_K@std@@ULocationData@DDChipDb@Trellis@@@std@@AEAA@AEAV?$tuple@AEBU?$pair@_K_K@std@@@1@AEAV?$tuple@$$V@1@U?$integer_sequence@_K$0A@@1@U?$integer_sequence@_K$S@1@@Z
	??$?0V?$tuple@AEBULocation@Trellis@@@std@@V?$tuple@$$V@1@$0A@$$Z$S@?$pair@$$CBULocation@Trellis@@U?$pair@_K_K@std@@@std@@AEAA@AEAV?$tuple@AEBULocation@Trellis@@@1@AEAV?$tuple@$$V@1@U?$integer_sequence@_K$0A@@1@U?$integer_sequence@_K$S@1@@Z
	??$?0V?$tuple@AEBULocation@Trellis@@@std@@V?$tuple@$$V@1@$0A@$$Z$S@?$pair@$$CBULocation@Trellis@@ULocationData@DDChipDb@2@@std@@AEAA@AEAV?$tuple@AEBULocation@Trellis@@@1@AEAV?$tuple@$$V@1@U?$integer_sequence@_K$0A@@1@U?$integer_sequence@_K$S@1@@Z
	??$?0V?$tuple@AEBULocation@Trellis@@@std@@V?$tuple@$$V@1@$0A@$$Z$S@?$pair@$$CBULocation@Trellis@@URoutingTileLoc@2@@std@@AEAA@AEAV?$tuple@AEBULocation@Trellis@@@1@AEAV?$tuple@$$V@1@U?$integer_sequence@_K$0A@@1@U?$integer_sequence@_K$S@1@@Z
	??$?0V?$tuple@AEBUTileLocator@Trellis@@@std@@V?$tuple@$$V@1@$0A@$$Z$S@?$pair@$$CBUTileLocator@Trellis@@V?$shared_ptr@VTileBitDatabase@Trellis@@@std@@@std@@AEAA@AEAV?$tuple@AEBUTileLocator@Trellis@@@1@AEAV?$tuple@$$V@1@U?$integer_sequence@_K$0A@@1@U?$integer_sequence@_K$S@1@@Z
	??$?0V?$tuple@AEBV?$basic_string@DU?$char_traits@D@std@@V?$allocator@D@2@@std@@@std@@V?$tuple@$$V@1@$0A@$$Z$S@?$pair@$$CBV?$basic_string@DU?$char_traits@D@std@@V?$allocator@D@2@@std@@H@std@@AEAA@AEAV?$tuple@AEBV?$basic_string@DU?$char_traits@D@std@@V?$allocator@D@2@@std@@@1@AEAV?$tuple@$$V@1@U?$integer_sequence@_K$0A@@1@U?$integer_sequence@_K$S@1@@Z
	??$?0V?$tuple@AEBV?$basic_string@DU?$char_traits@D@std@@V?$allocator@D@2@@std@@@std@@V?$tuple@$$V@1@$0A@$$Z$S@?$pair@$$CBV?$basic_string@DU?$char_traits@D@std@@V?$allocator@D@2@@std@@UArcData@Trellis@@@std@@AEAA@AEAV?$tuple@AEBV?$basic_string@DU?$char_traits@D@std@@V?$allocator@D@2@@std@@@1@AEAV?$tuple@$$V@1@U?$integer_sequence@_K$0A@@1@U?$integer_sequence@_K$S@1@@Z
	??$?0V?$tuple@AEBV?$basic_string@DU?$char_traits@D@std@@V?$allocator@D@2@@std@@@std@@V?$tuple@$$V@1@$0A@$$Z$S@?$pair@$$CBV?$basic_string@DU?$char_traits@D@std@@V?$allocator@D@2@@std@@UBitGroup@Trellis@@@std@@AEAA@AEAV?$tuple@AEBV?$basic_string@DU?$char_traits@D@std@@V?$allocator@D@2@@std@@@1@AEAV?$tuple@$$V@1@U?$integer_sequence@_K$0A@@1@U?$integer_sequence@_K$S@1@@Z
	??$?0V?$tuple@AEBV?$basic_string@DU?$char_traits@D@std@@V?$allocator@D@2@@std@@@std@@V?$tuple@$$V@1@$0A@$$Z$S@?$pair@$$CBV?$basic_string@DU?$char_traits@D@std@@V?$allocator@D@2@@std@@UEnumSettingBits@Trellis@@@std@@AEAA@AEAV?$tuple@AEBV?$basic_string@DU?$char_traits@D@std@@V?$allocator@D@2@@std@@@1@AEAV?$tuple@$$V@1@U?$integer_sequence@_K$0A@@1@U?$integer_sequence@_K$S@1@@Z
	??$?0V?$tuple@AEBV?$basic_string@DU?$char_traits@D@std@@V?$allocator@D@2@@std@@@std@@V?$tuple@$$V@1@$0A@$$Z$S@?$pair@$$CBV?$basic_string@DU?$char_traits@D@std@@V?$allocator@D@2@@std@@UMuxBits@Trellis@@@std@@AEAA@AEAV?$tuple@AEBV?$basic_string@DU?$char_traits@D@std@@V?$allocator@D@2@@std@@@1@AEAV?$tuple@$$V@1@U?$integer_sequence@_K$0A@@1@U?$integer_sequence@_K$S@1@@Z
	??$?0V?$tuple@AEBV?$basic_string@DU?$char_traits@D@std@@V?$allocator@D@2@@std@@@std@@V?$tuple@$$V@1@$0A@$$Z$S@?$pair@$$CBV?$basic_string@DU?$char_traits@D@std@@V?$allocator@D@2@@std@@UTileConfig@Trellis@@@std@@AEAA@AEAV?$tuple@AEBV?$basic_string@DU?$char_traits@D@std@@V?$allocator@D@2@@std@@@1@AEAV?$tuple@$$V@1@U?$integer_sequence@_K$0A@@1@U?$integer_sequence@_K$S@1@@Z
	??$?0V?$tuple@AEBV?$basic_string@DU?$char_traits@D@std@@V?$allocator@D@2@@std@@@std@@V?$tuple@$$V@1@$0A@$$Z$S@?$pair@$$CBV?$basic_string@DU?$char_traits@D@std@@V?$allocator@D@2@@std@@UWordSettingBits@Trellis@@@std@@AEAA@AEAV?$tuple@AEBV?$basic_string@DU?$char_traits@D@std@@V?$allocator@D@2@@std@@@1@AEAV?$tuple@$$V@1@U?$integer_sequence@_K$0A@@1@U?$integer_sequence@_K$S@1@@Z
	??$?0V?$tuple@AEBV?$basic_string@DU?$char_traits@D@std@@V?$allocator@D@2@@std@@@std@@V?$tuple@$$V@1@$0A@$$Z$S@?$pair@$$CBV?$basic_string@DU?$char_traits@D@std@@V?$allocator@D@2@@std@@V12@@std@@AEAA@AEAV?$tuple@AEBV?$basic_string@DU?$char_traits@D@std@@V?$allocator@D@2@@std@@@1@AEAV?$tuple@$$V@1@U?$integer_sequence@_K$0A@@1@U?$integer_sequence@_K$S@1@@Z
	??$?0V?$tuple@AEBV?$basic_string@DU?$char_traits@D@std@@V?$allocator@D@2@@std@@@std@@V?$tuple@$$V@1@$0A@$$Z$S@?$pair@$$CBV?$basic_string@DU?$char_traits@D@std@@V?$allocator@D@2@@std@@V?$basic_ptree@V?$basic_string@DU?$char_traits@D@std@@V?$allocator@D@2@@std@@V12@U?$less@V?$basic_string@DU?$char_traits@D@std@@V?$allocator@D@2@@std@@@2@@property_tree@boost@@@std@@AEAA@AEAV?$tuple@AEBV?$basic_string@DU?$char_traits@D@std@@V?$allocator@D@2@@std@@@1@AEAV?$tuple@$$V@1@U?$integer_sequence@_K$0A@@1@U?$integer_sequence@_K$S@1@@Z
	??$?0V?$tuple@AEBV?$basic_string@DU?$char_traits@D@std@@V?$allocator@D@2@@std@@@std@@V?$tuple@$$V@1@$0A@$$Z$S@?$pair@$$CBV?$basic_string@DU?$char_traits@D@std@@V?$allocator@D@2@@std@@V?$set@UFixedConnection@Trellis@@U?$less@UFixedConnection@Trellis@@@std@@V?$allocator@UFixedConnection@Trellis@@@4@@2@@std@@AEAA@AEAV?$tuple@AEBV?$basic_string@DU?$char_traits@D@std@@V?$allocator@D@2@@std@@@1@AEAV?$tuple@$$V@1@U?$integer_sequence@_K$0A@@1@U?$integer_sequence@_K$S@1@@Z
	??$?0V?$tuple@AEBV?$basic_string@DU?$char_traits@D@std@@V?$allocator@D@2@@std@@@std@@V?$tuple@$$V@1@$0A@$$Z$S@?$pair@$$CBV?$basic_string@DU?$char_traits@D@std@@V?$allocator@D@2@@std@@V?$shared_ptr@VTile@Trellis@@@2@@std@@AEAA@AEAV?$tuple@AEBV?$basic_string@DU?$char_traits@D@std@@V?$allocator@D@2@@std@@@1@AEAV?$tuple@$$V@1@U?$integer_sequence@_K$0A@@1@U?$integer_sequence@_K$S@1@@Z
	??$?0V?$tuple@AEBV?$basic_string@DU?$char_traits@D@std@@V?$allocator@D@2@@std@@@std@@V?$tuple@$$V@1@$0A@$$Z$S@?$pair@$$CBV?$basic_string@DU?$char_traits@D@std@@V?$allocator@D@2@@std@@V?$vector@UChangedBit@Trellis@@V?$allocator@UChangedBit@Trellis@@@std@@@2@@std@@AEAA@AEAV?$tuple@AEBV?$basic_string@DU?$char_traits@D@std@@V?$allocator@D@2@@std@@@1@AEAV?$tuple@$$V@1@U?$integer_sequence@_K$0A@@1@U?$integer_sequence@_K$S@1@@Z
	??$?0V?$unordered_set@UConfigBit@Trellis@@U?$hash@UConfigBit@Trellis@@@std@@U?$equal_to@UConfigBit@Trellis@@@4@V?$allocator@UConfigBit@Trellis@@@4@@std@@@?$optional@AEAV?$unordered_set@UConfigBit@Trellis@@U?$hash@UConfigBit@Trellis@@@std@@U?$equal_to@UConfigBit@Trellis@@@4@V?$allocator@UConfigBit@Trellis@@@4@@std@@@boost@@QEAA@AEAV?$unordered_set@UConfigBit@Trellis@@U?$hash@UConfigBit@Trellis@@@std@@U?$equal_to@UConfigBit@Trellis@@@4@V?$allocator@UConfigBit@Trellis@@@4@@std@@_N@Z
	??$?0VIdStore@Trellis@@@?$_Ref_count_obj2@UDedupChipdb@DDChipDb@Trellis@@@std@@QEAA@$$QEAVIdStore@Trellis@@@Z
	??$?0VIdStore@Trellis@@@?$_Ref_count_obj2@UOptimizedChipdb@DDChipDb@Trellis@@@std@@QEAA@$$QEAVIdStore@Trellis@@@Z
	??$?0VRoutingGraph@Trellis@@$0A@@?$shared_ptr@VRoutingGraph@Trellis@@@std@@QEAA@PEAVRoutingGraph@Trellis@@@Z
	??$?0VTileBitDatabase@Trellis@@$0A@@?$shared_ptr@VTileBitDatabase@Trellis@@@std@@QEAA@PEAVTileBitDatabase@Trellis@@@Z
	??$?0_K_K$0A@@?$pair@_K_K@std@@QEAA@XZ
	??$?0_N@?$allocator@I@std@@QEAA@AEBV?$allocator@_N@1@@Z
	??$?4AEAV?$basic_string@DU?$char_traits@D@std@@V?$allocator@D@2@@std@@@?$optional@V?$basic_string@DU?$char_traits@D@std@@V?$allocator@D@2@@std@@@boost@@QEAAAEAV01@AEAV?$basic_string@DU?$char_traits@D@std@@V?$allocator@D@2@@std@@@Z
	??$?4AEBU?$pair@$$CBV?$basic_string@DU?$char_traits@D@std@@V?$allocator@D@2@@std@@UBitGroup@Trellis@@@std@@@?$optional@AEBU?$pair@$$CBV?$basic_string@DU?$char_traits@D@std@@V?$allocator@D@2@@std@@UBitGroup@Trellis@@@std@@@boost@@QEAAAEAV01@AEBU?$pair@$$CBV?$basic_string@DU?$char_traits@D@std@@V?$allocator@D@2@@std@@UBitGroup@Trellis@@@std@@@Z
	??$?4AEBUArcData@Trellis@@@?$optional@AEBUArcData@Trellis@@@boost@@QEAAAEAV01@AEBUArcData@Trellis@@@Z
	??$?4HH$0A@@?$tuple@AEAHAEAH@std@@QEAAAEAV01@$$QEAU?$pair@HH@1@@Z
	??$?4U?$pair@HE@std@@$0A@@?$pair@HE@std@@QEAAAEAU01@$$QEAU01@@Z
	??$?4U?$pair@URoutingId@Trellis@@H@std@@$0A@@?$pair@URoutingId@Trellis@@H@std@@QEAAAEAU01@AEBU01@@Z
	??$?4U?$pair@URoutingId@Trellis@@W4PortDirection@2@@std@@$0A@@?$pair@URoutingId@Trellis@@W4PortDirection@2@@std@@QEAAAEAU01@$$QEAU01@@Z
	??$?4U?$pair@_K_K@std@@$0A@@?$pair@_K_K@std@@QEAAAEAU01@AEBU01@@Z
	??$?5DU?$char_traits@D@std@@V?$allocator@D@1@@std@@YAAEAV?$basic_istream@DU?$char_traits@D@std@@@0@AEAV10@AEAV?$basic_string@DU?$char_traits@D@std@@V?$allocator@D@2@@0@@Z
	??$?6DU?$char_traits@D@std@@@std@@YAAEAV?$basic_ostream@DU?$char_traits@D@std@@@0@AEAV10@AEBU?$_Fillobj@D@0@@Z
	??$?6DU?$char_traits@D@std@@@std@@YAAEAV?$basic_ostream@DU?$char_traits@D@std@@@0@AEAV10@AEBU?$_Smanip@_J@0@@Z
	??$?6DU?$char_traits@D@std@@V?$allocator@D@1@@std@@YAAEAV?$basic_ostream@DU?$char_traits@D@std@@@0@AEAV10@AEBV?$basic_string@DU?$char_traits@D@std@@V?$allocator@D@2@@0@@Z
	??$?6U?$char_traits@D@std@@@std@@YAAEAV?$basic_ostream@DU?$char_traits@D@std@@@0@AEAV10@D@Z
	??$?6U?$char_traits@D@std@@@std@@YAAEAV?$basic_ostream@DU?$char_traits@D@std@@@0@AEAV10@PEBD@Z
	??$?6V?$basic_ostringstream@DU?$char_traits@D@std@@V?$allocator@D@2@@std@@$$BY01D$0A@@std@@YA$$QEAV?$basic_ostringstream@DU?$char_traits@D@std@@V?$allocator@D@2@@0@$$QEAV10@AEAY01$$CBD@Z
	??$?6V?$basic_ostringstream@DU?$char_traits@D@std@@V?$allocator@D@2@@std@@$$BY02D$0A@@std@@YA$$QEAV?$basic_ostringstream@DU?$char_traits@D@std@@V?$allocator@D@2@@0@$$QEAV10@AEAY02$$CBD@Z
	??$?6V?$basic_ostringstream@DU?$char_traits@D@std@@V?$allocator@D@2@@std@@$$BY03D$0A@@std@@YA$$QEAV?$basic_ostringstream@DU?$char_traits@D@std@@V?$allocator@D@2@@0@$$QEAV10@AEAY03$$CBD@Z
	??$?6V?$basic_ostringstream@DU?$char_traits@D@std@@V?$allocator@D@2@@std@@$$BY04D$0A@@std@@YA$$QEAV?$basic_ostringstream@DU?$char_traits@D@std@@V?$allocator@D@2@@0@$$QEAV10@AEAY04$$CBD@Z
	??$?6V?$basic_ostringstream@DU?$char_traits@D@std@@V?$allocator@D@2@@std@@$$BY05D$0A@@std@@YA$$QEAV?$basic_ostringstream@DU?$char_traits@D@std@@V?$allocator@D@2@@0@$$QEAV10@AEAY05$$CBD@Z
	??$?6V?$basic_ostringstream@DU?$char_traits@D@std@@V?$allocator@D@2@@std@@$$BY06D$0A@@std@@YA$$QEAV?$basic_ostringstream@DU?$char_traits@D@std@@V?$allocator@D@2@@0@$$QEAV10@AEAY06$$CBD@Z
	??$?6V?$basic_ostringstream@DU?$char_traits@D@std@@V?$allocator@D@2@@std@@$$BY07D$0A@@std@@YA$$QEAV?$basic_ostringstream@DU?$char_traits@D@std@@V?$allocator@D@2@@0@$$QEAV10@AEAY07$$CBD@Z
	??$?6V?$basic_ostringstream@DU?$char_traits@D@std@@V?$allocator@D@2@@std@@$$BY08D$0A@@std@@YA$$QEAV?$basic_ostringstream@DU?$char_traits@D@std@@V?$allocator@D@2@@0@$$QEAV10@AEAY08$$CBD@Z
	??$?6V?$basic_ostringstream@DU?$char_traits@D@std@@V?$allocator@D@2@@std@@$$BY09D$0A@@std@@YA$$QEAV?$basic_ostringstream@DU?$char_traits@D@std@@V?$allocator@D@2@@0@$$QEAV10@AEAY09$$CBD@Z
	??$?6V?$basic_ostringstream@DU?$char_traits@D@std@@V?$allocator@D@2@@std@@$$BY0BI@D$0A@@std@@YA$$QEAV?$basic_ostringstream@DU?$char_traits@D@std@@V?$allocator@D@2@@0@$$QEAV10@AEAY0BI@$$CBD@Z
	??$?6V?$basic_ostringstream@DU?$char_traits@D@std@@V?$allocator@D@2@@std@@$$BY0BM@D$0A@@std@@YA$$QEAV?$basic_ostringstream@DU?$char_traits@D@std@@V?$allocator@D@2@@0@$$QEAV10@AEAY0BM@$$CBD@Z
	??$?6V?$basic_ostringstream@DU?$char_traits@D@std@@V?$allocator@D@2@@std@@$$BY0BN@D$0A@@std@@YA$$QEAV?$basic_ostringstream@DU?$char_traits@D@std@@V?$allocator@D@2@@0@$$QEAV10@AEAY0BN@$$CBD@Z
	??$?6V?$basic_ostringstream@DU?$char_traits@D@std@@V?$allocator@D@2@@std@@$$BY0BP@D$0A@@std@@YA$$QEAV?$basic_ostringstream@DU?$char_traits@D@std@@V?$allocator@D@2@@0@$$QEAV10@AEAY0BP@$$CBD@Z
	??$?6V?$basic_ostringstream@DU?$char_traits@D@std@@V?$allocator@D@2@@std@@$$BY0CB@D$0A@@std@@YA$$QEAV?$basic_ostringstream@DU?$char_traits@D@std@@V?$allocator@D@2@@0@$$QEAV10@AEAY0CB@$$CBD@Z
	??$?6V?$basic_ostringstream@DU?$char_traits@D@std@@V?$allocator@D@2@@std@@$$BY0CC@D$0A@@std@@YA$$QEAV?$basic_ostringstream@DU?$char_traits@D@std@@V?$allocator@D@2@@0@$$QEAV10@AEAY0CC@$$CBD@Z
	??$?6V?$basic_ostringstream@DU?$char_traits@D@std@@V?$allocator@D@2@@std@@$$BY0CF@D$0A@@std@@YA$$QEAV?$basic_ostringstream@DU?$char_traits@D@std@@V?$allocator@D@2@@0@$$QEAV10@AEAY0CF@$$CBD@Z
	??$?6V?$basic_ostringstream@DU?$char_traits@D@std@@V?$allocator@D@2@@std@@$$BY0M@D$0A@@std@@YA$$QEAV?$basic_ostringstream@DU?$char_traits@D@std@@V?$allocator@D@2@@0@$$QEAV10@AEAY0M@$$CBD@Z
	??$?6V?$basic_ostringstream@DU?$char_traits@D@std@@V?$allocator@D@2@@std@@D$0A@@std@@YA$$QEAV?$basic_ostringstream@DU?$char_traits@D@std@@V?$allocator@D@2@@0@$$QEAV10@AEBD@Z
	??$?6V?$basic_ostringstream@DU?$char_traits@D@std@@V?$allocator@D@2@@std@@H$0A@@std@@YA$$QEAV?$basic_ostringstream@DU?$char_traits@D@std@@V?$allocator@D@2@@0@$$QEAV10@AEBH@Z
	??$?6V?$basic_ostringstream@DU?$char_traits@D@std@@V?$allocator@D@2@@std@@PEBD$0A@@std@@YA$$QEAV?$basic_ostringstream@DU?$char_traits@D@std@@V?$allocator@D@2@@0@$$QEAV10@AEBQEBD@Z
	??$?6V?$basic_ostringstream@DU?$char_traits@D@std@@V?$allocator@D@2@@std@@UBitGroup@Trellis@@$0A@@std@@YA$$QEAV?$basic_ostringstream@DU?$char_traits@D@std@@V?$allocator@D@2@@0@$$QEAV10@AEBUBitGroup@Trellis@@@Z
	??$?6V?$basic_ostringstream@DU?$char_traits@D@std@@V?$allocator@D@2@@std@@V?$basic_string@DU?$char_traits@D@std@@V?$allocator@D@2@@1@$0A@@std@@YA$$QEAV?$basic_ostringstream@DU?$char_traits@D@std@@V?$allocator@D@2@@0@$$QEAV10@AEBV?$basic_string@DU?$char_traits@D@std@@V?$allocator@D@2@@0@@Z
	??$?6V?$basic_ostringstream@DU?$char_traits@D@std@@V?$allocator@D@2@@std@@_K$0A@@std@@YA$$QEAV?$basic_ostringstream@DU?$char_traits@D@std@@V?$allocator@D@2@@0@$$QEAV10@AEB_K@Z
	??$?8DU?$char_traits@D@std@@@std@@YA_NAEBV?$istreambuf_iterator@DU?$char_traits@D@std@@@0@0@Z
	??$?8DU?$char_traits@D@std@@V?$allocator@D@1@@std@@YA_NAEBV?$basic_string@DU?$char_traits@D@std@@V?$allocator@D@2@@0@0@Z
	??$?8DU?$char_traits@D@std@@V?$allocator@D@1@@std@@YA_NAEBV?$basic_string@DU?$char_traits@D@std@@V?$allocator@D@2@@0@QEBD@Z
	??$?8DV?$allocator@D@std@@@std@@YA_NAEBV?$vector@DV?$allocator@D@std@@@0@0@Z
	??$?8HHHH@std@@YA_NAEBU?$pair@HH@0@0@Z
	??$?8U?$ordered_index_node@Unull_augment_policy@detail@multi_index@boost@@U?$index_node_base@U?$pair@$$CBV?$basic_string@DU?$char_traits@D@std@@V?$allocator@D@2@@std@@V?$basic_ptree@V?$basic_string@DU?$char_traits@D@std@@V?$allocator@D@2@@std@@V12@U?$less@V?$basic_string@DU?$char_traits@D@std@@V?$allocator@D@2@@std@@@2@@property_tree@boost@@@std@@V?$allocator@U?$pair@$$CBV?$basic_string@DU?$char_traits@D@std@@V?$allocator@D@2@@std@@V?$basic_ptree@V?$basic_string@DU?$char_traits@D@std@@V?$allocator@D@2@@std@@V12@U?$less@V?$basic_string@DU?$char_traits@D@std@@V?$allocator@D@2@@std@@@2@@property_tree@boost@@@std@@@2@@234@@detail@multi_index@boost@@@detail@multi_index@boost@@YA_NAEBV?$bidir_node_iterator@U?$ordered_index_node@Unull_augment_policy@detail@multi_index@boost@@U?$index_node_base@U?$pair@$$CBV?$basic_string@DU?$char_traits@D@std@@V?$allocator@D@2@@std@@V?$basic_ptree@V?$basic_string@DU?$char_traits@D@std@@V?$allocator@D@2@@std@@V12@U?$less@V?$basic_string@DU?$char_traits@D@std@@V?$allocator@D@2@@std@@@2@@property_tree@boost@@@std@@V?$allocator@U?$pair@$$CBV?$basic_string@DU?$char_traits@D@std@@V?$allocator@D@2@@std@@V?$basic_ptree@V?$basic_string@DU?$char_traits@D@std@@V?$allocator@D@2@@std@@V12@U?$less@V?$basic_string@DU?$char_traits@D@std@@V?$allocator@D@2@@std@@@2@@property_tree@boost@@@std@@@2@@234@@detail@multi_index@boost@@@012@0@Z
	??$?8U?$sequenced_index_node@U?$ordered_index_node@Unull_augment_policy@detail@multi_index@boost@@U?$index_node_base@U?$pair@$$CBV?$basic_string@DU?$char_traits@D@std@@V?$allocator@D@2@@std@@V?$basic_ptree@V?$basic_string@DU?$char_traits@D@std@@V?$allocator@D@2@@std@@V12@U?$less@V?$basic_string@DU?$char_traits@D@std@@V?$allocator@D@2@@std@@@2@@property_tree@boost@@@std@@V?$allocator@U?$pair@$$CBV?$basic_string@DU?$char_traits@D@std@@V?$allocator@D@2@@std@@V?$basic_ptree@V?$basic_string@DU?$char_traits@D@std@@V?$allocator@D@2@@std@@V12@U?$less@V?$basic_string@DU?$char_traits@D@std@@V?$allocator@D@2@@std@@@2@@property_tree@boost@@@std@@@2@@234@@detail@multi_index@boost@@@detail@multi_index@boost@@@detail@multi_index@boost@@YA_NAEBV?$bidir_node_iterator@U?$sequenced_index_node@U?$ordered_index_node@Unull_augment_policy@detail@multi_index@boost@@U?$index_node_base@U?$pair@$$CBV?$basic_string@DU?$char_traits@D@std@@V?$allocator@D@2@@std@@V?$basic_ptree@V?$basic_string@DU?$char_traits@D@std@@V?$allocator@D@2@@std@@V12@U?$less@V?$basic_string@DU?$char_traits@D@std@@V?$allocator@D@2@@std@@@2@@property_tree@boost@@@std@@V?$allocator@U?$pair@$$CBV?$basic_string@DU?$char_traits@D@std@@V?$allocator@D@2@@std@@V?$basic_ptree@V?$basic_string@DU?$char_traits@D@std@@V?$allocator@D@2@@std@@V12@U?$less@V?$basic_string@DU?$char_traits@D@std@@V?$allocator@D@2@@std@@@2@@property_tree@boost@@@std@@@2@@234@@detail@multi_index@boost@@@detail@multi_index@boost@@@012@0@Z
	??$?8UConfigBit@Trellis@@U?$less@UConfigBit@Trellis@@@std@@V?$allocator@UConfigBit@Trellis@@@3@@std@@YA_NAEBV?$set@UConfigBit@Trellis@@U?$less@UConfigBit@Trellis@@@std@@V?$allocator@UConfigBit@Trellis@@@4@@0@0@Z
	??$?8Vconst_assoc_iterator@?$basic_ptree@V?$basic_string@DU?$char_traits@D@std@@V?$allocator@D@2@@std@@V12@U?$less@V?$basic_string@DU?$char_traits@D@std@@V?$allocator@D@2@@std@@@2@@property_tree@boost@@U?$pair@$$CBV?$basic_string@DU?$char_traits@D@std@@V?$allocator@D@2@@std@@V?$basic_ptree@V?$basic_string@DU?$char_traits@D@std@@V?$allocator@D@2@@std@@V12@U?$less@V?$basic_string@DU?$char_traits@D@std@@V?$allocator@D@2@@std@@@2@@property_tree@boost@@@std@@Ubidirectional_traversal_tag@iterators@3@AEBU45@_JV0123@U45@U673@AEBU45@_J@iterators@boost@@YA_NAEBV?$iterator_facade@Vconst_assoc_iterator@?$basic_ptree@V?$basic_string@DU?$char_traits@D@std@@V?$allocator@D@2@@std@@V12@U?$less@V?$basic_string@DU?$char_traits@D@std@@V?$allocator@D@2@@std@@@2@@property_tree@boost@@U?$pair@$$CBV?$basic_string@DU?$char_traits@D@std@@V?$allocator@D@2@@std@@V?$basic_ptree@V?$basic_string@DU?$char_traits@D@std@@V?$allocator@D@2@@std@@V12@U?$less@V?$basic_string@DU?$char_traits@D@std@@V?$allocator@D@2@@std@@@2@@property_tree@boost@@@std@@Ubidirectional_traversal_tag@iterators@4@AEBU56@_J@01@0@Z
	??$?8_NV?$allocator@_N@std@@@std@@YA_NAEBV?$vector@_NV?$allocator@_N@std@@@0@0@Z
	??$?9DU?$char_traits@D@std@@@std@@YA_NAEBV?$istreambuf_iterator@DU?$char_traits@D@std@@@0@0@Z
	??$?9DU?$char_traits@D@std@@V?$allocator@D@1@@std@@YA_NAEBV?$basic_string@DU?$char_traits@D@std@@V?$allocator@D@2@@0@0@Z
	??$?9DU?$char_traits@D@std@@V?$allocator@D@1@@std@@YA_NAEBV?$basic_string@DU?$char_traits@D@std@@V?$allocator@D@2@@0@QEBD@Z
	??$?9DV?$allocator@D@std@@@std@@YA_NAEBV?$vector@DV?$allocator@D@std@@@0@0@Z
	??$?9V?$reverse_iterator@V?$_String_iterator@V?$_String_val@U?$_Simple_types@D@std@@@std@@@std@@@iterators@boost@@DUrandom_access_traversal_tag@12@AEAD_JV012@DU312@AEAD_J@iterators@boost@@YA_NAEBV?$iterator_facade@V?$reverse_iterator@V?$_String_iterator@V?$_String_val@U?$_Simple_types@D@std@@@std@@@std@@@iterators@boost@@DUrandom_access_traversal_tag@23@AEAD_J@01@0@Z
	??$?9V?$reverse_iterator@V?$_Vb_const_iterator@U?$_Wrap_alloc@V?$allocator@I@std@@@std@@@std@@@iterators@boost@@_NUrandom_access_traversal_tag@12@_N_JV012@_NU312@_N_J@iterators@boost@@YA_NAEBV?$iterator_facade@V?$reverse_iterator@V?$_Vb_const_iterator@U?$_Wrap_alloc@V?$allocator@I@std@@@std@@@std@@@iterators@boost@@_NUrandom_access_traversal_tag@23@_N_J@01@0@Z
	??$?9V?$transform_iterator@U?$select_first@V?$map@V?$basic_string@DU?$char_traits@D@std@@V?$allocator@D@2@@std@@UArcData@Trellis@@U?$less@V?$basic_string@DU?$char_traits@D@std@@V?$allocator@D@2@@std@@@2@V?$allocator@U?$pair@$$CBV?$basic_string@DU?$char_traits@D@std@@V?$allocator@D@2@@std@@UArcData@Trellis@@@std@@@2@@std@@@range_detail@boost@@V?$_Tree_const_iterator@V?$_Tree_val@U?$_Tree_simple_types@U?$pair@$$CBV?$basic_string@DU?$char_traits@D@std@@V?$allocator@D@2@@std@@UArcData@Trellis@@@std@@@std@@@std@@@std@@Uuse_default@3@U63@@iterators@boost@@$$CBV?$basic_string@DU?$char_traits@D@std@@V?$allocator@D@2@@std@@Ubidirectional_traversal_tag@12@AEBV34@_JV012@$$CBV34@U512@AEBV34@_J@iterators@boost@@YA_NAEBV?$iterator_facade@V?$transform_iterator@U?$select_first@V?$map@V?$basic_string@DU?$char_traits@D@std@@V?$allocator@D@2@@std@@UArcData@Trellis@@U?$less@V?$basic_string@DU?$char_traits@D@std@@V?$allocator@D@2@@std@@@2@V?$allocator@U?$pair@$$CBV?$basic_string@DU?$char_traits@D@std@@V?$allocator@D@2@@std@@UArcData@Trellis@@@std@@@2@@std@@@range_detail@boost@@V?$_Tree_const_iterator@V?$_Tree_val@U?$_Tree_simple_types@U?$pair@$$CBV?$basic_string@DU?$char_traits@D@std@@V?$allocator@D@2@@std@@UArcData@Trellis@@@std@@@std@@@std@@@std@@Uuse_default@3@U63@@iterators@boost@@$$CBV?$basic_string@DU?$char_traits@D@std@@V?$allocator@D@2@@std@@Ubidirectional_traversal_tag@23@AEBV45@_J@01@0@Z
	??$?9V?$transform_iterator@U?$select_first@V?$map@V?$basic_string@DU?$char_traits@D@std@@V?$allocator@D@2@@std@@UBitGroup@Trellis@@U?$less@V?$basic_string@DU?$char_traits@D@std@@V?$allocator@D@2@@std@@@2@V?$allocator@U?$pair@$$CBV?$basic_string@DU?$char_traits@D@std@@V?$allocator@D@2@@std@@UBitGroup@Trellis@@@std@@@2@@std@@@range_detail@boost@@V?$_Tree_const_iterator@V?$_Tree_val@U?$_Tree_simple_types@U?$pair@$$CBV?$basic_string@DU?$char_traits@D@std@@V?$allocator@D@2@@std@@UBitGroup@Trellis@@@std@@@std@@@std@@@std@@Uuse_default@3@U63@@iterators@boost@@$$CBV?$basic_string@DU?$char_traits@D@std@@V?$allocator@D@2@@std@@Ubidirectional_traversal_tag@12@AEBV34@_JV012@$$CBV34@U512@AEBV34@_J@iterators@boost@@YA_NAEBV?$iterator_facade@V?$transform_iterator@U?$select_first@V?$map@V?$basic_string@DU?$char_traits@D@std@@V?$allocator@D@2@@std@@UBitGroup@Trellis@@U?$less@V?$basic_string@DU?$char_traits@D@std@@V?$allocator@D@2@@std@@@2@V?$allocator@U?$pair@$$CBV?$basic_string@DU?$char_traits@D@std@@V?$allocator@D@2@@std@@UBitGroup@Trellis@@@std@@@2@@std@@@range_detail@boost@@V?$_Tree_const_iterator@V?$_Tree_val@U?$_Tree_simple_types@U?$pair@$$CBV?$basic_string@DU?$char_traits@D@std@@V?$allocator@D@2@@std@@UBitGroup@Trellis@@@std@@@std@@@std@@@std@@Uuse_default@3@U63@@iterators@boost@@$$CBV?$basic_string@DU?$char_traits@D@std@@V?$allocator@D@2@@std@@Ubidirectional_traversal_tag@23@AEBV45@_J@01@0@Z
	??$?9V?$transform_iterator@U?$select_first@V?$map@V?$basic_string@DU?$char_traits@D@std@@V?$allocator@D@2@@std@@UEnumSettingBits@Trellis@@U?$less@V?$basic_string@DU?$char_traits@D@std@@V?$allocator@D@2@@std@@@2@V?$allocator@U?$pair@$$CBV?$basic_string@DU?$char_traits@D@std@@V?$allocator@D@2@@std@@UEnumSettingBits@Trellis@@@std@@@2@@std@@@range_detail@boost@@V?$_Tree_const_iterator@V?$_Tree_val@U?$_Tree_simple_types@U?$pair@$$CBV?$basic_string@DU?$char_traits@D@std@@V?$allocator@D@2@@std@@UEnumSettingBits@Trellis@@@std@@@std@@@std@@@std@@Uuse_default@3@U63@@iterators@boost@@$$CBV?$basic_string@DU?$char_traits@D@std@@V?$allocator@D@2@@std@@Ubidirectional_traversal_tag@12@AEBV34@_JV012@$$CBV34@U512@AEBV34@_J@iterators@boost@@YA_NAEBV?$iterator_facade@V?$transform_iterator@U?$select_first@V?$map@V?$basic_string@DU?$char_traits@D@std@@V?$allocator@D@2@@std@@UEnumSettingBits@Trellis@@U?$less@V?$basic_string@DU?$char_traits@D@std@@V?$allocator@D@2@@std@@@2@V?$allocator@U?$pair@$$CBV?$basic_string@DU?$char_traits@D@std@@V?$allocator@D@2@@std@@UEnumSettingBits@Trellis@@@std@@@2@@std@@@range_detail@boost@@V?$_Tree_const_iterator@V?$_Tree_val@U?$_Tree_simple_types@U?$pair@$$CBV?$basic_string@DU?$char_traits@D@std@@V?$allocator@D@2@@std@@UEnumSettingBits@Trellis@@@std@@@std@@@std@@@std@@Uuse_default@3@U63@@iterators@boost@@$$CBV?$basic_string@DU?$char_traits@D@std@@V?$allocator@D@2@@std@@Ubidirectional_traversal_tag@23@AEBV45@_J@01@0@Z
	??$?9V?$transform_iterator@U?$select_first@V?$map@V?$basic_string@DU?$char_traits@D@std@@V?$allocator@D@2@@std@@UMuxBits@Trellis@@U?$less@V?$basic_string@DU?$char_traits@D@std@@V?$allocator@D@2@@std@@@2@V?$allocator@U?$pair@$$CBV?$basic_string@DU?$char_traits@D@std@@V?$allocator@D@2@@std@@UMuxBits@Trellis@@@std@@@2@@std@@@range_detail@boost@@V?$_Tree_const_iterator@V?$_Tree_val@U?$_Tree_simple_types@U?$pair@$$CBV?$basic_string@DU?$char_traits@D@std@@V?$allocator@D@2@@std@@UMuxBits@Trellis@@@std@@@std@@@std@@@std@@Uuse_default@3@U63@@iterators@boost@@$$CBV?$basic_string@DU?$char_traits@D@std@@V?$allocator@D@2@@std@@Ubidirectional_traversal_tag@12@AEBV34@_JV012@$$CBV34@U512@AEBV34@_J@iterators@boost@@YA_NAEBV?$iterator_facade@V?$transform_iterator@U?$select_first@V?$map@V?$basic_string@DU?$char_traits@D@std@@V?$allocator@D@2@@std@@UMuxBits@Trellis@@U?$less@V?$basic_string@DU?$char_traits@D@std@@V?$allocator@D@2@@std@@@2@V?$allocator@U?$pair@$$CBV?$basic_string@DU?$char_traits@D@std@@V?$allocator@D@2@@std@@UMuxBits@Trellis@@@std@@@2@@std@@@range_detail@boost@@V?$_Tree_const_iterator@V?$_Tree_val@U?$_Tree_simple_types@U?$pair@$$CBV?$basic_string@DU?$char_traits@D@std@@V?$allocator@D@2@@std@@UMuxBits@Trellis@@@std@@@std@@@std@@@std@@Uuse_default@3@U63@@iterators@boost@@$$CBV?$basic_string@DU?$char_traits@D@std@@V?$allocator@D@2@@std@@Ubidirectional_traversal_tag@23@AEBV45@_J@01@0@Z
	??$?9V?$transform_iterator@U?$select_first@V?$map@V?$basic_string@DU?$char_traits@D@std@@V?$allocator@D@2@@std@@UWordSettingBits@Trellis@@U?$less@V?$basic_string@DU?$char_traits@D@std@@V?$allocator@D@2@@std@@@2@V?$allocator@U?$pair@$$CBV?$basic_string@DU?$char_traits@D@std@@V?$allocator@D@2@@std@@UWordSettingBits@Trellis@@@std@@@2@@std@@@range_detail@boost@@V?$_Tree_const_iterator@V?$_Tree_val@U?$_Tree_simple_types@U?$pair@$$CBV?$basic_string@DU?$char_traits@D@std@@V?$allocator@D@2@@std@@UWordSettingBits@Trellis@@@std@@@std@@@std@@@std@@Uuse_default@3@U63@@iterators@boost@@$$CBV?$basic_string@DU?$char_traits@D@std@@V?$allocator@D@2@@std@@Ubidirectional_traversal_tag@12@AEBV34@_JV012@$$CBV34@U512@AEBV34@_J@iterators@boost@@YA_NAEBV?$iterator_facade@V?$transform_iterator@U?$select_first@V?$map@V?$basic_string@DU?$char_traits@D@std@@V?$allocator@D@2@@std@@UWordSettingBits@Trellis@@U?$less@V?$basic_string@DU?$char_traits@D@std@@V?$allocator@D@2@@std@@@2@V?$allocator@U?$pair@$$CBV?$basic_string@DU?$char_traits@D@std@@V?$allocator@D@2@@std@@UWordSettingBits@Trellis@@@std@@@2@@std@@@range_detail@boost@@V?$_Tree_const_iterator@V?$_Tree_val@U?$_Tree_simple_types@U?$pair@$$CBV?$basic_string@DU?$char_traits@D@std@@V?$allocator@D@2@@std@@UWordSettingBits@Trellis@@@std@@@std@@@std@@@std@@Uuse_default@3@U63@@iterators@boost@@$$CBV?$basic_string@DU?$char_traits@D@std@@V?$allocator@D@2@@std@@Ubidirectional_traversal_tag@23@AEBV45@_J@01@0@Z
	??$?9Vconst_iterator@?$basic_ptree@V?$basic_string@DU?$char_traits@D@std@@V?$allocator@D@2@@std@@V12@U?$less@V?$basic_string@DU?$char_traits@D@std@@V?$allocator@D@2@@std@@@2@@property_tree@boost@@U?$pair@$$CBV?$basic_string@DU?$char_traits@D@std@@V?$allocator@D@2@@std@@V?$basic_ptree@V?$basic_string@DU?$char_traits@D@std@@V?$allocator@D@2@@std@@V12@U?$less@V?$basic_string@DU?$char_traits@D@std@@V?$allocator@D@2@@std@@@2@@property_tree@boost@@@std@@Ubidirectional_traversal_tag@iterators@3@AEBU45@_JV0123@U45@U673@AEBU45@_J@iterators@boost@@YA_NAEBV?$iterator_facade@Vconst_iterator@?$basic_ptree@V?$basic_string@DU?$char_traits@D@std@@V?$allocator@D@2@@std@@V12@U?$less@V?$basic_string@DU?$char_traits@D@std@@V?$allocator@D@2@@std@@@2@@property_tree@boost@@U?$pair@$$CBV?$basic_string@DU?$char_traits@D@std@@V?$allocator@D@2@@std@@V?$basic_ptree@V?$basic_string@DU?$char_traits@D@std@@V?$allocator@D@2@@std@@V12@U?$less@V?$basic_string@DU?$char_traits@D@std@@V?$allocator@D@2@@std@@@2@@property_tree@boost@@@std@@Ubidirectional_traversal_tag@iterators@4@AEBU56@_J@01@0@Z
	??$?9Viterator@?$basic_ptree@V?$basic_string@DU?$char_traits@D@std@@V?$allocator@D@2@@std@@V12@U?$less@V?$basic_string@DU?$char_traits@D@std@@V?$allocator@D@2@@std@@@2@@property_tree@boost@@U?$pair@$$CBV?$basic_string@DU?$char_traits@D@std@@V?$allocator@D@2@@std@@V?$basic_ptree@V?$basic_string@DU?$char_traits@D@std@@V?$allocator@D@2@@std@@V12@U?$less@V?$basic_string@DU?$char_traits@D@std@@V?$allocator@D@2@@std@@@2@@property_tree@boost@@@std@@Ubidirectional_traversal_tag@iterators@3@AEAU45@_JV0123@U45@U673@AEAU45@_J@iterators@boost@@YA_NAEBV?$iterator_facade@Viterator@?$basic_ptree@V?$basic_string@DU?$char_traits@D@std@@V?$allocator@D@2@@std@@V12@U?$less@V?$basic_string@DU?$char_traits@D@std@@V?$allocator@D@2@@std@@@2@@property_tree@boost@@U?$pair@$$CBV?$basic_string@DU?$char_traits@D@std@@V?$allocator@D@2@@std@@V?$basic_ptree@V?$basic_string@DU?$char_traits@D@std@@V?$allocator@D@2@@std@@V12@U?$less@V?$basic_string@DU?$char_traits@D@std@@V?$allocator@D@2@@std@@@2@@property_tree@boost@@@std@@Ubidirectional_traversal_tag@iterators@4@AEAU56@_J@01@0@Z
	??$?A$00@?$rrlist@AEAE@_bi@boost@@QEBAAEAEU?$arg@$00@2@@Z
	??$?A$00@?$rrlist@D@_bi@boost@@QEBA$$QEADU?$arg@$00@2@@Z
	??$?APEAV?$parser@V?$standard_callbacks@V?$basic_ptree@V?$basic_string@DU?$char_traits@D@std@@V?$allocator@D@2@@std@@V12@U?$less@V?$basic_string@DU?$char_traits@D@std@@V?$allocator@D@2@@std@@@2@@property_tree@boost@@@detail@json_parser@property_tree@boost@@U?$encoding@D@2345@V?$istreambuf_iterator@DU?$char_traits@D@std@@@std@@V78@@detail@json_parser@property_tree@boost@@@?$rrlist@$$V@_bi@boost@@QEBAAEAPEAV?$parser@V?$standard_callbacks@V?$basic_ptree@V?$basic_string@DU?$char_traits@D@std@@V?$allocator@D@2@@std@@V12@U?$less@V?$basic_string@DU?$char_traits@D@std@@V?$allocator@D@2@@std@@@2@@property_tree@boost@@@detail@json_parser@property_tree@boost@@U?$encoding@D@2345@V?$istreambuf_iterator@DU?$char_traits@D@std@@@std@@V78@@detail@json_parser@property_tree@2@AEAV?$value@PEAV?$parser@V?$standard_callbacks@V?$basic_ptree@V?$basic_string@DU?$char_traits@D@std@@V?$allocator@D@2@@std@@V12@U?$less@V?$basic_string@DU?$char_traits@D@std@@V?$allocator@D@2@@std@@@2@@property_tree@boost@@@detail@json_parser@property_tree@boost@@U?$encoding@D@2345@V?$istreambuf_iterator@DU?$char_traits@D@std@@@std@@V78@@detail@json_parser@property_tree@boost@@@12@@Z
	??$?APEBD@?$rrlist@$$V@_bi@boost@@QEBAAEAPEBDAEAV?$value@PEBD@12@@Z
	??$?AV?$standard_callbacks@V?$basic_ptree@V?$basic_string@DU?$char_traits@D@std@@V?$allocator@D@2@@std@@V12@U?$less@V?$basic_string@DU?$char_traits@D@std@@V?$allocator@D@2@@std@@@2@@property_tree@boost@@@detail@json_parser@property_tree@boost@@@?$rrlist@AEAE@_bi@boost@@QEBAAEAV?$standard_callbacks@V?$basic_ptree@V?$basic_string@DU?$char_traits@D@std@@V?$allocator@D@2@@std@@V12@U?$less@V?$basic_string@DU?$char_traits@D@std@@V?$allocator@D@2@@std@@@2@@property_tree@boost@@@detail@json_parser@property_tree@2@AEBV?$reference_wrapper@V?$standard_callbacks@V?$basic_ptree@V?$basic_string@DU?$char_traits@D@std@@V?$allocator@D@2@@std@@V12@U?$less@V?$basic_string@DU?$char_traits@D@std@@V?$allocator@D@2@@std@@@2@@property_tree@boost@@@detail@json_parser@property_tree@boost@@@2@@Z
	??$?AV?$standard_callbacks@V?$basic_ptree@V?$basic_string@DU?$char_traits@D@std@@V?$allocator@D@2@@std@@V12@U?$less@V?$basic_string@DU?$char_traits@D@std@@V?$allocator@D@2@@std@@@2@@property_tree@boost@@@detail@json_parser@property_tree@boost@@@?$rrlist@D@_bi@boost@@QEBAAEAV?$standard_callbacks@V?$basic_ptree@V?$basic_string@DU?$char_traits@D@std@@V?$allocator@D@2@@std@@V12@U?$less@V?$basic_string@DU?$char_traits@D@std@@V?$allocator@D@2@@std@@@2@@property_tree@boost@@@detail@json_parser@property_tree@2@AEBV?$reference_wrapper@V?$standard_callbacks@V?$basic_ptree@V?$basic_string@DU?$char_traits@D@std@@V?$allocator@D@2@@std@@V12@U?$less@V?$basic_string@DU?$char_traits@D@std@@V?$allocator@D@2@@std@@@2@@property_tree@boost@@@detail@json_parser@property_tree@boost@@@2@@Z
	??$?CUDedupChipdb@DDChipDb@Trellis@@$0A@@?$shared_ptr@UDedupChipdb@DDChipDb@Trellis@@@std@@QEBAPEAUDedupChipdb@DDChipDb@Trellis@@XZ
	??$?CUOptimizedChipdb@DDChipDb@Trellis@@$0A@@?$shared_ptr@UOptimizedChipdb@DDChipDb@Trellis@@@std@@QEBAPEAUOptimizedChipdb@DDChipDb@Trellis@@XZ
	??$?CV?$vector@V?$vector@DV?$allocator@D@std@@@std@@V?$allocator@V?$vector@DV?$allocator@D@std@@@std@@@2@@std@@$0A@@?$shared_ptr@V?$vector@V?$vector@DV?$allocator@D@std@@@std@@V?$allocator@V?$vector@DV?$allocator@D@std@@@std@@@2@@std@@@std@@QEBAPEAV?$vector@V?$vector@DV?$allocator@D@std@@@std@@V?$allocator@V?$vector@DV?$allocator@D@std@@@std@@@2@@1@XZ
	??$?CVRoutingGraph@Trellis@@$0A@@?$shared_ptr@VRoutingGraph@Trellis@@@std@@QEBAPEAVRoutingGraph@Trellis@@XZ
	??$?CVTile@Trellis@@$0A@@?$shared_ptr@VTile@Trellis@@@std@@QEBAPEAVTile@Trellis@@XZ
	??$?CVTileBitDatabase@Trellis@@$0A@@?$shared_ptr@VTileBitDatabase@Trellis@@@std@@QEBAPEAVTileBitDatabase@Trellis@@XZ
	??$?DVRoutingGraph@Trellis@@$0A@@?$shared_ptr@VRoutingGraph@Trellis@@@std@@QEBAAEAVRoutingGraph@Trellis@@XZ
	??$?HDU?$char_traits@D@std@@V?$allocator@D@1@@std@@YA?AV?$basic_string@DU?$char_traits@D@std@@V?$allocator@D@2@@0@$$QEAV10@0@Z
	??$?HDU?$char_traits@D@std@@V?$allocator@D@1@@std@@YA?AV?$basic_string@DU?$char_traits@D@std@@V?$allocator@D@2@@0@$$QEAV10@AEBV10@@Z
	??$?HDU?$char_traits@D@std@@V?$allocator@D@1@@std@@YA?AV?$basic_string@DU?$char_traits@D@std@@V?$allocator@D@2@@0@$$QEAV10@D@Z
	??$?HDU?$char_traits@D@std@@V?$allocator@D@1@@std@@YA?AV?$basic_string@DU?$char_traits@D@std@@V?$allocator@D@2@@0@$$QEAV10@QEBD@Z
	??$?HDU?$char_traits@D@std@@V?$allocator@D@1@@std@@YA?AV?$basic_string@DU?$char_traits@D@std@@V?$allocator@D@2@@0@AEBV10@$$QEAV10@@Z
	??$?HDU?$char_traits@D@std@@V?$allocator@D@1@@std@@YA?AV?$basic_string@DU?$char_traits@D@std@@V?$allocator@D@2@@0@AEBV10@QEBD@Z
	??$?HDU?$char_traits@D@std@@V?$allocator@D@1@@std@@YA?AV?$basic_string@DU?$char_traits@D@std@@V?$allocator@D@2@@0@QEBD$$QEAV10@@Z
	??$?HDU?$char_traits@D@std@@V?$allocator@D@1@@std@@YA?AV?$basic_string@DU?$char_traits@D@std@@V?$allocator@D@2@@0@QEBDAEBV10@@Z
	??$?MDU?$char_traits@D@std@@V?$allocator@D@1@@std@@YA_NAEBV?$basic_string@DU?$char_traits@D@std@@V?$allocator@D@2@@0@0@Z
	??$?MHEHE@std@@YA_NAEBU?$pair@HE@0@0@Z
	??$?MHHHH@std@@YA_NAEBU?$pair@HH@0@0@Z
	??$?M_K_K_K_K@std@@YA_NAEBU?$pair@_K_K@0@0@Z
	??$?NDU?$char_traits@D@std@@V?$allocator@D@1@@std@@YA_NAEBV?$basic_string@DU?$char_traits@D@std@@V?$allocator@D@2@@0@0@Z
	??$?ODU?$char_traits@D@std@@V?$allocator@D@1@@std@@YA_NAEBV?$basic_string@DU?$char_traits@D@std@@V?$allocator@D@2@@0@0@Z
	??$?R$$V@?$bind_t@Uunspecified@_bi@boost@@V?$mf@P8?$parser@V?$standard_callbacks@V?$basic_ptree@V?$basic_string@DU?$char_traits@D@std@@V?$allocator@D@2@@std@@V12@U?$less@V?$basic_string@DU?$char_traits@D@std@@V?$allocator@D@2@@std@@@2@@property_tree@boost@@@detail@json_parser@property_tree@boost@@U?$encoding@D@2345@V?$istreambuf_iterator@DU?$char_traits@D@std@@@std@@V78@@detail@json_parser@property_tree@boost@@EAAXPEBD@ZXV12345@PEBD@_mfi@3@V?$list@V?$value@PEAV?$parser@V?$standard_callbacks@V?$basic_ptree@V?$basic_string@DU?$char_traits@D@std@@V?$allocator@D@2@@std@@V12@U?$less@V?$basic_string@DU?$char_traits@D@std@@V?$allocator@D@2@@std@@@2@@property_tree@boost@@@detail@json_parser@property_tree@boost@@U?$encoding@D@2345@V?$istreambuf_iterator@DU?$char_traits@D@std@@@std@@V78@@detail@json_parser@property_tree@boost@@@_bi@boost@@V?$value@PEBD@23@@23@@_bi@boost@@QEAAXXZ
	??$?RAEAE@?$bind_t@Uunspecified@_bi@boost@@V?$mf@P8?$standard_callbacks@V?$basic_ptree@V?$basic_string@DU?$char_traits@D@std@@V?$allocator@D@2@@std@@V12@U?$less@V?$basic_string@DU?$char_traits@D@std@@V?$allocator@D@2@@std@@@2@@property_tree@boost@@@detail@json_parser@property_tree@boost@@EAAXD@ZXV12345@D@_mfi@3@V?$list@V?$reference_wrapper@V?$standard_callbacks@V?$basic_ptree@V?$basic_string@DU?$char_traits@D@std@@V?$allocator@D@2@@std@@V12@U?$less@V?$basic_string@DU?$char_traits@D@std@@V?$allocator@D@2@@std@@@2@@property_tree@boost@@@detail@json_parser@property_tree@boost@@@boost@@U?$arg@$00@2@@23@@_bi@boost@@QEAAXAEAE@Z
	??$?RAEAEAEBE@?$equal_to@X@std@@QEBA_NAEAEAEBE@Z
	??$?RAEAPEAV?$parser@V?$standard_callbacks@V?$basic_ptree@V?$basic_string@DU?$char_traits@D@std@@V?$allocator@D@2@@std@@V12@U?$less@V?$basic_string@DU?$char_traits@D@std@@V?$allocator@D@2@@std@@@2@@property_tree@boost@@@detail@json_parser@property_tree@boost@@U?$encoding@D@2345@V?$istreambuf_iterator@DU?$char_traits@D@std@@@std@@V78@@detail@json_parser@property_tree@boost@@PEAV01234@XX@?$mf@P8?$parser@V?$standard_callbacks@V?$basic_ptree@V?$basic_string@DU?$char_traits@D@std@@V?$allocator@D@2@@std@@V12@U?$less@V?$basic_string@DU?$char_traits@D@std@@V?$allocator@D@2@@std@@@2@@property_tree@boost@@@detail@json_parser@property_tree@boost@@U?$encoding@D@2345@V?$istreambuf_iterator@DU?$char_traits@D@std@@@std@@V78@@detail@json_parser@property_tree@boost@@EAAXPEBD@ZXV12345@PEBD@_mfi@boost@@QEBAXAEAPEAV?$parser@V?$standard_callbacks@V?$basic_ptree@V?$basic_string@DU?$char_traits@D@std@@V?$allocator@D@2@@std@@V12@U?$less@V?$basic_string@DU?$char_traits@D@std@@V?$allocator@D@2@@std@@@2@@property_tree@boost@@@detail@json_parser@property_tree@boost@@U?$encoding@D@2345@V?$istreambuf_iterator@DU?$char_traits@D@std@@@std@@V78@@detail@json_parser@property_tree@2@PEBD@Z
	??$?RAEAU?$copy_map_entry@U?$sequenced_index_node@U?$ordered_index_node@Unull_augment_policy@detail@multi_index@boost@@U?$index_node_base@U?$pair@$$CBV?$basic_string@DU?$char_traits@D@std@@V?$allocator@D@2@@std@@V?$basic_ptree@V?$basic_string@DU?$char_traits@D@std@@V?$allocator@D@2@@std@@V12@U?$less@V?$basic_string@DU?$char_traits@D@std@@V?$allocator@D@2@@std@@@2@@property_tree@boost@@@std@@V?$allocator@U?$pair@$$CBV?$basic_string@DU?$char_traits@D@std@@V?$allocator@D@2@@std@@V?$basic_ptree@V?$basic_string@DU?$char_traits@D@std@@V?$allocator@D@2@@std@@V12@U?$less@V?$basic_string@DU?$char_traits@D@std@@V?$allocator@D@2@@std@@@2@@property_tree@boost@@@std@@@2@@234@@detail@multi_index@boost@@@detail@multi_index@boost@@@detail@multi_index@boost@@AEAU0123@@?$less@X@std@@QEBA_NAEAU?$copy_map_entry@U?$sequenced_index_node@U?$ordered_index_node@Unull_augment_policy@detail@multi_index@boost@@U?$index_node_base@U?$pair@$$CBV?$basic_string@DU?$char_traits@D@std@@V?$allocator@D@2@@std@@V?$basic_ptree@V?$basic_string@DU?$char_traits@D@std@@V?$allocator@D@2@@std@@V12@U?$less@V?$basic_string@DU?$char_traits@D@std@@V?$allocator@D@2@@std@@@2@@property_tree@boost@@@std@@V?$allocator@U?$pair@$$CBV?$basic_string@DU?$char_traits@D@std@@V?$allocator@D@2@@std@@V?$basic_ptree@V?$basic_string@DU?$char_traits@D@std@@V?$allocator@D@2@@std@@V12@U?$less@V?$basic_string@DU?$char_traits@D@std@@V?$allocator@D@2@@std@@@2@@property_tree@boost@@@std@@@2@@234@@detail@multi_index@boost@@@detail@multi_index@boost@@@detail@multi_index@boost@@0@Z
	??$?RAEAV?$standard_callbacks@V?$basic_ptree@V?$basic_string@DU?$char_traits@D@std@@V?$allocator@D@2@@std@@V12@U?$less@V?$basic_string@DU?$char_traits@D@std@@V?$allocator@D@2@@std@@@2@@property_tree@boost@@@detail@json_parser@property_tree@boost@@V01234@X@?$mf@P8?$standard_callbacks@V?$basic_ptree@V?$basic_string@DU?$char_traits@D@std@@V?$allocator@D@2@@std@@V12@U?$less@V?$basic_string@DU?$char_traits@D@std@@V?$allocator@D@2@@std@@@2@@property_tree@boost@@@detail@json_parser@property_tree@boost@@EAAXD@ZXV12345@D@_mfi@boost@@QEBAXAEAV?$standard_callbacks@V?$basic_ptree@V?$basic_string@DU?$char_traits@D@std@@V?$allocator@D@2@@std@@V12@U?$less@V?$basic_string@DU?$char_traits@D@std@@V?$allocator@D@2@@std@@@2@@property_tree@boost@@@detail@json_parser@property_tree@2@D@Z
	??$?RAEBDAEBD@?$equal_to@X@std@@QEBA_NAEBD0@Z
	??$?RAEBIAEBI@?$equal_to@X@std@@QEBA_NAEBI0@Z
	??$?RAEBU?$copy_map_entry@U?$sequenced_index_node@U?$ordered_index_node@Unull_augment_policy@detail@multi_index@boost@@U?$index_node_base@U?$pair@$$CBV?$basic_string@DU?$char_traits@D@std@@V?$allocator@D@2@@std@@V?$basic_ptree@V?$basic_string@DU?$char_traits@D@std@@V?$allocator@D@2@@std@@V12@U?$less@V?$basic_string@DU?$char_traits@D@std@@V?$allocator@D@2@@std@@@2@@property_tree@boost@@@std@@V?$allocator@U?$pair@$$CBV?$basic_string@DU?$char_traits@D@std@@V?$allocator@D@2@@std@@V?$basic_ptree@V?$basic_string@DU?$char_traits@D@std@@V?$allocator@D@2@@std@@V12@U?$less@V?$basic_string@DU?$char_traits@D@std@@V?$allocator@D@2@@std@@@2@@property_tree@boost@@@std@@@2@@234@@detail@multi_index@boost@@@detail@multi_index@boost@@@detail@multi_index@boost@@AEBU0123@@?$less@X@std@@QEBA_NAEBU?$copy_map_entry@U?$sequenced_index_node@U?$ordered_index_node@Unull_augment_policy@detail@multi_index@boost@@U?$index_node_base@U?$pair@$$CBV?$basic_string@DU?$char_traits@D@std@@V?$allocator@D@2@@std@@V?$basic_ptree@V?$basic_string@DU?$char_traits@D@std@@V?$allocator@D@2@@std@@V12@U?$less@V?$basic_string@DU?$char_traits@D@std@@V?$allocator@D@2@@std@@@2@@property_tree@boost@@@std@@V?$allocator@U?$pair@$$CBV?$basic_string@DU?$char_traits@D@std@@V?$allocator@D@2@@std@@V?$basic_ptree@V?$basic_string@DU?$char_traits@D@std@@V?$allocator@D@2@@std@@V12@U?$less@V?$basic_string@DU?$char_traits@D@std@@V?$allocator@D@2@@std@@@2@@property_tree@boost@@@std@@@2@@234@@detail@multi_index@boost@@@detail@multi_index@boost@@@detail@multi_index@boost@@0@Z
	??$?RAEBUBelData@DDChipDb@Trellis@@AEBU012@@?$equal_to@X@std@@QEBA_NAEBUBelData@DDChipDb@Trellis@@0@Z
	??$?RAEBUBelPort@DDChipDb@Trellis@@AEBU012@@?$equal_to@X@std@@QEBA_NAEBUBelPort@DDChipDb@Trellis@@0@Z
	??$?RAEBUBelWire@DDChipDb@Trellis@@AEBU012@@?$equal_to@X@std@@QEBA_NAEBUBelWire@DDChipDb@Trellis@@0@Z
	??$?RAEBUConfigBit@Trellis@@AEBU01@@?$equal_to@X@std@@QEBA_NAEBUConfigBit@Trellis@@0@Z
	??$?RAEBUDdArcData@DDChipDb@Trellis@@AEBU012@@?$equal_to@X@std@@QEBA_NAEBUDdArcData@DDChipDb@Trellis@@0@Z
	??$?RAEBURelId@DDChipDb@Trellis@@AEBU012@@?$equal_to@X@std@@QEBA_NAEBURelId@DDChipDb@Trellis@@0@Z
	??$?RAEBUWireData@DDChipDb@Trellis@@AEBU012@@?$equal_to@X@std@@QEBA_NAEBUWireData@DDChipDb@Trellis@@0@Z
	??$?RD@?$bind_t@Uunspecified@_bi@boost@@V?$mf@P8?$standard_callbacks@V?$basic_ptree@V?$basic_string@DU?$char_traits@D@std@@V?$allocator@D@2@@std@@V12@U?$less@V?$basic_string@DU?$char_traits@D@std@@V?$allocator@D@2@@std@@@2@@property_tree@boost@@@detail@json_parser@property_tree@boost@@EAAXD@ZXV12345@D@_mfi@3@V?$list@V?$reference_wrapper@V?$standard_callbacks@V?$basic_ptree@V?$basic_string@DU?$char_traits@D@std@@V?$allocator@D@2@@std@@V12@U?$less@V?$basic_string@DU?$char_traits@D@std@@V?$allocator@D@2@@std@@@2@@property_tree@boost@@@detail@json_parser@property_tree@boost@@@boost@@U?$arg@$00@2@@23@@_bi@boost@@QEAAX$$QEAD@Z
	??$?RE$0A@@?$default_delete@$$BY0A@E@std@@QEBAXPEAE@Z
	??$?RU?$pair@$$CBV?$basic_string@DU?$char_traits@D@std@@V?$allocator@D@2@@std@@V?$basic_ptree@V?$basic_string@DU?$char_traits@D@std@@V?$allocator@D@2@@std@@V12@U?$less@V?$basic_string@DU?$char_traits@D@std@@V?$allocator@D@2@@std@@@2@@property_tree@boost@@@std@@@copy_map_value_copier@detail@multi_index@boost@@QEBAAEBU?$pair@$$CBV?$basic_string@DU?$char_traits@D@std@@V?$allocator@D@2@@std@@V?$basic_ptree@V?$basic_string@DU?$char_traits@D@std@@V?$allocator@D@2@@std@@V12@U?$less@V?$basic_string@DU?$char_traits@D@std@@V?$allocator@D@2@@std@@@2@@property_tree@boost@@@std@@AEAU45@@Z
	??$?RU?$select_first@V?$map@V?$basic_string@DU?$char_traits@D@std@@V?$allocator@D@2@@std@@UArcData@Trellis@@U?$less@V?$basic_string@DU?$char_traits@D@std@@V?$allocator@D@2@@std@@@2@V?$allocator@U?$pair@$$CBV?$basic_string@DU?$char_traits@D@std@@V?$allocator@D@2@@std@@UArcData@Trellis@@@std@@@2@@std@@@range_detail@boost@@@?$forwarder@Utransform_holder@range_detail@boost@@@range_detail@boost@@QEBA?AU?$transform_holder@U?$select_first@V?$map@V?$basic_string@DU?$char_traits@D@std@@V?$allocator@D@2@@std@@UArcData@Trellis@@U?$less@V?$basic_string@DU?$char_traits@D@std@@V?$allocator@D@2@@std@@@2@V?$allocator@U?$pair@$$CBV?$basic_string@DU?$char_traits@D@std@@V?$allocator@D@2@@std@@UArcData@Trellis@@@std@@@2@@std@@@range_detail@boost@@@12@U?$select_first@V?$map@V?$basic_string@DU?$char_traits@D@std@@V?$allocator@D@2@@std@@UArcData@Trellis@@U?$less@V?$basic_string@DU?$char_traits@D@std@@V?$allocator@D@2@@std@@@2@V?$allocator@U?$pair@$$CBV?$basic_string@DU?$char_traits@D@std@@V?$allocator@D@2@@std@@UArcData@Trellis@@@std@@@2@@std@@@12@@Z
	??$?RU?$select_first@V?$map@V?$basic_string@DU?$char_traits@D@std@@V?$allocator@D@2@@std@@UBitGroup@Trellis@@U?$less@V?$basic_string@DU?$char_traits@D@std@@V?$allocator@D@2@@std@@@2@V?$allocator@U?$pair@$$CBV?$basic_string@DU?$char_traits@D@std@@V?$allocator@D@2@@std@@UBitGroup@Trellis@@@std@@@2@@std@@@range_detail@boost@@@?$forwarder@Utransform_holder@range_detail@boost@@@range_detail@boost@@QEBA?AU?$transform_holder@U?$select_first@V?$map@V?$basic_string@DU?$char_traits@D@std@@V?$allocator@D@2@@std@@UBitGroup@Trellis@@U?$less@V?$basic_string@DU?$char_traits@D@std@@V?$allocator@D@2@@std@@@2@V?$allocator@U?$pair@$$CBV?$basic_string@DU?$char_traits@D@std@@V?$allocator@D@2@@std@@UBitGroup@Trellis@@@std@@@2@@std@@@range_detail@boost@@@12@U?$select_first@V?$map@V?$basic_string@DU?$char_traits@D@std@@V?$allocator@D@2@@std@@UBitGroup@Trellis@@U?$less@V?$basic_string@DU?$char_traits@D@std@@V?$allocator@D@2@@std@@@2@V?$allocator@U?$pair@$$CBV?$basic_string@DU?$char_traits@D@std@@V?$allocator@D@2@@std@@UBitGroup@Trellis@@@std@@@2@@std@@@12@@Z
	??$?RU?$select_first@V?$map@V?$basic_string@DU?$char_traits@D@std@@V?$allocator@D@2@@std@@UEnumSettingBits@Trellis@@U?$less@V?$basic_string@DU?$char_traits@D@std@@V?$allocator@D@2@@std@@@2@V?$allocator@U?$pair@$$CBV?$basic_string@DU?$char_traits@D@std@@V?$allocator@D@2@@std@@UEnumSettingBits@Trellis@@@std@@@2@@std@@@range_detail@boost@@@?$forwarder@Utransform_holder@range_detail@boost@@@range_detail@boost@@QEBA?AU?$transform_holder@U?$select_first@V?$map@V?$basic_string@DU?$char_traits@D@std@@V?$allocator@D@2@@std@@UEnumSettingBits@Trellis@@U?$less@V?$basic_string@DU?$char_traits@D@std@@V?$allocator@D@2@@std@@@2@V?$allocator@U?$pair@$$CBV?$basic_string@DU?$char_traits@D@std@@V?$allocator@D@2@@std@@UEnumSettingBits@Trellis@@@std@@@2@@std@@@range_detail@boost@@@12@U?$select_first@V?$map@V?$basic_string@DU?$char_traits@D@std@@V?$allocator@D@2@@std@@UEnumSettingBits@Trellis@@U?$less@V?$basic_string@DU?$char_traits@D@std@@V?$allocator@D@2@@std@@@2@V?$allocator@U?$pair@$$CBV?$basic_string@DU?$char_traits@D@std@@V?$allocator@D@2@@std@@UEnumSettingBits@Trellis@@@std@@@2@@std@@@12@@Z
	??$?RU?$select_first@V?$map@V?$basic_string@DU?$char_traits@D@std@@V?$allocator@D@2@@std@@UMuxBits@Trellis@@U?$less@V?$basic_string@DU?$char_traits@D@std@@V?$allocator@D@2@@std@@@2@V?$allocator@U?$pair@$$CBV?$basic_string@DU?$char_traits@D@std@@V?$allocator@D@2@@std@@UMuxBits@Trellis@@@std@@@2@@std@@@range_detail@boost@@@?$forwarder@Utransform_holder@range_detail@boost@@@range_detail@boost@@QEBA?AU?$transform_holder@U?$select_first@V?$map@V?$basic_string@DU?$char_traits@D@std@@V?$allocator@D@2@@std@@UMuxBits@Trellis@@U?$less@V?$basic_string@DU?$char_traits@D@std@@V?$allocator@D@2@@std@@@2@V?$allocator@U?$pair@$$CBV?$basic_string@DU?$char_traits@D@std@@V?$allocator@D@2@@std@@UMuxBits@Trellis@@@std@@@2@@std@@@range_detail@boost@@@12@U?$select_first@V?$map@V?$basic_string@DU?$char_traits@D@std@@V?$allocator@D@2@@std@@UMuxBits@Trellis@@U?$less@V?$basic_string@DU?$char_traits@D@std@@V?$allocator@D@2@@std@@@2@V?$allocator@U?$pair@$$CBV?$basic_string@DU?$char_traits@D@std@@V?$allocator@D@2@@std@@UMuxBits@Trellis@@@std@@@2@@std@@@12@@Z
	??$?RU?$select_first@V?$map@V?$basic_string@DU?$char_traits@D@std@@V?$allocator@D@2@@std@@UWordSettingBits@Trellis@@U?$less@V?$basic_string@DU?$char_traits@D@std@@V?$allocator@D@2@@std@@@2@V?$allocator@U?$pair@$$CBV?$basic_string@DU?$char_traits@D@std@@V?$allocator@D@2@@std@@UWordSettingBits@Trellis@@@std@@@2@@std@@@range_detail@boost@@@?$forwarder@Utransform_holder@range_detail@boost@@@range_detail@boost@@QEBA?AU?$transform_holder@U?$select_first@V?$map@V?$basic_string@DU?$char_traits@D@std@@V?$allocator@D@2@@std@@UWordSettingBits@Trellis@@U?$less@V?$basic_string@DU?$char_traits@D@std@@V?$allocator@D@2@@std@@@2@V?$allocator@U?$pair@$$CBV?$basic_string@DU?$char_traits@D@std@@V?$allocator@D@2@@std@@UWordSettingBits@Trellis@@@std@@@2@@std@@@range_detail@boost@@@12@U?$select_first@V?$map@V?$basic_string@DU?$char_traits@D@std@@V?$allocator@D@2@@std@@UWordSettingBits@Trellis@@U?$less@V?$basic_string@DU?$char_traits@D@std@@V?$allocator@D@2@@std@@@2@V?$allocator@U?$pair@$$CBV?$basic_string@DU?$char_traits@D@std@@V?$allocator@D@2@@std@@UWordSettingBits@Trellis@@@std@@@2@@std@@@12@@Z
	??$?RUConfigBit@Trellis@@@?$_Uhash_compare@UConfigBit@Trellis@@U?$hash@UConfigBit@Trellis@@@std@@U?$equal_to@UConfigBit@Trellis@@@4@@std@@QEBA_KAEBUConfigBit@Trellis@@@Z
	??$?RUConfigBit@Trellis@@U01@@?$_Uhash_compare@UConfigBit@Trellis@@U?$hash@UConfigBit@Trellis@@@std@@U?$equal_to@UConfigBit@Trellis@@@4@@std@@QEBA_NAEBUConfigBit@Trellis@@0@Z
	??$?RUTileLocator@Trellis@@@?$_Uhash_compare@UTileLocator@Trellis@@U?$hash@UTileLocator@Trellis@@@std@@U?$equal_to@UTileLocator@Trellis@@@4@@std@@QEBA_KAEBUTileLocator@Trellis@@@Z
	??$?RUTileLocator@Trellis@@U01@@?$_Uhash_compare@UTileLocator@Trellis@@U?$hash@UTileLocator@Trellis@@@std@@U?$equal_to@UTileLocator@Trellis@@@4@@std@@QEBA_NAEBUTileLocator@Trellis@@0@Z
	??$?RV?$basic_string@DU?$char_traits@D@std@@V?$allocator@D@2@@std@@@?$_Uhash_compare@V?$basic_string@DU?$char_traits@D@std@@V?$allocator@D@2@@std@@U?$hash@V?$basic_string@DU?$char_traits@D@std@@V?$allocator@D@2@@std@@@2@U?$equal_to@V?$basic_string@DU?$char_traits@D@std@@V?$allocator@D@2@@std@@@2@@std@@QEBA_KAEBV?$basic_string@DU?$char_traits@D@std@@V?$allocator@D@2@@1@@Z
	??$?RV?$basic_string@DU?$char_traits@D@std@@V?$allocator@D@2@@std@@V01@@?$_Uhash_compare@V?$basic_string@DU?$char_traits@D@std@@V?$allocator@D@2@@std@@U?$hash@V?$basic_string@DU?$char_traits@D@std@@V?$allocator@D@2@@std@@@2@U?$equal_to@V?$basic_string@DU?$char_traits@D@std@@V?$allocator@D@2@@std@@@2@@std@@QEBA_NAEBV?$basic_string@DU?$char_traits@D@std@@V?$allocator@D@2@@1@0@Z
	??$?RXV?$mf@P8?$parser@V?$standard_callbacks@V?$basic_ptree@V?$basic_string@DU?$char_traits@D@std@@V?$allocator@D@2@@std@@V12@U?$less@V?$basic_string@DU?$char_traits@D@std@@V?$allocator@D@2@@std@@@2@@property_tree@boost@@@detail@json_parser@property_tree@boost@@U?$encoding@D@2345@V?$istreambuf_iterator@DU?$char_traits@D@std@@@std@@V78@@detail@json_parser@property_tree@boost@@EAAXPEBD@ZXV12345@PEBD@_mfi@boost@@V?$rrlist@$$V@_bi@2@@?$list@V?$value@PEAV?$parser@V?$standard_callbacks@V?$basic_ptree@V?$basic_string@DU?$char_traits@D@std@@V?$allocator@D@2@@std@@V12@U?$less@V?$basic_string@DU?$char_traits@D@std@@V?$allocator@D@2@@std@@@2@@property_tree@boost@@@detail@json_parser@property_tree@boost@@U?$encoding@D@2345@V?$istreambuf_iterator@DU?$char_traits@D@std@@@std@@V78@@detail@json_parser@property_tree@boost@@@_bi@boost@@V?$value@PEBD@23@@_bi@boost@@QEAAXV?$type@X@12@AEAV?$mf@P8?$parser@V?$standard_callbacks@V?$basic_ptree@V?$basic_string@DU?$char_traits@D@std@@V?$allocator@D@2@@std@@V12@U?$less@V?$basic_string@DU?$char_traits@D@std@@V?$allocator@D@2@@std@@@2@@property_tree@boost@@@detail@json_parser@property_tree@boost@@U?$encoding@D@2345@V?$istreambuf_iterator@DU?$char_traits@D@std@@@std@@V78@@detail@json_parser@property_tree@boost@@EAAXPEBD@ZXV12345@PEBD@_mfi@2@AEAV?$rrlist@$$V@12@@Z
	??$?RXV?$mf@P8?$standard_callbacks@V?$basic_ptree@V?$basic_string@DU?$char_traits@D@std@@V?$allocator@D@2@@std@@V12@U?$less@V?$basic_string@DU?$char_traits@D@std@@V?$allocator@D@2@@std@@@2@@property_tree@boost@@@detail@json_parser@property_tree@boost@@EAAXD@ZXV12345@D@_mfi@boost@@V?$rrlist@AEAE@_bi@2@@?$list@V?$reference_wrapper@V?$standard_callbacks@V?$basic_ptree@V?$basic_string@DU?$char_traits@D@std@@V?$allocator@D@2@@std@@V12@U?$less@V?$basic_string@DU?$char_traits@D@std@@V?$allocator@D@2@@std@@@2@@property_tree@boost@@@detail@json_parser@property_tree@boost@@@boost@@U?$arg@$00@2@@_bi@boost@@QEAAXV?$type@X@12@AEAV?$mf@P8?$standard_callbacks@V?$basic_ptree@V?$basic_string@DU?$char_traits@D@std@@V?$allocator@D@2@@std@@V12@U?$less@V?$basic_string@DU?$char_traits@D@std@@V?$allocator@D@2@@std@@@2@@property_tree@boost@@@detail@json_parser@property_tree@boost@@EAAXD@ZXV12345@D@_mfi@2@AEAV?$rrlist@AEAE@12@@Z
	??$?RXV?$mf@P8?$standard_callbacks@V?$basic_ptree@V?$basic_string@DU?$char_traits@D@std@@V?$allocator@D@2@@std@@V12@U?$less@V?$basic_string@DU?$char_traits@D@std@@V?$allocator@D@2@@std@@@2@@property_tree@boost@@@detail@json_parser@property_tree@boost@@EAAXD@ZXV12345@D@_mfi@boost@@V?$rrlist@D@_bi@2@@?$list@V?$reference_wrapper@V?$standard_callbacks@V?$basic_ptree@V?$basic_string@DU?$char_traits@D@std@@V?$allocator@D@2@@std@@V12@U?$less@V?$basic_string@DU?$char_traits@D@std@@V?$allocator@D@2@@std@@@2@@property_tree@boost@@@detail@json_parser@property_tree@boost@@@boost@@U?$arg@$00@2@@_bi@boost@@QEAAXV?$type@X@12@AEAV?$mf@P8?$standard_callbacks@V?$basic_ptree@V?$basic_string@DU?$char_traits@D@std@@V?$allocator@D@2@@std@@V12@U?$less@V?$basic_string@DU?$char_traits@D@std@@V?$allocator@D@2@@std@@@2@@property_tree@boost@@@detail@json_parser@property_tree@boost@@EAAXD@ZXV12345@D@_mfi@2@AEAV?$rrlist@D@12@@Z
	??$?UV?$map@V?$basic_string@DU?$char_traits@D@std@@V?$allocator@D@2@@std@@UArcData@Trellis@@U?$less@V?$basic_string@DU?$char_traits@D@std@@V?$allocator@D@2@@std@@@2@V?$allocator@U?$pair@$$CBV?$basic_string@DU?$char_traits@D@std@@V?$allocator@D@2@@std@@UArcData@Trellis@@@std@@@2@@std@@@range_detail@boost@@YA?AV?$select_first_range@V?$map@V?$basic_string@DU?$char_traits@D@std@@V?$allocator@D@2@@std@@UArcData@Trellis@@U?$less@V?$basic_string@DU?$char_traits@D@std@@V?$allocator@D@2@@std@@@2@V?$allocator@U?$pair@$$CBV?$basic_string@DU?$char_traits@D@std@@V?$allocator@D@2@@std@@UArcData@Trellis@@@std@@@2@@std@@@01@AEBV?$map@V?$basic_string@DU?$char_traits@D@std@@V?$allocator@D@2@@std@@UArcData@Trellis@@U?$less@V?$basic_string@DU?$char_traits@D@std@@V?$allocator@D@2@@std@@@2@V?$allocator@U?$pair@$$CBV?$basic_string@DU?$char_traits@D@std@@V?$allocator@D@2@@std@@UArcData@Trellis@@@std@@@2@@std@@Umap_keys_forwarder@01@@Z
	??$?UV?$map@V?$basic_string@DU?$char_traits@D@std@@V?$allocator@D@2@@std@@UArcData@Trellis@@U?$less@V?$basic_string@DU?$char_traits@D@std@@V?$allocator@D@2@@std@@@2@V?$allocator@U?$pair@$$CBV?$basic_string@DU?$char_traits@D@std@@V?$allocator@D@2@@std@@UArcData@Trellis@@@std@@@2@@std@@U?$select_first@V?$map@V?$basic_string@DU?$char_traits@D@std@@V?$allocator@D@2@@std@@UArcData@Trellis@@U?$less@V?$basic_string@DU?$char_traits@D@std@@V?$allocator@D@2@@std@@@2@V?$allocator@U?$pair@$$CBV?$basic_string@DU?$char_traits@D@std@@V?$allocator@D@2@@std@@UArcData@Trellis@@@std@@@2@@std@@@range_detail@boost@@@range_detail@boost@@YA?AU?$transformed_range@U?$select_first@V?$map@V?$basic_string@DU?$char_traits@D@std@@V?$allocator@D@2@@std@@UArcData@Trellis@@U?$less@V?$basic_string@DU?$char_traits@D@std@@V?$allocator@D@2@@std@@@2@V?$allocator@U?$pair@$$CBV?$basic_string@DU?$char_traits@D@std@@V?$allocator@D@2@@std@@UArcData@Trellis@@@std@@@2@@std@@@range_detail@boost@@$$CBV?$map@V?$basic_string@DU?$char_traits@D@std@@V?$allocator@D@2@@std@@UArcData@Trellis@@U?$less@V?$basic_string@DU?$char_traits@D@std@@V?$allocator@D@2@@std@@@2@V?$allocator@U?$pair@$$CBV?$basic_string@DU?$char_traits@D@std@@V?$allocator@D@2@@std@@UArcData@Trellis@@@std@@@2@@std@@@01@AEBV?$map@V?$basic_string@DU?$char_traits@D@std@@V?$allocator@D@2@@std@@UArcData@Trellis@@U?$less@V?$basic_string@DU?$char_traits@D@std@@V?$allocator@D@2@@std@@@2@V?$allocator@U?$pair@$$CBV?$basic_string@DU?$char_traits@D@std@@V?$allocator@D@2@@std@@UArcData@Trellis@@@std@@@2@@std@@AEBU?$transform_holder@U?$select_first@V?$map@V?$basic_string@DU?$char_traits@D@std@@V?$allocator@D@2@@std@@UArcData@Trellis@@U?$less@V?$basic_string@DU?$char_traits@D@std@@V?$allocator@D@2@@std@@@2@V?$allocator@U?$pair@$$CBV?$basic_string@DU?$char_traits@D@std@@V?$allocator@D@2@@std@@UArcData@Trellis@@@std@@@2@@std@@@range_detail@boost@@@01@@Z
	??$?UV?$map@V?$basic_string@DU?$char_traits@D@std@@V?$allocator@D@2@@std@@UBitGroup@Trellis@@U?$less@V?$basic_string@DU?$char_traits@D@std@@V?$allocator@D@2@@std@@@2@V?$allocator@U?$pair@$$CBV?$basic_string@DU?$char_traits@D@std@@V?$allocator@D@2@@std@@UBitGroup@Trellis@@@std@@@2@@std@@@range_detail@boost@@YA?AV?$select_first_range@V?$map@V?$basic_string@DU?$char_traits@D@std@@V?$allocator@D@2@@std@@UBitGroup@Trellis@@U?$less@V?$basic_string@DU?$char_traits@D@std@@V?$allocator@D@2@@std@@@2@V?$allocator@U?$pair@$$CBV?$basic_string@DU?$char_traits@D@std@@V?$allocator@D@2@@std@@UBitGroup@Trellis@@@std@@@2@@std@@@01@AEBV?$map@V?$basic_string@DU?$char_traits@D@std@@V?$allocator@D@2@@std@@UBitGroup@Trellis@@U?$less@V?$basic_string@DU?$char_traits@D@std@@V?$allocator@D@2@@std@@@2@V?$allocator@U?$pair@$$CBV?$basic_string@DU?$char_traits@D@std@@V?$allocator@D@2@@std@@UBitGroup@Trellis@@@std@@@2@@std@@Umap_keys_forwarder@01@@Z
	??$?UV?$map@V?$basic_string@DU?$char_traits@D@std@@V?$allocator@D@2@@std@@UBitGroup@Trellis@@U?$less@V?$basic_string@DU?$char_traits@D@std@@V?$allocator@D@2@@std@@@2@V?$allocator@U?$pair@$$CBV?$basic_string@DU?$char_traits@D@std@@V?$allocator@D@2@@std@@UBitGroup@Trellis@@@std@@@2@@std@@U?$select_first@V?$map@V?$basic_string@DU?$char_traits@D@std@@V?$allocator@D@2@@std@@UBitGroup@Trellis@@U?$less@V?$basic_string@DU?$char_traits@D@std@@V?$allocator@D@2@@std@@@2@V?$allocator@U?$pair@$$CBV?$basic_string@DU?$char_traits@D@std@@V?$allocator@D@2@@std@@UBitGroup@Trellis@@@std@@@2@@std@@@range_detail@boost@@@range_detail@boost@@YA?AU?$transformed_range@U?$select_first@V?$map@V?$basic_string@DU?$char_traits@D@std@@V?$allocator@D@2@@std@@UBitGroup@Trellis@@U?$less@V?$basic_string@DU?$char_traits@D@std@@V?$allocator@D@2@@std@@@2@V?$allocator@U?$pair@$$CBV?$basic_string@DU?$char_traits@D@std@@V?$allocator@D@2@@std@@UBitGroup@Trellis@@@std@@@2@@std@@@range_detail@boost@@$$CBV?$map@V?$basic_string@DU?$char_traits@D@std@@V?$allocator@D@2@@std@@UBitGroup@Trellis@@U?$less@V?$basic_string@DU?$char_traits@D@std@@V?$allocator@D@2@@std@@@2@V?$allocator@U?$pair@$$CBV?$basic_string@DU?$char_traits@D@std@@V?$allocator@D@2@@std@@UBitGroup@Trellis@@@std@@@2@@std@@@01@AEBV?$map@V?$basic_string@DU?$char_traits@D@std@@V?$allocator@D@2@@std@@UBitGroup@Trellis@@U?$less@V?$basic_string@DU?$char_traits@D@std@@V?$allocator@D@2@@std@@@2@V?$allocator@U?$pair@$$CBV?$basic_string@DU?$char_traits@D@std@@V?$allocator@D@2@@std@@UBitGroup@Trellis@@@std@@@2@@std@@AEBU?$transform_holder@U?$select_first@V?$map@V?$basic_string@DU?$char_traits@D@std@@V?$allocator@D@2@@std@@UBitGroup@Trellis@@U?$less@V?$basic_string@DU?$char_traits@D@std@@V?$allocator@D@2@@std@@@2@V?$allocator@U?$pair@$$CBV?$basic_string@DU?$char_traits@D@std@@V?$allocator@D@2@@std@@UBitGroup@Trellis@@@std@@@2@@std@@@range_detail@boost@@@01@@Z
	??$?UV?$map@V?$basic_string@DU?$char_traits@D@std@@V?$allocator@D@2@@std@@UEnumSettingBits@Trellis@@U?$less@V?$basic_string@DU?$char_traits@D@std@@V?$allocator@D@2@@std@@@2@V?$allocator@U?$pair@$$CBV?$basic_string@DU?$char_traits@D@std@@V?$allocator@D@2@@std@@UEnumSettingBits@Trellis@@@std@@@2@@std@@@range_detail@boost@@YA?AV?$select_first_range@V?$map@V?$basic_string@DU?$char_traits@D@std@@V?$allocator@D@2@@std@@UEnumSettingBits@Trellis@@U?$less@V?$basic_string@DU?$char_traits@D@std@@V?$allocator@D@2@@std@@@2@V?$allocator@U?$pair@$$CBV?$basic_string@DU?$char_traits@D@std@@V?$allocator@D@2@@std@@UEnumSettingBits@Trellis@@@std@@@2@@std@@@01@AEBV?$map@V?$basic_string@DU?$char_traits@D@std@@V?$allocator@D@2@@std@@UEnumSettingBits@Trellis@@U?$less@V?$basic_string@DU?$char_traits@D@std@@V?$allocator@D@2@@std@@@2@V?$allocator@U?$pair@$$CBV?$basic_string@DU?$char_traits@D@std@@V?$allocator@D@2@@std@@UEnumSettingBits@Trellis@@@std@@@2@@std@@Umap_keys_forwarder@01@@Z
	??$?UV?$map@V?$basic_string@DU?$char_traits@D@std@@V?$allocator@D@2@@std@@UEnumSettingBits@Trellis@@U?$less@V?$basic_string@DU?$char_traits@D@std@@V?$allocator@D@2@@std@@@2@V?$allocator@U?$pair@$$CBV?$basic_string@DU?$char_traits@D@std@@V?$allocator@D@2@@std@@UEnumSettingBits@Trellis@@@std@@@2@@std@@U?$select_first@V?$map@V?$basic_string@DU?$char_traits@D@std@@V?$allocator@D@2@@std@@UEnumSettingBits@Trellis@@U?$less@V?$basic_string@DU?$char_traits@D@std@@V?$allocator@D@2@@std@@@2@V?$allocator@U?$pair@$$CBV?$basic_string@DU?$char_traits@D@std@@V?$allocator@D@2@@std@@UEnumSettingBits@Trellis@@@std@@@2@@std@@@range_detail@boost@@@range_detail@boost@@YA?AU?$transformed_range@U?$select_first@V?$map@V?$basic_string@DU?$char_traits@D@std@@V?$allocator@D@2@@std@@UEnumSettingBits@Trellis@@U?$less@V?$basic_string@DU?$char_traits@D@std@@V?$allocator@D@2@@std@@@2@V?$allocator@U?$pair@$$CBV?$basic_string@DU?$char_traits@D@std@@V?$allocator@D@2@@std@@UEnumSettingBits@Trellis@@@std@@@2@@std@@@range_detail@boost@@$$CBV?$map@V?$basic_string@DU?$char_traits@D@std@@V?$allocator@D@2@@std@@UEnumSettingBits@Trellis@@U?$less@V?$basic_string@DU?$char_traits@D@std@@V?$allocator@D@2@@std@@@2@V?$allocator@U?$pair@$$CBV?$basic_string@DU?$char_traits@D@std@@V?$allocator@D@2@@std@@UEnumSettingBits@Trellis@@@std@@@2@@std@@@01@AEBV?$map@V?$basic_string@DU?$char_traits@D@std@@V?$allocator@D@2@@std@@UEnumSettingBits@Trellis@@U?$less@V?$basic_string@DU?$char_traits@D@std@@V?$allocator@D@2@@std@@@2@V?$allocator@U?$pair@$$CBV?$basic_string@DU?$char_traits@D@std@@V?$allocator@D@2@@std@@UEnumSettingBits@Trellis@@@std@@@2@@std@@AEBU?$transform_holder@U?$select_first@V?$map@V?$basic_string@DU?$char_traits@D@std@@V?$allocator@D@2@@std@@UEnumSettingBits@Trellis@@U?$less@V?$basic_string@DU?$char_traits@D@std@@V?$allocator@D@2@@std@@@2@V?$allocator@U?$pair@$$CBV?$basic_string@DU?$char_traits@D@std@@V?$allocator@D@2@@std@@UEnumSettingBits@Trellis@@@std@@@2@@std@@@range_detail@boost@@@01@@Z
	??$?UV?$map@V?$basic_string@DU?$char_traits@D@std@@V?$allocator@D@2@@std@@UMuxBits@Trellis@@U?$less@V?$basic_string@DU?$char_traits@D@std@@V?$allocator@D@2@@std@@@2@V?$allocator@U?$pair@$$CBV?$basic_string@DU?$char_traits@D@std@@V?$allocator@D@2@@std@@UMuxBits@Trellis@@@std@@@2@@std@@@range_detail@boost@@YA?AV?$select_first_range@V?$map@V?$basic_string@DU?$char_traits@D@std@@V?$allocator@D@2@@std@@UMuxBits@Trellis@@U?$less@V?$basic_string@DU?$char_traits@D@std@@V?$allocator@D@2@@std@@@2@V?$allocator@U?$pair@$$CBV?$basic_string@DU?$char_traits@D@std@@V?$allocator@D@2@@std@@UMuxBits@Trellis@@@std@@@2@@std@@@01@AEBV?$map@V?$basic_string@DU?$char_traits@D@std@@V?$allocator@D@2@@std@@UMuxBits@Trellis@@U?$less@V?$basic_string@DU?$char_traits@D@std@@V?$allocator@D@2@@std@@@2@V?$allocator@U?$pair@$$CBV?$basic_string@DU?$char_traits@D@std@@V?$allocator@D@2@@std@@UMuxBits@Trellis@@@std@@@2@@std@@Umap_keys_forwarder@01@@Z
	??$?UV?$map@V?$basic_string@DU?$char_traits@D@std@@V?$allocator@D@2@@std@@UMuxBits@Trellis@@U?$less@V?$basic_string@DU?$char_traits@D@std@@V?$allocator@D@2@@std@@@2@V?$allocator@U?$pair@$$CBV?$basic_string@DU?$char_traits@D@std@@V?$allocator@D@2@@std@@UMuxBits@Trellis@@@std@@@2@@std@@U?$select_first@V?$map@V?$basic_string@DU?$char_traits@D@std@@V?$allocator@D@2@@std@@UMuxBits@Trellis@@U?$less@V?$basic_string@DU?$char_traits@D@std@@V?$allocator@D@2@@std@@@2@V?$allocator@U?$pair@$$CBV?$basic_string@DU?$char_traits@D@std@@V?$allocator@D@2@@std@@UMuxBits@Trellis@@@std@@@2@@std@@@range_detail@boost@@@range_detail@boost@@YA?AU?$transformed_range@U?$select_first@V?$map@V?$basic_string@DU?$char_traits@D@std@@V?$allocator@D@2@@std@@UMuxBits@Trellis@@U?$less@V?$basic_string@DU?$char_traits@D@std@@V?$allocator@D@2@@std@@@2@V?$allocator@U?$pair@$$CBV?$basic_string@DU?$char_traits@D@std@@V?$allocator@D@2@@std@@UMuxBits@Trellis@@@std@@@2@@std@@@range_detail@boost@@$$CBV?$map@V?$basic_string@DU?$char_traits@D@std@@V?$allocator@D@2@@std@@UMuxBits@Trellis@@U?$less@V?$basic_string@DU?$char_traits@D@std@@V?$allocator@D@2@@std@@@2@V?$allocator@U?$pair@$$CBV?$basic_string@DU?$char_traits@D@std@@V?$allocator@D@2@@std@@UMuxBits@Trellis@@@std@@@2@@std@@@01@AEBV?$map@V?$basic_string@DU?$char_traits@D@std@@V?$allocator@D@2@@std@@UMuxBits@Trellis@@U?$less@V?$basic_string@DU?$char_traits@D@std@@V?$allocator@D@2@@std@@@2@V?$allocator@U?$pair@$$CBV?$basic_string@DU?$char_traits@D@std@@V?$allocator@D@2@@std@@UMuxBits@Trellis@@@std@@@2@@std@@AEBU?$transform_holder@U?$select_first@V?$map@V?$basic_string@DU?$char_traits@D@std@@V?$allocator@D@2@@std@@UMuxBits@Trellis@@U?$less@V?$basic_string@DU?$char_traits@D@std@@V?$allocator@D@2@@std@@@2@V?$allocator@U?$pair@$$CBV?$basic_string@DU?$char_traits@D@std@@V?$allocator@D@2@@std@@UMuxBits@Trellis@@@std@@@2@@std@@@range_detail@boost@@@01@@Z
	??$?UV?$map@V?$basic_string@DU?$char_traits@D@std@@V?$allocator@D@2@@std@@UWordSettingBits@Trellis@@U?$less@V?$basic_string@DU?$char_traits@D@std@@V?$allocator@D@2@@std@@@2@V?$allocator@U?$pair@$$CBV?$basic_string@DU?$char_traits@D@std@@V?$allocator@D@2@@std@@UWordSettingBits@Trellis@@@std@@@2@@std@@@range_detail@boost@@YA?AV?$select_first_range@V?$map@V?$basic_string@DU?$char_traits@D@std@@V?$allocator@D@2@@std@@UWordSettingBits@Trellis@@U?$less@V?$basic_string@DU?$char_traits@D@std@@V?$allocator@D@2@@std@@@2@V?$allocator@U?$pair@$$CBV?$basic_string@DU?$char_traits@D@std@@V?$allocator@D@2@@std@@UWordSettingBits@Trellis@@@std@@@2@@std@@@01@AEBV?$map@V?$basic_string@DU?$char_traits@D@std@@V?$allocator@D@2@@std@@UWordSettingBits@Trellis@@U?$less@V?$basic_string@DU?$char_traits@D@std@@V?$allocator@D@2@@std@@@2@V?$allocator@U?$pair@$$CBV?$basic_string@DU?$char_traits@D@std@@V?$allocator@D@2@@std@@UWordSettingBits@Trellis@@@std@@@2@@std@@Umap_keys_forwarder@01@@Z
	??$?UV?$map@V?$basic_string@DU?$char_traits@D@std@@V?$allocator@D@2@@std@@UWordSettingBits@Trellis@@U?$less@V?$basic_string@DU?$char_traits@D@std@@V?$allocator@D@2@@std@@@2@V?$allocator@U?$pair@$$CBV?$basic_string@DU?$char_traits@D@std@@V?$allocator@D@2@@std@@UWordSettingBits@Trellis@@@std@@@2@@std@@U?$select_first@V?$map@V?$basic_string@DU?$char_traits@D@std@@V?$allocator@D@2@@std@@UWordSettingBits@Trellis@@U?$less@V?$basic_string@DU?$char_traits@D@std@@V?$allocator@D@2@@std@@@2@V?$allocator@U?$pair@$$CBV?$basic_string@DU?$char_traits@D@std@@V?$allocator@D@2@@std@@UWordSettingBits@Trellis@@@std@@@2@@std@@@range_detail@boost@@@range_detail@boost@@YA?AU?$transformed_range@U?$select_first@V?$map@V?$basic_string@DU?$char_traits@D@std@@V?$allocator@D@2@@std@@UWordSettingBits@Trellis@@U?$less@V?$basic_string@DU?$char_traits@D@std@@V?$allocator@D@2@@std@@@2@V?$allocator@U?$pair@$$CBV?$basic_string@DU?$char_traits@D@std@@V?$allocator@D@2@@std@@UWordSettingBits@Trellis@@@std@@@2@@std@@@range_detail@boost@@$$CBV?$map@V?$basic_string@DU?$char_traits@D@std@@V?$allocator@D@2@@std@@UWordSettingBits@Trellis@@U?$less@V?$basic_string@DU?$char_traits@D@std@@V?$allocator@D@2@@std@@@2@V?$allocator@U?$pair@$$CBV?$basic_string@DU?$char_traits@D@std@@V?$allocator@D@2@@std@@UWordSettingBits@Trellis@@@std@@@2@@std@@@01@AEBV?$map@V?$basic_string@DU?$char_traits@D@std@@V?$allocator@D@2@@std@@UWordSettingBits@Trellis@@U?$less@V?$basic_string@DU?$char_traits@D@std@@V?$allocator@D@2@@std@@@2@V?$allocator@U?$pair@$$CBV?$basic_string@DU?$char_traits@D@std@@V?$allocator@D@2@@std@@UWordSettingBits@Trellis@@@std@@@2@@std@@AEBU?$transform_holder@U?$select_first@V?$map@V?$basic_string@DU?$char_traits@D@std@@V?$allocator@D@2@@std@@UWordSettingBits@Trellis@@U?$less@V?$basic_string@DU?$char_traits@D@std@@V?$allocator@D@2@@std@@@2@V?$allocator@U?$pair@$$CBV?$basic_string@DU?$char_traits@D@std@@V?$allocator@D@2@@std@@UWordSettingBits@Trellis@@@std@@@2@@std@@@range_detail@boost@@@01@@Z
	??$_Adl_verify_range@PEADPEAD@std@@YAXAEBQEAD0@Z
	??$_Adl_verify_range@PEAEPEAE@std@@YAXAEBQEAE0@Z
	??$_Adl_verify_range@PEAU?$copy_map_entry@U?$sequenced_index_node@U?$ordered_index_node@Unull_augment_policy@detail@multi_index@boost@@U?$index_node_base@U?$pair@$$CBV?$basic_string@DU?$char_traits@D@std@@V?$allocator@D@2@@std@@V?$basic_ptree@V?$basic_string@DU?$char_traits@D@std@@V?$allocator@D@2@@std@@V12@U?$less@V?$basic_string@DU?$char_traits@D@std@@V?$allocator@D@2@@std@@@2@@property_tree@boost@@@std@@V?$allocator@U?$pair@$$CBV?$basic_string@DU?$char_traits@D@std@@V?$allocator@D@2@@std@@V?$basic_ptree@V?$basic_string@DU?$char_traits@D@std@@V?$allocator@D@2@@std@@V12@U?$less@V?$basic_string@DU?$char_traits@D@std@@V?$allocator@D@2@@std@@@2@@property_tree@boost@@@std@@@2@@234@@detail@multi_index@boost@@@detail@multi_index@boost@@@detail@multi_index@boost@@PEAU1234@@std@@YAXAEBQEAU?$copy_map_entry@U?$sequenced_index_node@U?$ordered_index_node@Unull_augment_policy@detail@multi_index@boost@@U?$index_node_base@U?$pair@$$CBV?$basic_string@DU?$char_traits@D@std@@V?$allocator@D@2@@std@@V?$basic_ptree@V?$basic_string@DU?$char_traits@D@std@@V?$allocator@D@2@@std@@V12@U?$less@V?$basic_string@DU?$char_traits@D@std@@V?$allocator@D@2@@std@@@2@@property_tree@boost@@@std@@V?$allocator@U?$pair@$$CBV?$basic_string@DU?$char_traits@D@std@@V?$allocator@D@2@@std@@V?$basic_ptree@V?$basic_string@DU?$char_traits@D@std@@V?$allocator@D@2@@std@@V12@U?$less@V?$basic_string@DU?$char_traits@D@std@@V?$allocator@D@2@@std@@@2@@property_tree@boost@@@std@@@2@@234@@detail@multi_index@boost@@@detail@multi_index@boost@@@detail@multi_index@boost@@0@Z
	??$_Adl_verify_range@PEAV?$_List_unchecked_const_iterator@V?$_List_val@U?$_List_simple_types@UConfigBit@Trellis@@@std@@@std@@U_Iterator_base0@2@@std@@PEAV12@@std@@YAXAEBQEAV?$_List_unchecked_const_iterator@V?$_List_val@U?$_List_simple_types@UConfigBit@Trellis@@@std@@@std@@U_Iterator_base0@2@@0@0@Z
	??$_Adl_verify_range@PEAV?$_List_unchecked_iterator@V?$_List_val@U?$_List_simple_types@U?$pair@$$CBUTileLocator@Trellis@@V?$shared_ptr@VTileBitDatabase@Trellis@@@std@@@std@@@std@@@std@@@std@@PEAV12@@std@@YAXAEBQEAV?$_List_unchecked_iterator@V?$_List_val@U?$_List_simple_types@U?$pair@$$CBUTileLocator@Trellis@@V?$shared_ptr@VTileBitDatabase@Trellis@@@std@@@std@@@std@@@std@@@0@0@Z
	??$_Adl_verify_range@PEAV?$_List_unchecked_iterator@V?$_List_val@U?$_List_simple_types@U?$pair@$$CBV?$basic_string@DU?$char_traits@D@std@@V?$allocator@D@2@@std@@H@std@@@std@@@std@@@std@@PEAV12@@std@@YAXAEBQEAV?$_List_unchecked_iterator@V?$_List_val@U?$_List_simple_types@U?$pair@$$CBV?$basic_string@DU?$char_traits@D@std@@V?$allocator@D@2@@std@@H@std@@@std@@@std@@@0@0@Z
	??$_Adl_verify_range@PEBDPEBD@std@@YAXAEBQEBD0@Z
	??$_Adl_verify_range@PEBIPEBI@std@@YAXAEBQEBI0@Z
	??$_Adl_verify_range@PEBU?$copy_map_entry@U?$sequenced_index_node@U?$ordered_index_node@Unull_augment_policy@detail@multi_index@boost@@U?$index_node_base@U?$pair@$$CBV?$basic_string@DU?$char_traits@D@std@@V?$allocator@D@2@@std@@V?$basic_ptree@V?$basic_string@DU?$char_traits@D@std@@V?$allocator@D@2@@std@@V12@U?$less@V?$basic_string@DU?$char_traits@D@std@@V?$allocator@D@2@@std@@@2@@property_tree@boost@@@std@@V?$allocator@U?$pair@$$CBV?$basic_string@DU?$char_traits@D@std@@V?$allocator@D@2@@std@@V?$basic_ptree@V?$basic_string@DU?$char_traits@D@std@@V?$allocator@D@2@@std@@V12@U?$less@V?$basic_string@DU?$char_traits@D@std@@V?$allocator@D@2@@std@@@2@@property_tree@boost@@@std@@@2@@234@@detail@multi_index@boost@@@detail@multi_index@boost@@@detail@multi_index@boost@@PEBU1234@@std@@YAXAEBQEBU?$copy_map_entry@U?$sequenced_index_node@U?$ordered_index_node@Unull_augment_policy@detail@multi_index@boost@@U?$index_node_base@U?$pair@$$CBV?$basic_string@DU?$char_traits@D@std@@V?$allocator@D@2@@std@@V?$basic_ptree@V?$basic_string@DU?$char_traits@D@std@@V?$allocator@D@2@@std@@V12@U?$less@V?$basic_string@DU?$char_traits@D@std@@V?$allocator@D@2@@std@@@2@@property_tree@boost@@@std@@V?$allocator@U?$pair@$$CBV?$basic_string@DU?$char_traits@D@std@@V?$allocator@D@2@@std@@V?$basic_ptree@V?$basic_string@DU?$char_traits@D@std@@V?$allocator@D@2@@std@@V12@U?$less@V?$basic_string@DU?$char_traits@D@std@@V?$allocator@D@2@@std@@@2@@property_tree@boost@@@std@@@2@@234@@detail@multi_index@boost@@@detail@multi_index@boost@@@detail@multi_index@boost@@0@Z
	??$_Adl_verify_range@V?$_String_const_iterator@V?$_String_val@U?$_Simple_types@D@std@@@std@@@std@@V12@@std@@YAXAEBV?$_String_const_iterator@V?$_String_val@U?$_Simple_types@D@std@@@std@@@0@0@Z
	??$_Adl_verify_range@V?$_String_iterator@V?$_String_val@U?$_Simple_types@D@std@@@std@@@std@@V12@@std@@YAXAEBV?$_String_iterator@V?$_String_val@U?$_Simple_types@D@std@@@std@@@0@0@Z
	??$_Adl_verify_range@V?$_Tree_const_iterator@V?$_Tree_val@U?$_Tree_simple_types@UConfigBit@Trellis@@@std@@@std@@@std@@V12@@std@@YAXAEBV?$_Tree_const_iterator@V?$_Tree_val@U?$_Tree_simple_types@UConfigBit@Trellis@@@std@@@std@@@0@0@Z
	??$_Adl_verify_range@V?$_Tree_const_iterator@V?$_Tree_val@U?$_Tree_simple_types@URelId@DDChipDb@Trellis@@@std@@@std@@@std@@V12@@std@@YAXAEBV?$_Tree_const_iterator@V?$_Tree_val@U?$_Tree_simple_types@URelId@DDChipDb@Trellis@@@std@@@std@@@0@0@Z
	??$_Adl_verify_range@V?$_Tree_unchecked_const_iterator@V?$_Tree_val@U?$_Tree_simple_types@U?$pair@$$CBV?$basic_string@DU?$char_traits@D@std@@V?$allocator@D@2@@std@@UEnumSettingBits@Trellis@@@std@@@std@@@std@@U_Iterator_base0@2@@std@@V12@@std@@YAXAEBV?$_Tree_unchecked_const_iterator@V?$_Tree_val@U?$_Tree_simple_types@U?$pair@$$CBV?$basic_string@DU?$char_traits@D@std@@V?$allocator@D@2@@std@@UEnumSettingBits@Trellis@@@std@@@std@@@std@@U_Iterator_base0@2@@0@0@Z
	??$_Adl_verify_range@V?$_Tree_unchecked_const_iterator@V?$_Tree_val@U?$_Tree_simple_types@U?$pair@$$CBV?$basic_string@DU?$char_traits@D@std@@V?$allocator@D@2@@std@@UWordSettingBits@Trellis@@@std@@@std@@@std@@U_Iterator_base0@2@@std@@V12@@std@@YAXAEBV?$_Tree_unchecked_const_iterator@V?$_Tree_val@U?$_Tree_simple_types@U?$pair@$$CBV?$basic_string@DU?$char_traits@D@std@@V?$allocator@D@2@@std@@UWordSettingBits@Trellis@@@std@@@std@@@std@@U_Iterator_base0@2@@0@0@Z
	??$_Adl_verify_range@V?$_Tree_unchecked_const_iterator@V?$_Tree_val@U?$_Tree_simple_types@U?$pair@$$CBV?$basic_string@DU?$char_traits@D@std@@V?$allocator@D@2@@std@@V?$set@UFixedConnection@Trellis@@U?$less@UFixedConnection@Trellis@@@std@@V?$allocator@UFixedConnection@Trellis@@@4@@2@@std@@@std@@@std@@U_Iterator_base0@2@@std@@V12@@std@@YAXAEBV?$_Tree_unchecked_const_iterator@V?$_Tree_val@U?$_Tree_simple_types@U?$pair@$$CBV?$basic_string@DU?$char_traits@D@std@@V?$allocator@D@2@@std@@V?$set@UFixedConnection@Trellis@@U?$less@UFixedConnection@Trellis@@@std@@V?$allocator@UFixedConnection@Trellis@@@4@@2@@std@@@std@@@std@@U_Iterator_base0@2@@0@0@Z
	??$_Adl_verify_range@V?$_Tree_unchecked_const_iterator@V?$_Tree_val@U?$_Tree_simple_types@UConfigBit@Trellis@@@std@@@std@@U_Iterator_base0@2@@std@@V12@@std@@YAXAEBV?$_Tree_unchecked_const_iterator@V?$_Tree_val@U?$_Tree_simple_types@UConfigBit@Trellis@@@std@@@std@@U_Iterator_base0@2@@0@0@Z
	??$_Adl_verify_range@V?$_Vb_iterator@U?$_Wrap_alloc@V?$allocator@I@std@@@std@@@std@@V12@@std@@YAXAEBV?$_Vb_iterator@U?$_Wrap_alloc@V?$allocator@I@std@@@std@@@0@0@Z
	??$_Adl_verify_range@V?$_Vector_const_iterator@V?$_Vector_val@U?$_Simple_types@E@std@@@std@@@std@@V12@@std@@YAXAEBV?$_Vector_const_iterator@V?$_Vector_val@U?$_Simple_types@E@std@@@std@@@0@0@Z
	??$_Adl_verify_range@V?$_Vector_const_iterator@V?$_Vector_val@U?$_Simple_types@H@std@@@std@@@std@@V12@@std@@YAXAEBV?$_Vector_const_iterator@V?$_Vector_val@U?$_Simple_types@H@std@@@std@@@0@0@Z
	??$_Adl_verify_range@V?$_Vector_const_iterator@V?$_Vector_val@U?$_Simple_types@U?$pair@V?$basic_string@DU?$char_traits@D@std@@V?$allocator@D@2@@std@@E@std@@@std@@@std@@@std@@V12@@std@@YAXAEBV?$_Vector_const_iterator@V?$_Vector_val@U?$_Simple_types@U?$pair@V?$basic_string@DU?$char_traits@D@std@@V?$allocator@D@2@@std@@E@std@@@std@@@std@@@0@0@Z
	??$_Adl_verify_range@V?$_Vector_const_iterator@V?$_Vector_val@U?$_Simple_types@UBelData@DDChipDb@Trellis@@@std@@@std@@@std@@V12@@std@@YAXAEBV?$_Vector_const_iterator@V?$_Vector_val@U?$_Simple_types@UBelData@DDChipDb@Trellis@@@std@@@std@@@0@0@Z
	??$_Adl_verify_range@V?$_Vector_const_iterator@V?$_Vector_val@U?$_Simple_types@UBelPort@DDChipDb@Trellis@@@std@@@std@@@std@@V12@@std@@YAXAEBV?$_Vector_const_iterator@V?$_Vector_val@U?$_Simple_types@UBelPort@DDChipDb@Trellis@@@std@@@std@@@0@0@Z
	??$_Adl_verify_range@V?$_Vector_const_iterator@V?$_Vector_val@U?$_Simple_types@UBelWire@DDChipDb@Trellis@@@std@@@std@@@std@@V12@@std@@YAXAEBV?$_Vector_const_iterator@V?$_Vector_val@U?$_Simple_types@UBelWire@DDChipDb@Trellis@@@std@@@std@@@0@0@Z
	??$_Adl_verify_range@V?$_Vector_const_iterator@V?$_Vector_val@U?$_Simple_types@UBitGroup@Trellis@@@std@@@std@@@std@@V12@@std@@YAXAEBV?$_Vector_const_iterator@V?$_Vector_val@U?$_Simple_types@UBitGroup@Trellis@@@std@@@std@@@0@0@Z
	??$_Adl_verify_range@V?$_Vector_const_iterator@V?$_Vector_val@U?$_Simple_types@UDdArcData@DDChipDb@Trellis@@@std@@@std@@@std@@V12@@std@@YAXAEBV?$_Vector_const_iterator@V?$_Vector_val@U?$_Simple_types@UDdArcData@DDChipDb@Trellis@@@std@@@std@@@0@0@Z
	??$_Adl_verify_range@V?$_Vector_const_iterator@V?$_Vector_val@U?$_Simple_types@UWireData@DDChipDb@Trellis@@@std@@@std@@@std@@V12@@std@@YAXAEBV?$_Vector_const_iterator@V?$_Vector_val@U?$_Simple_types@UWireData@DDChipDb@Trellis@@@std@@@std@@@0@0@Z
	??$_Adl_verify_range@V?$_Vector_iterator@V?$_Vector_val@U?$_Simple_types@E@std@@@std@@@std@@V12@@std@@YAXAEBV?$_Vector_iterator@V?$_Vector_val@U?$_Simple_types@E@std@@@std@@@0@0@Z
	??$_Adl_verify_range@V?$_Vector_iterator@V?$_Vector_val@U?$_Simple_types@U?$pair@HE@std@@@std@@@std@@@std@@V12@@std@@YAXAEBV?$_Vector_iterator@V?$_Vector_val@U?$_Simple_types@U?$pair@HE@std@@@std@@@std@@@0@0@Z
	??$_Adl_verify_range@V?$bidir_node_iterator@U?$ordered_index_node@Unull_augment_policy@detail@multi_index@boost@@U?$index_node_base@U?$pair@$$CBV?$basic_string@DU?$char_traits@D@std@@V?$allocator@D@2@@std@@V?$basic_ptree@V?$basic_string@DU?$char_traits@D@std@@V?$allocator@D@2@@std@@V12@U?$less@V?$basic_string@DU?$char_traits@D@std@@V?$allocator@D@2@@std@@@2@@property_tree@boost@@@std@@V?$allocator@U?$pair@$$CBV?$basic_string@DU?$char_traits@D@std@@V?$allocator@D@2@@std@@V?$basic_ptree@V?$basic_string@DU?$char_traits@D@std@@V?$allocator@D@2@@std@@V12@U?$less@V?$basic_string@DU?$char_traits@D@std@@V?$allocator@D@2@@std@@@2@@property_tree@boost@@@std@@@2@@234@@detail@multi_index@boost@@@detail@multi_index@boost@@V1234@@std@@YAXAEBV?$bidir_node_iterator@U?$ordered_index_node@Unull_augment_policy@detail@multi_index@boost@@U?$index_node_base@U?$pair@$$CBV?$basic_string@DU?$char_traits@D@std@@V?$allocator@D@2@@std@@V?$basic_ptree@V?$basic_string@DU?$char_traits@D@std@@V?$allocator@D@2@@std@@V12@U?$less@V?$basic_string@DU?$char_traits@D@std@@V?$allocator@D@2@@std@@@2@@property_tree@boost@@@std@@V?$allocator@U?$pair@$$CBV?$basic_string@DU?$char_traits@D@std@@V?$allocator@D@2@@std@@V?$basic_ptree@V?$basic_string@DU?$char_traits@D@std@@V?$allocator@D@2@@std@@V12@U?$less@V?$basic_string@DU?$char_traits@D@std@@V?$allocator@D@2@@std@@@2@@property_tree@boost@@@std@@@2@@234@@detail@multi_index@boost@@@detail@multi_index@boost@@0@Z
	??$_Adl_verify_range@V?$transform_iterator@U?$select_first@V?$map@V?$basic_string@DU?$char_traits@D@std@@V?$allocator@D@2@@std@@UArcData@Trellis@@U?$less@V?$basic_string@DU?$char_traits@D@std@@V?$allocator@D@2@@std@@@2@V?$allocator@U?$pair@$$CBV?$basic_string@DU?$char_traits@D@std@@V?$allocator@D@2@@std@@UArcData@Trellis@@@std@@@2@@std@@@range_detail@boost@@V?$_Tree_const_iterator@V?$_Tree_val@U?$_Tree_simple_types@U?$pair@$$CBV?$basic_string@DU?$char_traits@D@std@@V?$allocator@D@2@@std@@UArcData@Trellis@@@std@@@std@@@std@@@std@@Uuse_default@3@U63@@iterators@boost@@V123@@std@@YAXAEBV?$transform_iterator@U?$select_first@V?$map@V?$basic_string@DU?$char_traits@D@std@@V?$allocator@D@2@@std@@UArcData@Trellis@@U?$less@V?$basic_string@DU?$char_traits@D@std@@V?$allocator@D@2@@std@@@2@V?$allocator@U?$pair@$$CBV?$basic_string@DU?$char_traits@D@std@@V?$allocator@D@2@@std@@UArcData@Trellis@@@std@@@2@@std@@@range_detail@boost@@V?$_Tree_const_iterator@V?$_Tree_val@U?$_Tree_simple_types@U?$pair@$$CBV?$basic_string@DU?$char_traits@D@std@@V?$allocator@D@2@@std@@UArcData@Trellis@@@std@@@std@@@std@@@std@@Uuse_default@3@U63@@iterators@boost@@0@Z
	??$_Adl_verify_range@V?$transform_iterator@U?$select_first@V?$map@V?$basic_string@DU?$char_traits@D@std@@V?$allocator@D@2@@std@@UBitGroup@Trellis@@U?$less@V?$basic_string@DU?$char_traits@D@std@@V?$allocator@D@2@@std@@@2@V?$allocator@U?$pair@$$CBV?$basic_string@DU?$char_traits@D@std@@V?$allocator@D@2@@std@@UBitGroup@Trellis@@@std@@@2@@std@@@range_detail@boost@@V?$_Tree_const_iterator@V?$_Tree_val@U?$_Tree_simple_types@U?$pair@$$CBV?$basic_string@DU?$char_traits@D@std@@V?$allocator@D@2@@std@@UBitGroup@Trellis@@@std@@@std@@@std@@@std@@Uuse_default@3@U63@@iterators@boost@@V123@@std@@YAXAEBV?$transform_iterator@U?$select_first@V?$map@V?$basic_string@DU?$char_traits@D@std@@V?$allocator@D@2@@std@@UBitGroup@Trellis@@U?$less@V?$basic_string@DU?$char_traits@D@std@@V?$allocator@D@2@@std@@@2@V?$allocator@U?$pair@$$CBV?$basic_string@DU?$char_traits@D@std@@V?$allocator@D@2@@std@@UBitGroup@Trellis@@@std@@@2@@std@@@range_detail@boost@@V?$_Tree_const_iterator@V?$_Tree_val@U?$_Tree_simple_types@U?$pair@$$CBV?$basic_string@DU?$char_traits@D@std@@V?$allocator@D@2@@std@@UBitGroup@Trellis@@@std@@@std@@@std@@@std@@Uuse_default@3@U63@@iterators@boost@@0@Z
	??$_Adl_verify_range@V?$transform_iterator@U?$select_first@V?$map@V?$basic_string@DU?$char_traits@D@std@@V?$allocator@D@2@@std@@UEnumSettingBits@Trellis@@U?$less@V?$basic_string@DU?$char_traits@D@std@@V?$allocator@D@2@@std@@@2@V?$allocator@U?$pair@$$CBV?$basic_string@DU?$char_traits@D@std@@V?$allocator@D@2@@std@@UEnumSettingBits@Trellis@@@std@@@2@@std@@@range_detail@boost@@V?$_Tree_const_iterator@V?$_Tree_val@U?$_Tree_simple_types@U?$pair@$$CBV?$basic_string@DU?$char_traits@D@std@@V?$allocator@D@2@@std@@UEnumSettingBits@Trellis@@@std@@@std@@@std@@@std@@Uuse_default@3@U63@@iterators@boost@@V123@@std@@YAXAEBV?$transform_iterator@U?$select_first@V?$map@V?$basic_string@DU?$char_traits@D@std@@V?$allocator@D@2@@std@@UEnumSettingBits@Trellis@@U?$less@V?$basic_string@DU?$char_traits@D@std@@V?$allocator@D@2@@std@@@2@V?$allocator@U?$pair@$$CBV?$basic_string@DU?$char_traits@D@std@@V?$allocator@D@2@@std@@UEnumSettingBits@Trellis@@@std@@@2@@std@@@range_detail@boost@@V?$_Tree_const_iterator@V?$_Tree_val@U?$_Tree_simple_types@U?$pair@$$CBV?$basic_string@DU?$char_traits@D@std@@V?$allocator@D@2@@std@@UEnumSettingBits@Trellis@@@std@@@std@@@std@@@std@@Uuse_default@3@U63@@iterators@boost@@0@Z
	??$_Adl_verify_range@V?$transform_iterator@U?$select_first@V?$map@V?$basic_string@DU?$char_traits@D@std@@V?$allocator@D@2@@std@@UMuxBits@Trellis@@U?$less@V?$basic_string@DU?$char_traits@D@std@@V?$allocator@D@2@@std@@@2@V?$allocator@U?$pair@$$CBV?$basic_string@DU?$char_traits@D@std@@V?$allocator@D@2@@std@@UMuxBits@Trellis@@@std@@@2@@std@@@range_detail@boost@@V?$_Tree_const_iterator@V?$_Tree_val@U?$_Tree_simple_types@U?$pair@$$CBV?$basic_string@DU?$char_traits@D@std@@V?$allocator@D@2@@std@@UMuxBits@Trellis@@@std@@@std@@@std@@@std@@Uuse_default@3@U63@@iterators@boost@@V123@@std@@YAXAEBV?$transform_iterator@U?$select_first@V?$map@V?$basic_string@DU?$char_traits@D@std@@V?$allocator@D@2@@std@@UMuxBits@Trellis@@U?$less@V?$basic_string@DU?$char_traits@D@std@@V?$allocator@D@2@@std@@@2@V?$allocator@U?$pair@$$CBV?$basic_string@DU?$char_traits@D@std@@V?$allocator@D@2@@std@@UMuxBits@Trellis@@@std@@@2@@std@@@range_detail@boost@@V?$_Tree_const_iterator@V?$_Tree_val@U?$_Tree_simple_types@U?$pair@$$CBV?$basic_string@DU?$char_traits@D@std@@V?$allocator@D@2@@std@@UMuxBits@Trellis@@@std@@@std@@@std@@@std@@Uuse_default@3@U63@@iterators@boost@@0@Z
	??$_Adl_verify_range@V?$transform_iterator@U?$select_first@V?$map@V?$basic_string@DU?$char_traits@D@std@@V?$allocator@D@2@@std@@UWordSettingBits@Trellis@@U?$less@V?$basic_string@DU?$char_traits@D@std@@V?$allocator@D@2@@std@@@2@V?$allocator@U?$pair@$$CBV?$basic_string@DU?$char_traits@D@std@@V?$allocator@D@2@@std@@UWordSettingBits@Trellis@@@std@@@2@@std@@@range_detail@boost@@V?$_Tree_const_iterator@V?$_Tree_val@U?$_Tree_simple_types@U?$pair@$$CBV?$basic_string@DU?$char_traits@D@std@@V?$allocator@D@2@@std@@UWordSettingBits@Trellis@@@std@@@std@@@std@@@std@@Uuse_default@3@U63@@iterators@boost@@V123@@std@@YAXAEBV?$transform_iterator@U?$select_first@V?$map@V?$basic_string@DU?$char_traits@D@std@@V?$allocator@D@2@@std@@UWordSettingBits@Trellis@@U?$less@V?$basic_string@DU?$char_traits@D@std@@V?$allocator@D@2@@std@@@2@V?$allocator@U?$pair@$$CBV?$basic_string@DU?$char_traits@D@std@@V?$allocator@D@2@@std@@UWordSettingBits@Trellis@@@std@@@2@@std@@@range_detail@boost@@V?$_Tree_const_iterator@V?$_Tree_val@U?$_Tree_simple_types@U?$pair@$$CBV?$basic_string@DU?$char_traits@D@std@@V?$allocator@D@2@@std@@UWordSettingBits@Trellis@@@std@@@std@@@std@@@std@@Uuse_default@3@U63@@iterators@boost@@0@Z
	??$_Allocate@$0BA@U_Default_allocate_traits@std@@@std@@YAPEAX_K@Z
	??$_Allocate_at_least_helper@V?$allocator@D@std@@@std@@YAPEADAEAV?$allocator@D@0@AEA_K@Z
	??$_Allocate_at_least_helper@V?$allocator@E@std@@@std@@YAPEAEAEAV?$allocator@E@0@AEA_K@Z
	??$_Allocate_at_least_helper@V?$allocator@G@std@@@std@@YAPEAGAEAV?$allocator@G@0@AEA_K@Z
	??$_Allocate_at_least_helper@V?$allocator@H@std@@@std@@YAPEAHAEAV?$allocator@H@0@AEA_K@Z
	??$_Allocate_at_least_helper@V?$allocator@I@std@@@std@@YAPEAIAEAV?$allocator@I@0@AEA_K@Z
	??$_Allocate_at_least_helper@V?$allocator@U?$pair@HE@std@@@std@@@std@@YAPEAU?$pair@HE@0@AEAV?$allocator@U?$pair@HE@std@@@0@AEA_K@Z
	??$_Allocate_at_least_helper@V?$allocator@U?$pair@URoutingId@Trellis@@H@std@@@std@@@std@@YAPEAU?$pair@URoutingId@Trellis@@H@0@AEAV?$allocator@U?$pair@URoutingId@Trellis@@H@std@@@0@AEA_K@Z
	??$_Allocate_at_least_helper@V?$allocator@U?$pair@V?$basic_string@DU?$char_traits@D@std@@V?$allocator@D@2@@std@@E@std@@@std@@@std@@YAPEAU?$pair@V?$basic_string@DU?$char_traits@D@std@@V?$allocator@D@2@@std@@E@0@AEAV?$allocator@U?$pair@V?$basic_string@DU?$char_traits@D@std@@V?$allocator@D@2@@std@@E@std@@@0@AEA_K@Z
	??$_Allocate_at_least_helper@V?$allocator@U?$pair@V?$basic_string@DU?$char_traits@D@std@@V?$allocator@D@2@@std@@V12@@std@@@std@@@std@@YAPEAU?$pair@V?$basic_string@DU?$char_traits@D@std@@V?$allocator@D@2@@std@@V12@@0@AEAV?$allocator@U?$pair@V?$basic_string@DU?$char_traits@D@std@@V?$allocator@D@2@@std@@V12@@std@@@0@AEA_K@Z
	??$_Allocate_at_least_helper@V?$allocator@U?$pair@V?$basic_string@DU?$char_traits@D@std@@V?$allocator@D@2@@std@@_N@std@@@std@@@std@@YAPEAU?$pair@V?$basic_string@DU?$char_traits@D@std@@V?$allocator@D@2@@std@@_N@0@AEAV?$allocator@U?$pair@V?$basic_string@DU?$char_traits@D@std@@V?$allocator@D@2@@std@@_N@std@@@0@AEA_K@Z
	??$_Allocate_at_least_helper@V?$allocator@UBelData@DDChipDb@Trellis@@@std@@@std@@YAPEAUBelData@DDChipDb@Trellis@@AEAV?$allocator@UBelData@DDChipDb@Trellis@@@0@AEA_K@Z
	??$_Allocate_at_least_helper@V?$allocator@UBelPort@DDChipDb@Trellis@@@std@@@std@@YAPEAUBelPort@DDChipDb@Trellis@@AEAV?$allocator@UBelPort@DDChipDb@Trellis@@@0@AEA_K@Z
	??$_Allocate_at_least_helper@V?$allocator@UBelWire@DDChipDb@Trellis@@@std@@@std@@YAPEAUBelWire@DDChipDb@Trellis@@AEAV?$allocator@UBelWire@DDChipDb@Trellis@@@0@AEA_K@Z
	??$_Allocate_at_least_helper@V?$allocator@UBitGroup@Trellis@@@std@@@std@@YAPEAUBitGroup@Trellis@@AEAV?$allocator@UBitGroup@Trellis@@@0@AEA_K@Z
	??$_Allocate_at_least_helper@V?$allocator@UChangedBit@Trellis@@@std@@@std@@YAPEAUChangedBit@Trellis@@AEAV?$allocator@UChangedBit@Trellis@@@0@AEA_K@Z
	??$_Allocate_at_least_helper@V?$allocator@UConfigArc@Trellis@@@std@@@std@@YAPEAUConfigArc@Trellis@@AEAV?$allocator@UConfigArc@Trellis@@@0@AEA_K@Z
	??$_Allocate_at_least_helper@V?$allocator@UConfigEnum@Trellis@@@std@@@std@@YAPEAUConfigEnum@Trellis@@AEAV?$allocator@UConfigEnum@Trellis@@@0@AEA_K@Z
	??$_Allocate_at_least_helper@V?$allocator@UConfigUnknown@Trellis@@@std@@@std@@YAPEAUConfigUnknown@Trellis@@AEAV?$allocator@UConfigUnknown@Trellis@@@0@AEA_K@Z
	??$_Allocate_at_least_helper@V?$allocator@UConfigWord@Trellis@@@std@@@std@@YAPEAUConfigWord@Trellis@@AEAV?$allocator@UConfigWord@Trellis@@@0@AEA_K@Z
	??$_Allocate_at_least_helper@V?$allocator@UDdArcData@DDChipDb@Trellis@@@std@@@std@@YAPEAUDdArcData@DDChipDb@Trellis@@AEAV?$allocator@UDdArcData@DDChipDb@Trellis@@@0@AEA_K@Z
	??$_Allocate_at_least_helper@V?$allocator@UFixedConnection@Trellis@@@std@@@std@@YAPEAUFixedConnection@Trellis@@AEAV?$allocator@UFixedConnection@Trellis@@@0@AEA_K@Z
	??$_Allocate_at_least_helper@V?$allocator@UGlobalRegion@Trellis@@@std@@@std@@YAPEAUGlobalRegion@Trellis@@AEAV?$allocator@UGlobalRegion@Trellis@@@0@AEA_K@Z
	??$_Allocate_at_least_helper@V?$allocator@URoutingId@Trellis@@@std@@@std@@YAPEAURoutingId@Trellis@@AEAV?$allocator@URoutingId@Trellis@@@0@AEA_K@Z
	??$_Allocate_at_least_helper@V?$allocator@USiteInfo@Trellis@@@std@@@std@@YAPEAUSiteInfo@Trellis@@AEAV?$allocator@USiteInfo@Trellis@@@0@AEA_K@Z
	??$_Allocate_at_least_helper@V?$allocator@USpineInfo@Trellis@@@std@@@std@@YAPEAUSpineInfo@Trellis@@AEAV?$allocator@USpineInfo@Trellis@@@0@AEA_K@Z
	??$_Allocate_at_least_helper@V?$allocator@USpineSegment@Trellis@@@std@@@std@@YAPEAUSpineSegment@Trellis@@AEAV?$allocator@USpineSegment@Trellis@@@0@AEA_K@Z
	??$_Allocate_at_least_helper@V?$allocator@UTapSegment@Trellis@@@std@@@std@@YAPEAUTapSegment@Trellis@@AEAV?$allocator@UTapSegment@Trellis@@@0@AEA_K@Z
	??$_Allocate_at_least_helper@V?$allocator@UTileGroup@Trellis@@@std@@@std@@YAPEAUTileGroup@Trellis@@AEAV?$allocator@UTileGroup@Trellis@@@0@AEA_K@Z
	??$_Allocate_at_least_helper@V?$allocator@UTileInfo@Trellis@@@std@@@std@@YAPEAUTileInfo@Trellis@@AEAV?$allocator@UTileInfo@Trellis@@@0@AEA_K@Z
	??$_Allocate_at_least_helper@V?$allocator@UWireData@DDChipDb@Trellis@@@std@@@std@@YAPEAUWireData@DDChipDb@Trellis@@AEAV?$allocator@UWireData@DDChipDb@Trellis@@@0@AEA_K@Z
	??$_Allocate_at_least_helper@V?$allocator@U_Grp_t@?$_Tgt_state_t@V?$_String_const_iterator@V?$_String_val@U?$_Simple_types@D@std@@@std@@@std@@@std@@@std@@@std@@YAPEAU_Grp_t@?$_Tgt_state_t@V?$_String_const_iterator@V?$_String_val@U?$_Simple_types@D@std@@@std@@@std@@@0@AEAV?$allocator@U_Grp_t@?$_Tgt_state_t@V?$_String_const_iterator@V?$_String_val@U?$_Simple_types@D@std@@@std@@@std@@@std@@@0@AEA_K@Z
	??$_Allocate_at_least_helper@V?$allocator@U_Loop_vals_v2_t@std@@@std@@@std@@YAPEAU_Loop_vals_v2_t@0@AEAV?$allocator@U_Loop_vals_v2_t@std@@@0@AEA_K@Z
	??$_Allocate_at_least_helper@V?$allocator@Ulayer@?$standard_callbacks@V?$basic_ptree@V?$basic_string@DU?$char_traits@D@std@@V?$allocator@D@2@@std@@V12@U?$less@V?$basic_string@DU?$char_traits@D@std@@V?$allocator@D@2@@std@@@2@@property_tree@boost@@@detail@json_parser@property_tree@boost@@@std@@@std@@YAPEAUlayer@?$standard_callbacks@V?$basic_ptree@V?$basic_string@DU?$char_traits@D@std@@V?$allocator@D@2@@std@@V12@U?$less@V?$basic_string@DU?$char_traits@D@std@@V?$allocator@D@2@@std@@@2@@property_tree@boost@@@detail@json_parser@property_tree@boost@@AEAV?$allocator@Ulayer@?$standard_callbacks@V?$basic_ptree@V?$basic_string@DU?$char_traits@D@std@@V?$allocator@D@2@@std@@V12@U?$less@V?$basic_string@DU?$char_traits@D@std@@V?$allocator@D@2@@std@@@2@@property_tree@boost@@@detail@json_parser@property_tree@boost@@@0@AEA_K@Z
	??$_Allocate_at_least_helper@V?$allocator@V?$_Tgt_state_t@V?$_String_const_iterator@V?$_String_val@U?$_Simple_types@D@std@@@std@@@std@@@std@@@std@@@std@@YAPEAV?$_Tgt_state_t@V?$_String_const_iterator@V?$_String_val@U?$_Simple_types@D@std@@@std@@@std@@@0@AEAV?$allocator@V?$_Tgt_state_t@V?$_String_const_iterator@V?$_String_val@U?$_Simple_types@D@std@@@std@@@std@@@std@@@0@AEA_K@Z
	??$_Allocate_at_least_helper@V?$allocator@V?$basic_string@DU?$char_traits@D@std@@V?$allocator@D@2@@std@@@std@@@std@@YAPEAV?$basic_string@DU?$char_traits@D@std@@V?$allocator@D@2@@0@AEAV?$allocator@V?$basic_string@DU?$char_traits@D@std@@V?$allocator@D@2@@std@@@0@AEA_K@Z
	??$_Allocate_at_least_helper@V?$allocator@V?$shared_ptr@VTile@Trellis@@@std@@@std@@@std@@YAPEAV?$shared_ptr@VTile@Trellis@@@0@AEAV?$allocator@V?$shared_ptr@VTile@Trellis@@@std@@@0@AEA_K@Z
	??$_Allocate_at_least_helper@V?$allocator@V?$sub_match@V?$_String_const_iterator@V?$_String_val@U?$_Simple_types@D@std@@@std@@@std@@@std@@@std@@@std@@YAPEAV?$sub_match@V?$_String_const_iterator@V?$_String_val@U?$_Simple_types@D@std@@@std@@@std@@@0@AEAV?$allocator@V?$sub_match@V?$_String_const_iterator@V?$_String_val@U?$_Simple_types@D@std@@@std@@@std@@@std@@@0@AEA_K@Z
	??$_Allocate_at_least_helper@V?$allocator@V?$vector@DV?$allocator@D@std@@@std@@@std@@@std@@YAPEAV?$vector@DV?$allocator@D@std@@@0@AEAV?$allocator@V?$vector@DV?$allocator@D@std@@@std@@@0@AEA_K@Z
	??$_Allocate_at_least_helper@V?$allocator@V?$vector@EV?$allocator@E@std@@@std@@@std@@@std@@YAPEAV?$vector@EV?$allocator@E@std@@@0@AEAV?$allocator@V?$vector@EV?$allocator@E@std@@@std@@@0@AEA_K@Z
	??$_Allocate_at_least_helper@V?$allocator@V?$vector@HV?$allocator@H@std@@@std@@@std@@@std@@YAPEAV?$vector@HV?$allocator@H@std@@@0@AEAV?$allocator@V?$vector@HV?$allocator@H@std@@@std@@@0@AEA_K@Z
	??$_Allocate_at_least_helper@V?$allocator@V?$vector@U?$pair@V?$basic_string@DU?$char_traits@D@std@@V?$allocator@D@2@@std@@V12@@std@@V?$allocator@U?$pair@V?$basic_string@DU?$char_traits@D@std@@V?$allocator@D@2@@std@@V12@@std@@@2@@std@@@std@@@std@@YAPEAV?$vector@U?$pair@V?$basic_string@DU?$char_traits@D@std@@V?$allocator@D@2@@std@@V12@@std@@V?$allocator@U?$pair@V?$basic_string@DU?$char_traits@D@std@@V?$allocator@D@2@@std@@V12@@std@@@2@@0@AEAV?$allocator@V?$vector@U?$pair@V?$basic_string@DU?$char_traits@D@std@@V?$allocator@D@2@@std@@V12@@std@@V?$allocator@U?$pair@V?$basic_string@DU?$char_traits@D@std@@V?$allocator@D@2@@std@@V12@@std@@@2@@std@@@0@AEA_K@Z
	??$_Allocate_at_least_helper@V?$allocator@V?$vector@V?$vector@U?$pair@V?$basic_string@DU?$char_traits@D@std@@V?$allocator@D@2@@std@@V12@@std@@V?$allocator@U?$pair@V?$basic_string@DU?$char_traits@D@std@@V?$allocator@D@2@@std@@V12@@std@@@2@@std@@V?$allocator@V?$vector@U?$pair@V?$basic_string@DU?$char_traits@D@std@@V?$allocator@D@2@@std@@V12@@std@@V?$allocator@U?$pair@V?$basic_string@DU?$char_traits@D@std@@V?$allocator@D@2@@std@@V12@@std@@@2@@std@@@2@@std@@@std@@@std@@YAPEAV?$vector@V?$vector@U?$pair@V?$basic_string@DU?$char_traits@D@std@@V?$allocator@D@2@@std@@V12@@std@@V?$allocator@U?$pair@V?$basic_string@DU?$char_traits@D@std@@V?$allocator@D@2@@std@@V12@@std@@@2@@std@@V?$allocator@V?$vector@U?$pair@V?$basic_string@DU?$char_traits@D@std@@V?$allocator@D@2@@std@@V12@@std@@V?$allocator@U?$pair@V?$basic_string@DU?$char_traits@D@std@@V?$allocator@D@2@@std@@V12@@std@@@2@@std@@@2@@0@AEAV?$allocator@V?$vector@V?$vector@U?$pair@V?$basic_string@DU?$char_traits@D@std@@V?$allocator@D@2@@std@@V12@@std@@V?$allocator@U?$pair@V?$basic_string@DU?$char_traits@D@std@@V?$allocator@D@2@@std@@V12@@std@@@2@@std@@V?$allocator@V?$vector@U?$pair@V?$basic_string@DU?$char_traits@D@std@@V?$allocator@D@2@@std@@V12@@std@@V?$allocator@U?$pair@V?$basic_string@DU?$char_traits@D@std@@V?$allocator@D@2@@std@@V12@@std@@@2@@std@@@2@@std@@@0@AEA_K@Z
	??$_Allocate_for_capacity@$0A@@?$basic_string@DU?$char_traits@D@std@@V?$allocator@D@2@@std@@CAPEADAEAV?$allocator@D@1@AEA_K@Z
	??$_Allocate_manually_vector_aligned@U_Default_allocate_traits@std@@@std@@YAPEAX_K@Z
	??$_Allocators_equal@V?$allocator@D@std@@@std@@YA_NAEBV?$allocator@D@0@0@Z
	??$_Append@D@?$basic_string@DU?$char_traits@D@std@@V?$allocator@D@2@@std@@AEAAAEAV01@QEBD_K@Z
	??$_Assign@D@?$basic_string@DU?$char_traits@D@std@@V?$allocator@D@2@@std@@AEAAAEAV01@QEBD_K@Z
	??$_Assign_counted_range@PEAI@?$vector@IV?$allocator@I@std@@@std@@AEAAXPEAI_K@Z
	??$_Assign_counted_range@PEAU?$pair@URoutingId@Trellis@@H@std@@@?$vector@U?$pair@URoutingId@Trellis@@H@std@@V?$allocator@U?$pair@URoutingId@Trellis@@H@std@@@2@@std@@AEAAXPEAU?$pair@URoutingId@Trellis@@H@1@_K@Z
	??$_Assign_counted_range@PEAUBelData@DDChipDb@Trellis@@@?$vector@UBelData@DDChipDb@Trellis@@V?$allocator@UBelData@DDChipDb@Trellis@@@std@@@std@@AEAAXPEAUBelData@DDChipDb@Trellis@@_K@Z
	??$_Assign_counted_range@PEAUBelPort@DDChipDb@Trellis@@@?$vector@UBelPort@DDChipDb@Trellis@@V?$allocator@UBelPort@DDChipDb@Trellis@@@std@@@std@@AEAAXPEAUBelPort@DDChipDb@Trellis@@_K@Z
	??$_Assign_counted_range@PEAUBelWire@DDChipDb@Trellis@@@?$vector@UBelWire@DDChipDb@Trellis@@V?$allocator@UBelWire@DDChipDb@Trellis@@@std@@@std@@AEAAXPEAUBelWire@DDChipDb@Trellis@@_K@Z
	??$_Assign_counted_range@PEAUBitGroup@Trellis@@@?$vector@UBitGroup@Trellis@@V?$allocator@UBitGroup@Trellis@@@std@@@std@@AEAAXPEAUBitGroup@Trellis@@_K@Z
	??$_Assign_counted_range@PEAUChangedBit@Trellis@@@?$vector@UChangedBit@Trellis@@V?$allocator@UChangedBit@Trellis@@@std@@@std@@AEAAXPEAUChangedBit@Trellis@@_K@Z
	??$_Assign_counted_range@PEAUConfigArc@Trellis@@@?$vector@UConfigArc@Trellis@@V?$allocator@UConfigArc@Trellis@@@std@@@std@@AEAAXPEAUConfigArc@Trellis@@_K@Z
	??$_Assign_counted_range@PEAUConfigEnum@Trellis@@@?$vector@UConfigEnum@Trellis@@V?$allocator@UConfigEnum@Trellis@@@std@@@std@@AEAAXPEAUConfigEnum@Trellis@@_K@Z
	??$_Assign_counted_range@PEAUConfigUnknown@Trellis@@@?$vector@UConfigUnknown@Trellis@@V?$allocator@UConfigUnknown@Trellis@@@std@@@std@@AEAAXPEAUConfigUnknown@Trellis@@_K@Z
	??$_Assign_counted_range@PEAUConfigWord@Trellis@@@?$vector@UConfigWord@Trellis@@V?$allocator@UConfigWord@Trellis@@@std@@@std@@AEAAXPEAUConfigWord@Trellis@@_K@Z
	??$_Assign_counted_range@PEAUDdArcData@DDChipDb@Trellis@@@?$vector@UDdArcData@DDChipDb@Trellis@@V?$allocator@UDdArcData@DDChipDb@Trellis@@@std@@@std@@AEAAXPEAUDdArcData@DDChipDb@Trellis@@_K@Z
	??$_Assign_counted_range@PEAURoutingId@Trellis@@@?$vector@URoutingId@Trellis@@V?$allocator@URoutingId@Trellis@@@std@@@std@@AEAAXPEAURoutingId@Trellis@@_K@Z
	??$_Assign_counted_range@PEAUSpineInfo@Trellis@@@?$vector@USpineInfo@Trellis@@V?$allocator@USpineInfo@Trellis@@@std@@@std@@AEAAXPEAUSpineInfo@Trellis@@_K@Z
	??$_Assign_counted_range@PEAUWireData@DDChipDb@Trellis@@@?$vector@UWireData@DDChipDb@Trellis@@V?$allocator@UWireData@DDChipDb@Trellis@@@std@@@std@@AEAAXPEAUWireData@DDChipDb@Trellis@@_K@Z
	??$_Assign_counted_range@PEAU_Grp_t@?$_Tgt_state_t@V?$_String_const_iterator@V?$_String_val@U?$_Simple_types@D@std@@@std@@@std@@@std@@@?$vector@U_Grp_t@?$_Tgt_state_t@V?$_String_const_iterator@V?$_String_val@U?$_Simple_types@D@std@@@std@@@std@@@std@@V?$allocator@U_Grp_t@?$_Tgt_state_t@V?$_String_const_iterator@V?$_String_val@U?$_Simple_types@D@std@@@std@@@std@@@std@@@3@@std@@AEAAXPEAU_Grp_t@?$_Tgt_state_t@V?$_String_const_iterator@V?$_String_val@U?$_Simple_types@D@std@@@std@@@std@@@1@_K@Z
	??$_Assign_counted_range@PEAV?$basic_string@DU?$char_traits@D@std@@V?$allocator@D@2@@std@@@?$vector@V?$basic_string@DU?$char_traits@D@std@@V?$allocator@D@2@@std@@V?$allocator@V?$basic_string@DU?$char_traits@D@std@@V?$allocator@D@2@@std@@@2@@std@@AEAAXPEAV?$basic_string@DU?$char_traits@D@std@@V?$allocator@D@2@@1@_K@Z
	??$_Atomic_address_as@DU?$_Atomic_padded@_N@std@@@std@@YAPECDAEAU?$_Atomic_padded@_N@0@@Z
	??$_Atomic_address_as@DU?$_Atomic_padded@_N@std@@@std@@YAPEDDAEBU?$_Atomic_padded@_N@0@@Z
	??$_Atomic_reinterpret_as@D_N@std@@YADAEB_N@Z
	??$_Buyheadnode@V?$allocator@U?$_Tree_node@U?$pair@$$CBGV?$vector@GV?$allocator@G@std@@@std@@@std@@PEAX@std@@@std@@@?$_Tree_node@U?$pair@$$CBGV?$vector@GV?$allocator@G@std@@@std@@@std@@PEAX@std@@SAPEAU01@AEAV?$allocator@U?$_Tree_node@U?$pair@$$CBGV?$vector@GV?$allocator@G@std@@@std@@@std@@PEAX@std@@@1@@Z
	??$_Buyheadnode@V?$allocator@U?$_Tree_node@U?$pair@$$CBHU?$pair@URoutingId@Trellis@@W4PortDirection@2@@std@@@std@@PEAX@std@@@std@@@?$_Tree_node@U?$pair@$$CBHU?$pair@URoutingId@Trellis@@W4PortDirection@2@@std@@@std@@PEAX@std@@SAPEAU01@AEAV?$allocator@U?$_Tree_node@U?$pair@$$CBHU?$pair@URoutingId@Trellis@@W4PortDirection@2@@std@@@std@@PEAX@std@@@1@@Z
	??$_Buyheadnode@V?$allocator@U?$_Tree_node@U?$pair@$$CBHURoutingArc@Trellis@@@std@@PEAX@std@@@std@@@?$_Tree_node@U?$pair@$$CBHURoutingArc@Trellis@@@std@@PEAX@std@@SAPEAU01@AEAV?$allocator@U?$_Tree_node@U?$pair@$$CBHURoutingArc@Trellis@@@std@@PEAX@std@@@1@@Z
	??$_Buyheadnode@V?$allocator@U?$_Tree_node@U?$pair@$$CBHURoutingBel@Trellis@@@std@@PEAX@std@@@std@@@?$_Tree_node@U?$pair@$$CBHURoutingBel@Trellis@@@std@@PEAX@std@@SAPEAU01@AEAV?$allocator@U?$_Tree_node@U?$pair@$$CBHURoutingBel@Trellis@@@std@@PEAX@std@@@1@@Z
	??$_Buyheadnode@V?$allocator@U?$_Tree_node@U?$pair@$$CBHURoutingWire@Trellis@@@std@@PEAX@std@@@std@@@?$_Tree_node@U?$pair@$$CBHURoutingWire@Trellis@@@std@@PEAX@std@@SAPEAU01@AEAV?$allocator@U?$_Tree_node@U?$pair@$$CBHURoutingWire@Trellis@@@std@@PEAX@std@@@1@@Z
	??$_Buyheadnode@V?$allocator@U?$_Tree_node@U?$pair@$$CBII@std@@PEAX@std@@@std@@@?$_Tree_node@U?$pair@$$CBII@std@@PEAX@std@@SAPEAU01@AEAV?$allocator@U?$_Tree_node@U?$pair@$$CBII@std@@PEAX@std@@@1@@Z
	??$_Buyheadnode@V?$allocator@U?$_Tree_node@U?$pair@$$CBU?$pair@HH@std@@H@std@@PEAX@std@@@std@@@?$_Tree_node@U?$pair@$$CBU?$pair@HH@std@@H@std@@PEAX@std@@SAPEAU01@AEAV?$allocator@U?$_Tree_node@U?$pair@$$CBU?$pair@HH@std@@H@std@@PEAX@std@@@1@@Z
	??$_Buyheadnode@V?$allocator@U?$_Tree_node@U?$pair@$$CBU?$pair@HH@std@@U12@@std@@PEAX@std@@@std@@@?$_Tree_node@U?$pair@$$CBU?$pair@HH@std@@U12@@std@@PEAX@std@@SAPEAU01@AEAV?$allocator@U?$_Tree_node@U?$pair@$$CBU?$pair@HH@std@@U12@@std@@PEAX@std@@@1@@Z
	??$_Buyheadnode@V?$allocator@U?$_Tree_node@U?$pair@$$CBU?$pair@HH@std@@V?$vector@USpineInfo@Trellis@@V?$allocator@USpineInfo@Trellis@@@std@@@2@@std@@PEAX@std@@@std@@@?$_Tree_node@U?$pair@$$CBU?$pair@HH@std@@V?$vector@USpineInfo@Trellis@@V?$allocator@USpineInfo@Trellis@@@std@@@2@@std@@PEAX@std@@SAPEAU01@AEAV?$allocator@U?$_Tree_node@U?$pair@$$CBU?$pair@HH@std@@V?$vector@USpineInfo@Trellis@@V?$allocator@USpineInfo@Trellis@@@std@@@2@@std@@PEAX@std@@@1@@Z
	??$_Buyheadnode@V?$allocator@U?$_Tree_node@U?$pair@$$CBU?$pair@_K_K@std@@ULocationData@DDChipDb@Trellis@@@std@@PEAX@std@@@std@@@?$_Tree_node@U?$pair@$$CBU?$pair@_K_K@std@@ULocationData@DDChipDb@Trellis@@@std@@PEAX@std@@SAPEAU01@AEAV?$allocator@U?$_Tree_node@U?$pair@$$CBU?$pair@_K_K@std@@ULocationData@DDChipDb@Trellis@@@std@@PEAX@std@@@1@@Z
	??$_Buyheadnode@V?$allocator@U?$_Tree_node@U?$pair@$$CBULocation@Trellis@@U?$pair@_K_K@std@@@std@@PEAX@std@@@std@@@?$_Tree_node@U?$pair@$$CBULocation@Trellis@@U?$pair@_K_K@std@@@std@@PEAX@std@@SAPEAU01@AEAV?$allocator@U?$_Tree_node@U?$pair@$$CBULocation@Trellis@@U?$pair@_K_K@std@@@std@@PEAX@std@@@1@@Z
	??$_Buyheadnode@V?$allocator@U?$_Tree_node@U?$pair@$$CBULocation@Trellis@@ULocationData@DDChipDb@2@@std@@PEAX@std@@@std@@@?$_Tree_node@U?$pair@$$CBULocation@Trellis@@ULocationData@DDChipDb@2@@std@@PEAX@std@@SAPEAU01@AEAV?$allocator@U?$_Tree_node@U?$pair@$$CBULocation@Trellis@@ULocationData@DDChipDb@2@@std@@PEAX@std@@@1@@Z
	??$_Buyheadnode@V?$allocator@U?$_Tree_node@U?$pair@$$CBULocation@Trellis@@URoutingTileLoc@2@@std@@PEAX@std@@@std@@@?$_Tree_node@U?$pair@$$CBULocation@Trellis@@URoutingTileLoc@2@@std@@PEAX@std@@SAPEAU01@AEAV?$allocator@U?$_Tree_node@U?$pair@$$CBULocation@Trellis@@URoutingTileLoc@2@@std@@PEAX@std@@@1@@Z
	??$_Buyheadnode@V?$allocator@U?$_Tree_node@U?$pair@$$CBV?$basic_string@DU?$char_traits@D@std@@V?$allocator@D@2@@std@@UArcData@Trellis@@@std@@PEAX@std@@@std@@@?$_Tree_node@U?$pair@$$CBV?$basic_string@DU?$char_traits@D@std@@V?$allocator@D@2@@std@@UArcData@Trellis@@@std@@PEAX@std@@SAPEAU01@AEAV?$allocator@U?$_Tree_node@U?$pair@$$CBV?$basic_string@DU?$char_traits@D@std@@V?$allocator@D@2@@std@@UArcData@Trellis@@@std@@PEAX@std@@@1@@Z
	??$_Buyheadnode@V?$allocator@U?$_Tree_node@U?$pair@$$CBV?$basic_string@DU?$char_traits@D@std@@V?$allocator@D@2@@std@@UBitGroup@Trellis@@@std@@PEAX@std@@@std@@@?$_Tree_node@U?$pair@$$CBV?$basic_string@DU?$char_traits@D@std@@V?$allocator@D@2@@std@@UBitGroup@Trellis@@@std@@PEAX@std@@SAPEAU01@AEAV?$allocator@U?$_Tree_node@U?$pair@$$CBV?$basic_string@DU?$char_traits@D@std@@V?$allocator@D@2@@std@@UBitGroup@Trellis@@@std@@PEAX@std@@@1@@Z
	??$_Buyheadnode@V?$allocator@U?$_Tree_node@U?$pair@$$CBV?$basic_string@DU?$char_traits@D@std@@V?$allocator@D@2@@std@@UEnumSettingBits@Trellis@@@std@@PEAX@std@@@std@@@?$_Tree_node@U?$pair@$$CBV?$basic_string@DU?$char_traits@D@std@@V?$allocator@D@2@@std@@UEnumSettingBits@Trellis@@@std@@PEAX@std@@SAPEAU01@AEAV?$allocator@U?$_Tree_node@U?$pair@$$CBV?$basic_string@DU?$char_traits@D@std@@V?$allocator@D@2@@std@@UEnumSettingBits@Trellis@@@std@@PEAX@std@@@1@@Z
	??$_Buyheadnode@V?$allocator@U?$_Tree_node@U?$pair@$$CBV?$basic_string@DU?$char_traits@D@std@@V?$allocator@D@2@@std@@UMuxBits@Trellis@@@std@@PEAX@std@@@std@@@?$_Tree_node@U?$pair@$$CBV?$basic_string@DU?$char_traits@D@std@@V?$allocator@D@2@@std@@UMuxBits@Trellis@@@std@@PEAX@std@@SAPEAU01@AEAV?$allocator@U?$_Tree_node@U?$pair@$$CBV?$basic_string@DU?$char_traits@D@std@@V?$allocator@D@2@@std@@UMuxBits@Trellis@@@std@@PEAX@std@@@1@@Z
	??$_Buyheadnode@V?$allocator@U?$_Tree_node@U?$pair@$$CBV?$basic_string@DU?$char_traits@D@std@@V?$allocator@D@2@@std@@UTileConfig@Trellis@@@std@@PEAX@std@@@std@@@?$_Tree_node@U?$pair@$$CBV?$basic_string@DU?$char_traits@D@std@@V?$allocator@D@2@@std@@UTileConfig@Trellis@@@std@@PEAX@std@@SAPEAU01@AEAV?$allocator@U?$_Tree_node@U?$pair@$$CBV?$basic_string@DU?$char_traits@D@std@@V?$allocator@D@2@@std@@UTileConfig@Trellis@@@std@@PEAX@std@@@1@@Z
	??$_Buyheadnode@V?$allocator@U?$_Tree_node@U?$pair@$$CBV?$basic_string@DU?$char_traits@D@std@@V?$allocator@D@2@@std@@UWordSettingBits@Trellis@@@std@@PEAX@std@@@std@@@?$_Tree_node@U?$pair@$$CBV?$basic_string@DU?$char_traits@D@std@@V?$allocator@D@2@@std@@UWordSettingBits@Trellis@@@std@@PEAX@std@@SAPEAU01@AEAV?$allocator@U?$_Tree_node@U?$pair@$$CBV?$basic_string@DU?$char_traits@D@std@@V?$allocator@D@2@@std@@UWordSettingBits@Trellis@@@std@@PEAX@std@@@1@@Z
	??$_Buyheadnode@V?$allocator@U?$_Tree_node@U?$pair@$$CBV?$basic_string@DU?$char_traits@D@std@@V?$allocator@D@2@@std@@V12@@std@@PEAX@std@@@std@@@?$_Tree_node@U?$pair@$$CBV?$basic_string@DU?$char_traits@D@std@@V?$allocator@D@2@@std@@V12@@std@@PEAX@std@@SAPEAU01@AEAV?$allocator@U?$_Tree_node@U?$pair@$$CBV?$basic_string@DU?$char_traits@D@std@@V?$allocator@D@2@@std@@V12@@std@@PEAX@std@@@1@@Z
	??$_Buyheadnode@V?$allocator@U?$_Tree_node@U?$pair@$$CBV?$basic_string@DU?$char_traits@D@std@@V?$allocator@D@2@@std@@V?$basic_ptree@V?$basic_string@DU?$char_traits@D@std@@V?$allocator@D@2@@std@@V12@U?$less@V?$basic_string@DU?$char_traits@D@std@@V?$allocator@D@2@@std@@@2@@property_tree@boost@@@std@@PEAX@std@@@std@@@?$_Tree_node@U?$pair@$$CBV?$basic_string@DU?$char_traits@D@std@@V?$allocator@D@2@@std@@V?$basic_ptree@V?$basic_string@DU?$char_traits@D@std@@V?$allocator@D@2@@std@@V12@U?$less@V?$basic_string@DU?$char_traits@D@std@@V?$allocator@D@2@@std@@@2@@property_tree@boost@@@std@@PEAX@std@@SAPEAU01@AEAV?$allocator@U?$_Tree_node@U?$pair@$$CBV?$basic_string@DU?$char_traits@D@std@@V?$allocator@D@2@@std@@V?$basic_ptree@V?$basic_string@DU?$char_traits@D@std@@V?$allocator@D@2@@std@@V12@U?$less@V?$basic_string@DU?$char_traits@D@std@@V?$allocator@D@2@@std@@@2@@property_tree@boost@@@std@@PEAX@std@@@1@@Z
	??$_Buyheadnode@V?$allocator@U?$_Tree_node@U?$pair@$$CBV?$basic_string@DU?$char_traits@D@std@@V?$allocator@D@2@@std@@V?$set@UFixedConnection@Trellis@@U?$less@UFixedConnection@Trellis@@@std@@V?$allocator@UFixedConnection@Trellis@@@4@@2@@std@@PEAX@std@@@std@@@?$_Tree_node@U?$pair@$$CBV?$basic_string@DU?$char_traits@D@std@@V?$allocator@D@2@@std@@V?$set@UFixedConnection@Trellis@@U?$less@UFixedConnection@Trellis@@@std@@V?$allocator@UFixedConnection@Trellis@@@4@@2@@std@@PEAX@std@@SAPEAU01@AEAV?$allocator@U?$_Tree_node@U?$pair@$$CBV?$basic_string@DU?$char_traits@D@std@@V?$allocator@D@2@@std@@V?$set@UFixedConnection@Trellis@@U?$less@UFixedConnection@Trellis@@@std@@V?$allocator@UFixedConnection@Trellis@@@4@@2@@std@@PEAX@std@@@1@@Z
	??$_Buyheadnode@V?$allocator@U?$_Tree_node@U?$pair@$$CBV?$basic_string@DU?$char_traits@D@std@@V?$allocator@D@2@@std@@V?$shared_ptr@VTile@Trellis@@@2@@std@@PEAX@std@@@std@@@?$_Tree_node@U?$pair@$$CBV?$basic_string@DU?$char_traits@D@std@@V?$allocator@D@2@@std@@V?$shared_ptr@VTile@Trellis@@@2@@std@@PEAX@std@@SAPEAU01@AEAV?$allocator@U?$_Tree_node@U?$pair@$$CBV?$basic_string@DU?$char_traits@D@std@@V?$allocator@D@2@@std@@V?$shared_ptr@VTile@Trellis@@@2@@std@@PEAX@std@@@1@@Z
	??$_Buyheadnode@V?$allocator@U?$_Tree_node@U?$pair@$$CBV?$basic_string@DU?$char_traits@D@std@@V?$allocator@D@2@@std@@V?$vector@UChangedBit@Trellis@@V?$allocator@UChangedBit@Trellis@@@std@@@2@@std@@PEAX@std@@@std@@@?$_Tree_node@U?$pair@$$CBV?$basic_string@DU?$char_traits@D@std@@V?$allocator@D@2@@std@@V?$vector@UChangedBit@Trellis@@V?$allocator@UChangedBit@Trellis@@@std@@@2@@std@@PEAX@std@@SAPEAU01@AEAV?$allocator@U?$_Tree_node@U?$pair@$$CBV?$basic_string@DU?$char_traits@D@std@@V?$allocator@D@2@@std@@V?$vector@UChangedBit@Trellis@@V?$allocator@UChangedBit@Trellis@@@std@@@2@@std@@PEAX@std@@@1@@Z
	??$_Buyheadnode@V?$allocator@U?$_Tree_node@UConfigBit@Trellis@@PEAX@std@@@std@@@?$_Tree_node@UConfigBit@Trellis@@PEAX@std@@SAPEAU01@AEAV?$allocator@U?$_Tree_node@UConfigBit@Trellis@@PEAX@std@@@1@@Z
	??$_Buyheadnode@V?$allocator@U?$_Tree_node@UFixedConnection@Trellis@@PEAX@std@@@std@@@?$_Tree_node@UFixedConnection@Trellis@@PEAX@std@@SAPEAU01@AEAV?$allocator@U?$_Tree_node@UFixedConnection@Trellis@@PEAX@std@@@1@@Z
	??$_Buyheadnode@V?$allocator@U?$_Tree_node@URelId@DDChipDb@Trellis@@PEAX@std@@@std@@@?$_Tree_node@URelId@DDChipDb@Trellis@@PEAX@std@@SAPEAU01@AEAV?$allocator@U?$_Tree_node@URelId@DDChipDb@Trellis@@PEAX@std@@@1@@Z
	??$_Buyheadnode@V?$allocator@U?$_Tree_node@V?$basic_string@DU?$char_traits@D@std@@V?$allocator@D@2@@std@@PEAX@std@@@std@@@?$_Tree_node@V?$basic_string@DU?$char_traits@D@std@@V?$allocator@D@2@@std@@PEAX@std@@SAPEAU01@AEAV?$allocator@U?$_Tree_node@V?$basic_string@DU?$char_traits@D@std@@V?$allocator@D@2@@std@@PEAX@std@@@1@@Z
	??$_Buynode@AEAU?$pair@$$CBGV?$vector@GV?$allocator@G@std@@@std@@@std@@@?$_Tree@V?$_Tmap_traits@GV?$vector@GV?$allocator@G@std@@@std@@U?$less@G@2@V?$allocator@U?$pair@$$CBGV?$vector@GV?$allocator@G@std@@@std@@@std@@@2@$0A@@std@@@std@@IEAAPEAU?$_Tree_node@U?$pair@$$CBGV?$vector@GV?$allocator@G@std@@@std@@@std@@PEAX@1@AEAU?$pair@$$CBGV?$vector@GV?$allocator@G@std@@@std@@@1@@Z
	??$_Buynode@AEAU?$pair@$$CBHU?$pair@URoutingId@Trellis@@W4PortDirection@2@@std@@@std@@@?$_Tree@V?$_Tmap_traits@HU?$pair@URoutingId@Trellis@@W4PortDirection@2@@std@@U?$less@H@2@V?$allocator@U?$pair@$$CBHU?$pair@URoutingId@Trellis@@W4PortDirection@2@@std@@@std@@@2@$0A@@std@@@std@@IEAAPEAU?$_Tree_node@U?$pair@$$CBHU?$pair@URoutingId@Trellis@@W4PortDirection@2@@std@@@std@@PEAX@1@AEAU?$pair@$$CBHU?$pair@URoutingId@Trellis@@W4PortDirection@2@@std@@@1@@Z
	??$_Buynode@AEAU?$pair@$$CBV?$basic_string@DU?$char_traits@D@std@@V?$allocator@D@2@@std@@UArcData@Trellis@@@std@@@?$_Tree@V?$_Tmap_traits@V?$basic_string@DU?$char_traits@D@std@@V?$allocator@D@2@@std@@UArcData@Trellis@@U?$less@V?$basic_string@DU?$char_traits@D@std@@V?$allocator@D@2@@std@@@2@V?$allocator@U?$pair@$$CBV?$basic_string@DU?$char_traits@D@std@@V?$allocator@D@2@@std@@UArcData@Trellis@@@std@@@2@$0A@@std@@@std@@IEAAPEAU?$_Tree_node@U?$pair@$$CBV?$basic_string@DU?$char_traits@D@std@@V?$allocator@D@2@@std@@UArcData@Trellis@@@std@@PEAX@1@AEAU?$pair@$$CBV?$basic_string@DU?$char_traits@D@std@@V?$allocator@D@2@@std@@UArcData@Trellis@@@1@@Z
	??$_Buynode@AEAU?$pair@$$CBV?$basic_string@DU?$char_traits@D@std@@V?$allocator@D@2@@std@@UBitGroup@Trellis@@@std@@@?$_Tree@V?$_Tmap_traits@V?$basic_string@DU?$char_traits@D@std@@V?$allocator@D@2@@std@@UBitGroup@Trellis@@U?$less@V?$basic_string@DU?$char_traits@D@std@@V?$allocator@D@2@@std@@@2@V?$allocator@U?$pair@$$CBV?$basic_string@DU?$char_traits@D@std@@V?$allocator@D@2@@std@@UBitGroup@Trellis@@@std@@@2@$0A@@std@@@std@@IEAAPEAU?$_Tree_node@U?$pair@$$CBV?$basic_string@DU?$char_traits@D@std@@V?$allocator@D@2@@std@@UBitGroup@Trellis@@@std@@PEAX@1@AEAU?$pair@$$CBV?$basic_string@DU?$char_traits@D@std@@V?$allocator@D@2@@std@@UBitGroup@Trellis@@@1@@Z
	??$_Buynode@AEAU?$pair@$$CBV?$basic_string@DU?$char_traits@D@std@@V?$allocator@D@2@@std@@V12@@std@@@?$_Tree@V?$_Tmap_traits@V?$basic_string@DU?$char_traits@D@std@@V?$allocator@D@2@@std@@V12@U?$less@V?$basic_string@DU?$char_traits@D@std@@V?$allocator@D@2@@std@@@2@V?$allocator@U?$pair@$$CBV?$basic_string@DU?$char_traits@D@std@@V?$allocator@D@2@@std@@V12@@std@@@2@$0A@@std@@@std@@IEAAPEAU?$_Tree_node@U?$pair@$$CBV?$basic_string@DU?$char_traits@D@std@@V?$allocator@D@2@@std@@V12@@std@@PEAX@1@AEAU?$pair@$$CBV?$basic_string@DU?$char_traits@D@std@@V?$allocator@D@2@@std@@V12@@1@@Z
	??$_Buynode@AEAU?$pair@$$CBV?$basic_string@DU?$char_traits@D@std@@V?$allocator@D@2@@std@@V?$shared_ptr@VTile@Trellis@@@2@@std@@@?$_Tree@V?$_Tmap_traits@V?$basic_string@DU?$char_traits@D@std@@V?$allocator@D@2@@std@@V?$shared_ptr@VTile@Trellis@@@2@U?$less@V?$basic_string@DU?$char_traits@D@std@@V?$allocator@D@2@@std@@@2@V?$allocator@U?$pair@$$CBV?$basic_string@DU?$char_traits@D@std@@V?$allocator@D@2@@std@@V?$shared_ptr@VTile@Trellis@@@2@@std@@@2@$0A@@std@@@std@@IEAAPEAU?$_Tree_node@U?$pair@$$CBV?$basic_string@DU?$char_traits@D@std@@V?$allocator@D@2@@std@@V?$shared_ptr@VTile@Trellis@@@2@@std@@PEAX@1@AEAU?$pair@$$CBV?$basic_string@DU?$char_traits@D@std@@V?$allocator@D@2@@std@@V?$shared_ptr@VTile@Trellis@@@2@@1@@Z
	??$_Buynode@AEAUConfigBit@Trellis@@@?$_Tree@V?$_Tset_traits@UConfigBit@Trellis@@U?$less@UConfigBit@Trellis@@@std@@V?$allocator@UConfigBit@Trellis@@@4@$0A@@std@@@std@@IEAAPEAU?$_Tree_node@UConfigBit@Trellis@@PEAX@1@AEAUConfigBit@Trellis@@@Z
	??$_Buynode@AEAUFixedConnection@Trellis@@@?$_Tree@V?$_Tset_traits@UFixedConnection@Trellis@@U?$less@UFixedConnection@Trellis@@@std@@V?$allocator@UFixedConnection@Trellis@@@4@$0A@@std@@@std@@IEAAPEAU?$_Tree_node@UFixedConnection@Trellis@@PEAX@1@AEAUFixedConnection@Trellis@@@Z
	??$_Buynode@AEAURelId@DDChipDb@Trellis@@@?$_Tree@V?$_Tset_traits@URelId@DDChipDb@Trellis@@U?$less@URelId@DDChipDb@Trellis@@@std@@V?$allocator@URelId@DDChipDb@Trellis@@@5@$0A@@std@@@std@@IEAAPEAU?$_Tree_node@URelId@DDChipDb@Trellis@@PEAX@1@AEAURelId@DDChipDb@Trellis@@@Z
	??$_Buynode@V?$allocator@U?$_Tree_node@U?$pair@$$CBGV?$vector@GV?$allocator@G@std@@@std@@@std@@PEAX@std@@@std@@AEAU?$pair@$$CBGV?$vector@GV?$allocator@G@std@@@std@@@2@@?$_Tree_node@U?$pair@$$CBGV?$vector@GV?$allocator@G@std@@@std@@@std@@PEAX@std@@SAPEAU01@AEAV?$allocator@U?$_Tree_node@U?$pair@$$CBGV?$vector@GV?$allocator@G@std@@@std@@@std@@PEAX@std@@@1@PEAU01@AEAU?$pair@$$CBGV?$vector@GV?$allocator@G@std@@@std@@@1@@Z
	??$_Buynode@V?$allocator@U?$_Tree_node@U?$pair@$$CBHU?$pair@URoutingId@Trellis@@W4PortDirection@2@@std@@@std@@PEAX@std@@@std@@AEAU?$pair@$$CBHU?$pair@URoutingId@Trellis@@W4PortDirection@2@@std@@@2@@?$_Tree_node@U?$pair@$$CBHU?$pair@URoutingId@Trellis@@W4PortDirection@2@@std@@@std@@PEAX@std@@SAPEAU01@AEAV?$allocator@U?$_Tree_node@U?$pair@$$CBHU?$pair@URoutingId@Trellis@@W4PortDirection@2@@std@@@std@@PEAX@std@@@1@PEAU01@AEAU?$pair@$$CBHU?$pair@URoutingId@Trellis@@W4PortDirection@2@@std@@@1@@Z
	??$_Buynode@V?$allocator@U?$_Tree_node@U?$pair@$$CBV?$basic_string@DU?$char_traits@D@std@@V?$allocator@D@2@@std@@UArcData@Trellis@@@std@@PEAX@std@@@std@@AEAU?$pair@$$CBV?$basic_string@DU?$char_traits@D@std@@V?$allocator@D@2@@std@@UArcData@Trellis@@@2@@?$_Tree_node@U?$pair@$$CBV?$basic_string@DU?$char_traits@D@std@@V?$allocator@D@2@@std@@UArcData@Trellis@@@std@@PEAX@std@@SAPEAU01@AEAV?$allocator@U?$_Tree_node@U?$pair@$$CBV?$basic_string@DU?$char_traits@D@std@@V?$allocator@D@2@@std@@UArcData@Trellis@@@std@@PEAX@std@@@1@PEAU01@AEAU?$pair@$$CBV?$basic_string@DU?$char_traits@D@std@@V?$allocator@D@2@@std@@UArcData@Trellis@@@1@@Z
	??$_Buynode@V?$allocator@U?$_Tree_node@U?$pair@$$CBV?$basic_string@DU?$char_traits@D@std@@V?$allocator@D@2@@std@@UBitGroup@Trellis@@@std@@PEAX@std@@@std@@AEAU?$pair@$$CBV?$basic_string@DU?$char_traits@D@std@@V?$allocator@D@2@@std@@UBitGroup@Trellis@@@2@@?$_Tree_node@U?$pair@$$CBV?$basic_string@DU?$char_traits@D@std@@V?$allocator@D@2@@std@@UBitGroup@Trellis@@@std@@PEAX@std@@SAPEAU01@AEAV?$allocator@U?$_Tree_node@U?$pair@$$CBV?$basic_string@DU?$char_traits@D@std@@V?$allocator@D@2@@std@@UBitGroup@Trellis@@@std@@PEAX@std@@@1@PEAU01@AEAU?$pair@$$CBV?$basic_string@DU?$char_traits@D@std@@V?$allocator@D@2@@std@@UBitGroup@Trellis@@@1@@Z
	??$_Buynode@V?$allocator@U?$_Tree_node@U?$pair@$$CBV?$basic_string@DU?$char_traits@D@std@@V?$allocator@D@2@@std@@V12@@std@@PEAX@std@@@std@@AEAU?$pair@$$CBV?$basic_string@DU?$char_traits@D@std@@V?$allocator@D@2@@std@@V12@@2@@?$_Tree_node@U?$pair@$$CBV?$basic_string@DU?$char_traits@D@std@@V?$allocator@D@2@@std@@V12@@std@@PEAX@std@@SAPEAU01@AEAV?$allocator@U?$_Tree_node@U?$pair@$$CBV?$basic_string@DU?$char_traits@D@std@@V?$allocator@D@2@@std@@V12@@std@@PEAX@std@@@1@PEAU01@AEAU?$pair@$$CBV?$basic_string@DU?$char_traits@D@std@@V?$allocator@D@2@@std@@V12@@1@@Z
	??$_Buynode@V?$allocator@U?$_Tree_node@U?$pair@$$CBV?$basic_string@DU?$char_traits@D@std@@V?$allocator@D@2@@std@@V?$shared_ptr@VTile@Trellis@@@2@@std@@PEAX@std@@@std@@AEAU?$pair@$$CBV?$basic_string@DU?$char_traits@D@std@@V?$allocator@D@2@@std@@V?$shared_ptr@VTile@Trellis@@@2@@2@@?$_Tree_node@U?$pair@$$CBV?$basic_string@DU?$char_traits@D@std@@V?$allocator@D@2@@std@@V?$shared_ptr@VTile@Trellis@@@2@@std@@PEAX@std@@SAPEAU01@AEAV?$allocator@U?$_Tree_node@U?$pair@$$CBV?$basic_string@DU?$char_traits@D@std@@V?$allocator@D@2@@std@@V?$shared_ptr@VTile@Trellis@@@2@@std@@PEAX@std@@@1@PEAU01@AEAU?$pair@$$CBV?$basic_string@DU?$char_traits@D@std@@V?$allocator@D@2@@std@@V?$shared_ptr@VTile@Trellis@@@2@@1@@Z
	??$_Buynode@V?$allocator@U?$_Tree_node@UConfigBit@Trellis@@PEAX@std@@@std@@AEAUConfigBit@Trellis@@@?$_Tree_node@UConfigBit@Trellis@@PEAX@std@@SAPEAU01@AEAV?$allocator@U?$_Tree_node@UConfigBit@Trellis@@PEAX@std@@@1@PEAU01@AEAUConfigBit@Trellis@@@Z
	??$_Buynode@V?$allocator@U?$_Tree_node@UFixedConnection@Trellis@@PEAX@std@@@std@@AEAUFixedConnection@Trellis@@@?$_Tree_node@UFixedConnection@Trellis@@PEAX@std@@SAPEAU01@AEAV?$allocator@U?$_Tree_node@UFixedConnection@Trellis@@PEAX@std@@@1@PEAU01@AEAUFixedConnection@Trellis@@@Z
	??$_Buynode@V?$allocator@U?$_Tree_node@URelId@DDChipDb@Trellis@@PEAX@std@@@std@@AEAURelId@DDChipDb@Trellis@@@?$_Tree_node@URelId@DDChipDb@Trellis@@PEAX@std@@SAPEAU01@AEAV?$allocator@U?$_Tree_node@URelId@DDChipDb@Trellis@@PEAX@std@@@1@PEAU01@AEAURelId@DDChipDb@Trellis@@@Z
	??$_Cmp_chrange@V?$_String_const_iterator@V?$_String_val@U?$_Simple_types@D@std@@@std@@@std@@PEBDU?$_Cmp_icase_translateleft@V?$regex_traits@D@std@@@2@@std@@YA?AV?$_String_const_iterator@V?$_String_val@U?$_Simple_types@D@std@@@std@@@0@V10@0PEBD1U?$_Cmp_icase_translateleft@V?$regex_traits@D@std@@@0@@Z
	??$_Cmp_chrange@V?$_String_const_iterator@V?$_String_val@U?$_Simple_types@D@std@@@std@@@std@@PEBDU?$equal_to@D@2@@std@@YA?AV?$_String_const_iterator@V?$_String_val@U?$_Simple_types@D@std@@@std@@@0@V10@0PEBD1U?$equal_to@D@0@@Z
	??$_Cmp_chrange@V?$_String_const_iterator@V?$_String_val@U?$_Simple_types@D@std@@@std@@@std@@V12@U?$_Cmp_icase@V?$regex_traits@D@std@@@2@@std@@YA?AV?$_String_const_iterator@V?$_String_val@U?$_Simple_types@D@std@@@std@@@0@V10@000U?$_Cmp_icase@V?$regex_traits@D@std@@@0@@Z
	??$_Cmp_chrange@V?$_String_const_iterator@V?$_String_val@U?$_Simple_types@D@std@@@std@@@std@@V12@U?$equal_to@D@2@@std@@YA?AV?$_String_const_iterator@V?$_String_val@U?$_Simple_types@D@std@@@std@@@0@V10@000U?$equal_to@D@0@@Z
	??$_Compare_translate_both@V?$_String_const_iterator@V?$_String_val@U?$_Simple_types@D@std@@@std@@@std@@V12@V?$regex_traits@D@2@@std@@YA?AV?$_String_const_iterator@V?$_String_val@U?$_Simple_types@D@std@@@std@@@0@V10@000AEBV?$regex_traits@D@0@W4syntax_option_type@regex_constants@0@@Z
	??$_Compare_translate_left@V?$_String_const_iterator@V?$_String_val@U?$_Simple_types@D@std@@@std@@@std@@PEBDV?$regex_traits@D@2@@std@@YA?AV?$_String_const_iterator@V?$_String_val@U?$_Simple_types@D@std@@@std@@@0@V10@0PEBD1AEBV?$regex_traits@D@0@W4syntax_option_type@regex_constants@0@@Z
	??$_Construct@$00PEAD@?$basic_string@DU?$char_traits@D@std@@V?$allocator@D@2@@std@@AEAAXQEAD_K@Z
	??$_Construct@$00PEBD@?$basic_string@DU?$char_traits@D@std@@V?$allocator@D@2@@std@@AEAAXQEBD_K@Z
	??$_Construct@$01PEBD@?$basic_string@DU?$char_traits@D@std@@V?$allocator@D@2@@std@@AEAAXQEBD_K@Z
	??$_Construct@$0A@D@?$basic_string@DU?$char_traits@D@std@@V?$allocator@D@2@@std@@AEAAXD_K@Z
	??$_Construct_in_place@EAEBE@std@@YAXAEAEAEBE@Z
	??$_Construct_in_place@EE@std@@YAXAEAE$$QEAE@Z
	??$_Construct_in_place@GAEBG@std@@YAXAEAGAEBG@Z
	??$_Construct_in_place@HAEBH@std@@YAXAEAHAEBH@Z
	??$_Construct_in_place@HH@std@@YAXAEAH$$QEAH@Z
	??$_Construct_in_place@II@std@@YAXAEAI$$QEAI@Z
	??$_Construct_in_place@PEADAEAPEAD@std@@YAXAEAPEAD0@Z
	??$_Construct_in_place@PEADAEBQEAD@std@@YAXAEAPEADAEBQEAD@Z
	??$_Construct_in_place@PEAU?$_List_node@U?$pair@$$CBUTileLocator@Trellis@@V?$shared_ptr@VTileBitDatabase@Trellis@@@std@@@std@@PEAX@std@@AEAPEAU12@@std@@YAXAEAPEAU?$_List_node@U?$pair@$$CBUTileLocator@Trellis@@V?$shared_ptr@VTileBitDatabase@Trellis@@@std@@@std@@PEAX@0@0@Z
	??$_Construct_in_place@PEAU?$_List_node@U?$pair@$$CBUTileLocator@Trellis@@V?$shared_ptr@VTileBitDatabase@Trellis@@@std@@@std@@PEAX@std@@AEBQEAU12@@std@@YAXAEAPEAU?$_List_node@U?$pair@$$CBUTileLocator@Trellis@@V?$shared_ptr@VTileBitDatabase@Trellis@@@std@@@std@@PEAX@0@AEBQEAU10@@Z
	??$_Construct_in_place@PEAU?$_List_node@U?$pair@$$CBV?$basic_string@DU?$char_traits@D@std@@V?$allocator@D@2@@std@@H@std@@PEAX@std@@AEAPEAU12@@std@@YAXAEAPEAU?$_List_node@U?$pair@$$CBV?$basic_string@DU?$char_traits@D@std@@V?$allocator@D@2@@std@@H@std@@PEAX@0@0@Z
	??$_Construct_in_place@PEAU?$_List_node@U?$pair@$$CBV?$basic_string@DU?$char_traits@D@std@@V?$allocator@D@2@@std@@H@std@@PEAX@std@@AEBQEAU12@@std@@YAXAEAPEAU?$_List_node@U?$pair@$$CBV?$basic_string@DU?$char_traits@D@std@@V?$allocator@D@2@@std@@H@std@@PEAX@0@AEBQEAU10@@Z
	??$_Construct_in_place@PEAU?$_List_node@UConfigBit@Trellis@@PEAX@std@@AEAPEAU12@@std@@YAXAEAPEAU?$_List_node@UConfigBit@Trellis@@PEAX@0@0@Z
	??$_Construct_in_place@PEAU?$_List_node@UConfigBit@Trellis@@PEAX@std@@AEBQEAU12@@std@@YAXAEAPEAU?$_List_node@UConfigBit@Trellis@@PEAX@0@AEBQEAU10@@Z
	??$_Construct_in_place@PEAU?$_Tree_node@U?$pair@$$CBGV?$vector@GV?$allocator@G@std@@@std@@@std@@PEAX@std@@AEAPEAU12@@std@@YAXAEAPEAU?$_Tree_node@U?$pair@$$CBGV?$vector@GV?$allocator@G@std@@@std@@@std@@PEAX@0@0@Z
	??$_Construct_in_place@PEAU?$_Tree_node@U?$pair@$$CBGV?$vector@GV?$allocator@G@std@@@std@@@std@@PEAX@std@@AEBQEAU12@@std@@YAXAEAPEAU?$_Tree_node@U?$pair@$$CBGV?$vector@GV?$allocator@G@std@@@std@@@std@@PEAX@0@AEBQEAU10@@Z
	??$_Construct_in_place@PEAU?$_Tree_node@U?$pair@$$CBHU?$pair@URoutingId@Trellis@@W4PortDirection@2@@std@@@std@@PEAX@std@@AEAPEAU12@@std@@YAXAEAPEAU?$_Tree_node@U?$pair@$$CBHU?$pair@URoutingId@Trellis@@W4PortDirection@2@@std@@@std@@PEAX@0@0@Z
	??$_Construct_in_place@PEAU?$_Tree_node@U?$pair@$$CBHU?$pair@URoutingId@Trellis@@W4PortDirection@2@@std@@@std@@PEAX@std@@AEBQEAU12@@std@@YAXAEAPEAU?$_Tree_node@U?$pair@$$CBHU?$pair@URoutingId@Trellis@@W4PortDirection@2@@std@@@std@@PEAX@0@AEBQEAU10@@Z
	??$_Construct_in_place@PEAU?$_Tree_node@U?$pair@$$CBHURoutingArc@Trellis@@@std@@PEAX@std@@AEAPEAU12@@std@@YAXAEAPEAU?$_Tree_node@U?$pair@$$CBHURoutingArc@Trellis@@@std@@PEAX@0@0@Z
	??$_Construct_in_place@PEAU?$_Tree_node@U?$pair@$$CBHURoutingArc@Trellis@@@std@@PEAX@std@@AEBQEAU12@@std@@YAXAEAPEAU?$_Tree_node@U?$pair@$$CBHURoutingArc@Trellis@@@std@@PEAX@0@AEBQEAU10@@Z
	??$_Construct_in_place@PEAU?$_Tree_node@U?$pair@$$CBHURoutingBel@Trellis@@@std@@PEAX@std@@AEAPEAU12@@std@@YAXAEAPEAU?$_Tree_node@U?$pair@$$CBHURoutingBel@Trellis@@@std@@PEAX@0@0@Z
	??$_Construct_in_place@PEAU?$_Tree_node@U?$pair@$$CBHURoutingBel@Trellis@@@std@@PEAX@std@@AEBQEAU12@@std@@YAXAEAPEAU?$_Tree_node@U?$pair@$$CBHURoutingBel@Trellis@@@std@@PEAX@0@AEBQEAU10@@Z
	??$_Construct_in_place@PEAU?$_Tree_node@U?$pair@$$CBHURoutingWire@Trellis@@@std@@PEAX@std@@AEAPEAU12@@std@@YAXAEAPEAU?$_Tree_node@U?$pair@$$CBHURoutingWire@Trellis@@@std@@PEAX@0@0@Z
	??$_Construct_in_place@PEAU?$_Tree_node@U?$pair@$$CBHURoutingWire@Trellis@@@std@@PEAX@std@@AEBQEAU12@@std@@YAXAEAPEAU?$_Tree_node@U?$pair@$$CBHURoutingWire@Trellis@@@std@@PEAX@0@AEBQEAU10@@Z
	??$_Construct_in_place@PEAU?$_Tree_node@U?$pair@$$CBII@std@@PEAX@std@@AEAPEAU12@@std@@YAXAEAPEAU?$_Tree_node@U?$pair@$$CBII@std@@PEAX@0@0@Z
	??$_Construct_in_place@PEAU?$_Tree_node@U?$pair@$$CBII@std@@PEAX@std@@AEBQEAU12@@std@@YAXAEAPEAU?$_Tree_node@U?$pair@$$CBII@std@@PEAX@0@AEBQEAU10@@Z
	??$_Construct_in_place@PEAU?$_Tree_node@U?$pair@$$CBU?$pair@HH@std@@H@std@@PEAX@std@@AEAPEAU12@@std@@YAXAEAPEAU?$_Tree_node@U?$pair@$$CBU?$pair@HH@std@@H@std@@PEAX@0@0@Z
	??$_Construct_in_place@PEAU?$_Tree_node@U?$pair@$$CBU?$pair@HH@std@@H@std@@PEAX@std@@AEBQEAU12@@std@@YAXAEAPEAU?$_Tree_node@U?$pair@$$CBU?$pair@HH@std@@H@std@@PEAX@0@AEBQEAU10@@Z
	??$_Construct_in_place@PEAU?$_Tree_node@U?$pair@$$CBU?$pair@HH@std@@U12@@std@@PEAX@std@@AEAPEAU12@@std@@YAXAEAPEAU?$_Tree_node@U?$pair@$$CBU?$pair@HH@std@@U12@@std@@PEAX@0@0@Z
	??$_Construct_in_place@PEAU?$_Tree_node@U?$pair@$$CBU?$pair@HH@std@@U12@@std@@PEAX@std@@AEBQEAU12@@std@@YAXAEAPEAU?$_Tree_node@U?$pair@$$CBU?$pair@HH@std@@U12@@std@@PEAX@0@AEBQEAU10@@Z
	??$_Construct_in_place@PEAU?$_Tree_node@U?$pair@$$CBU?$pair@HH@std@@V?$vector@USpineInfo@Trellis@@V?$allocator@USpineInfo@Trellis@@@std@@@2@@std@@PEAX@std@@AEAPEAU12@@std@@YAXAEAPEAU?$_Tree_node@U?$pair@$$CBU?$pair@HH@std@@V?$vector@USpineInfo@Trellis@@V?$allocator@USpineInfo@Trellis@@@std@@@2@@std@@PEAX@0@0@Z
	??$_Construct_in_place@PEAU?$_Tree_node@U?$pair@$$CBU?$pair@HH@std@@V?$vector@USpineInfo@Trellis@@V?$allocator@USpineInfo@Trellis@@@std@@@2@@std@@PEAX@std@@AEBQEAU12@@std@@YAXAEAPEAU?$_Tree_node@U?$pair@$$CBU?$pair@HH@std@@V?$vector@USpineInfo@Trellis@@V?$allocator@USpineInfo@Trellis@@@std@@@2@@std@@PEAX@0@AEBQEAU10@@Z
	??$_Construct_in_place@PEAU?$_Tree_node@U?$pair@$$CBU?$pair@_K_K@std@@ULocationData@DDChipDb@Trellis@@@std@@PEAX@std@@AEAPEAU12@@std@@YAXAEAPEAU?$_Tree_node@U?$pair@$$CBU?$pair@_K_K@std@@ULocationData@DDChipDb@Trellis@@@std@@PEAX@0@0@Z
	??$_Construct_in_place@PEAU?$_Tree_node@U?$pair@$$CBU?$pair@_K_K@std@@ULocationData@DDChipDb@Trellis@@@std@@PEAX@std@@AEBQEAU12@@std@@YAXAEAPEAU?$_Tree_node@U?$pair@$$CBU?$pair@_K_K@std@@ULocationData@DDChipDb@Trellis@@@std@@PEAX@0@AEBQEAU10@@Z
	??$_Construct_in_place@PEAU?$_Tree_node@U?$pair@$$CBULocation@Trellis@@U?$pair@_K_K@std@@@std@@PEAX@std@@AEAPEAU12@@std@@YAXAEAPEAU?$_Tree_node@U?$pair@$$CBULocation@Trellis@@U?$pair@_K_K@std@@@std@@PEAX@0@0@Z
	??$_Construct_in_place@PEAU?$_Tree_node@U?$pair@$$CBULocation@Trellis@@U?$pair@_K_K@std@@@std@@PEAX@std@@AEBQEAU12@@std@@YAXAEAPEAU?$_Tree_node@U?$pair@$$CBULocation@Trellis@@U?$pair@_K_K@std@@@std@@PEAX@0@AEBQEAU10@@Z
	??$_Construct_in_place@PEAU?$_Tree_node@U?$pair@$$CBULocation@Trellis@@ULocationData@DDChipDb@2@@std@@PEAX@std@@AEAPEAU12@@std@@YAXAEAPEAU?$_Tree_node@U?$pair@$$CBULocation@Trellis@@ULocationData@DDChipDb@2@@std@@PEAX@0@0@Z
	??$_Construct_in_place@PEAU?$_Tree_node@U?$pair@$$CBULocation@Trellis@@ULocationData@DDChipDb@2@@std@@PEAX@std@@AEBQEAU12@@std@@YAXAEAPEAU?$_Tree_node@U?$pair@$$CBULocation@Trellis@@ULocationData@DDChipDb@2@@std@@PEAX@0@AEBQEAU10@@Z
	??$_Construct_in_place@PEAU?$_Tree_node@U?$pair@$$CBULocation@Trellis@@URoutingTileLoc@2@@std@@PEAX@std@@AEAPEAU12@@std@@YAXAEAPEAU?$_Tree_node@U?$pair@$$CBULocation@Trellis@@URoutingTileLoc@2@@std@@PEAX@0@0@Z
	??$_Construct_in_place@PEAU?$_Tree_node@U?$pair@$$CBULocation@Trellis@@URoutingTileLoc@2@@std@@PEAX@std@@AEBQEAU12@@std@@YAXAEAPEAU?$_Tree_node@U?$pair@$$CBULocation@Trellis@@URoutingTileLoc@2@@std@@PEAX@0@AEBQEAU10@@Z
	??$_Construct_in_place@PEAU?$_Tree_node@U?$pair@$$CBV?$basic_string@DU?$char_traits@D@std@@V?$allocator@D@2@@std@@UArcData@Trellis@@@std@@PEAX@std@@AEAPEAU12@@std@@YAXAEAPEAU?$_Tree_node@U?$pair@$$CBV?$basic_string@DU?$char_traits@D@std@@V?$allocator@D@2@@std@@UArcData@Trellis@@@std@@PEAX@0@0@Z
	??$_Construct_in_place@PEAU?$_Tree_node@U?$pair@$$CBV?$basic_string@DU?$char_traits@D@std@@V?$allocator@D@2@@std@@UArcData@Trellis@@@std@@PEAX@std@@AEBQEAU12@@std@@YAXAEAPEAU?$_Tree_node@U?$pair@$$CBV?$basic_string@DU?$char_traits@D@std@@V?$allocator@D@2@@std@@UArcData@Trellis@@@std@@PEAX@0@AEBQEAU10@@Z
	??$_Construct_in_place@PEAU?$_Tree_node@U?$pair@$$CBV?$basic_string@DU?$char_traits@D@std@@V?$allocator@D@2@@std@@UBitGroup@Trellis@@@std@@PEAX@std@@AEAPEAU12@@std@@YAXAEAPEAU?$_Tree_node@U?$pair@$$CBV?$basic_string@DU?$char_traits@D@std@@V?$allocator@D@2@@std@@UBitGroup@Trellis@@@std@@PEAX@0@0@Z
	??$_Construct_in_place@PEAU?$_Tree_node@U?$pair@$$CBV?$basic_string@DU?$char_traits@D@std@@V?$allocator@D@2@@std@@UBitGroup@Trellis@@@std@@PEAX@std@@AEBQEAU12@@std@@YAXAEAPEAU?$_Tree_node@U?$pair@$$CBV?$basic_string@DU?$char_traits@D@std@@V?$allocator@D@2@@std@@UBitGroup@Trellis@@@std@@PEAX@0@AEBQEAU10@@Z
	??$_Construct_in_place@PEAU?$_Tree_node@U?$pair@$$CBV?$basic_string@DU?$char_traits@D@std@@V?$allocator@D@2@@std@@UEnumSettingBits@Trellis@@@std@@PEAX@std@@AEAPEAU12@@std@@YAXAEAPEAU?$_Tree_node@U?$pair@$$CBV?$basic_string@DU?$char_traits@D@std@@V?$allocator@D@2@@std@@UEnumSettingBits@Trellis@@@std@@PEAX@0@0@Z
	??$_Construct_in_place@PEAU?$_Tree_node@U?$pair@$$CBV?$basic_string@DU?$char_traits@D@std@@V?$allocator@D@2@@std@@UEnumSettingBits@Trellis@@@std@@PEAX@std@@AEBQEAU12@@std@@YAXAEAPEAU?$_Tree_node@U?$pair@$$CBV?$basic_string@DU?$char_traits@D@std@@V?$allocator@D@2@@std@@UEnumSettingBits@Trellis@@@std@@PEAX@0@AEBQEAU10@@Z
	??$_Construct_in_place@PEAU?$_Tree_node@U?$pair@$$CBV?$basic_string@DU?$char_traits@D@std@@V?$allocator@D@2@@std@@UMuxBits@Trellis@@@std@@PEAX@std@@AEAPEAU12@@std@@YAXAEAPEAU?$_Tree_node@U?$pair@$$CBV?$basic_string@DU?$char_traits@D@std@@V?$allocator@D@2@@std@@UMuxBits@Trellis@@@std@@PEAX@0@0@Z
	??$_Construct_in_place@PEAU?$_Tree_node@U?$pair@$$CBV?$basic_string@DU?$char_traits@D@std@@V?$allocator@D@2@@std@@UMuxBits@Trellis@@@std@@PEAX@std@@AEBQEAU12@@std@@YAXAEAPEAU?$_Tree_node@U?$pair@$$CBV?$basic_string@DU?$char_traits@D@std@@V?$allocator@D@2@@std@@UMuxBits@Trellis@@@std@@PEAX@0@AEBQEAU10@@Z
	??$_Construct_in_place@PEAU?$_Tree_node@U?$pair@$$CBV?$basic_string@DU?$char_traits@D@std@@V?$allocator@D@2@@std@@UTileConfig@Trellis@@@std@@PEAX@std@@AEAPEAU12@@std@@YAXAEAPEAU?$_Tree_node@U?$pair@$$CBV?$basic_string@DU?$char_traits@D@std@@V?$allocator@D@2@@std@@UTileConfig@Trellis@@@std@@PEAX@0@0@Z
	??$_Construct_in_place@PEAU?$_Tree_node@U?$pair@$$CBV?$basic_string@DU?$char_traits@D@std@@V?$allocator@D@2@@std@@UTileConfig@Trellis@@@std@@PEAX@std@@AEBQEAU12@@std@@YAXAEAPEAU?$_Tree_node@U?$pair@$$CBV?$basic_string@DU?$char_traits@D@std@@V?$allocator@D@2@@std@@UTileConfig@Trellis@@@std@@PEAX@0@AEBQEAU10@@Z
	??$_Construct_in_place@PEAU?$_Tree_node@U?$pair@$$CBV?$basic_string@DU?$char_traits@D@std@@V?$allocator@D@2@@std@@UWordSettingBits@Trellis@@@std@@PEAX@std@@AEAPEAU12@@std@@YAXAEAPEAU?$_Tree_node@U?$pair@$$CBV?$basic_string@DU?$char_traits@D@std@@V?$allocator@D@2@@std@@UWordSettingBits@Trellis@@@std@@PEAX@0@0@Z
	??$_Construct_in_place@PEAU?$_Tree_node@U?$pair@$$CBV?$basic_string@DU?$char_traits@D@std@@V?$allocator@D@2@@std@@UWordSettingBits@Trellis@@@std@@PEAX@std@@AEBQEAU12@@std@@YAXAEAPEAU?$_Tree_node@U?$pair@$$CBV?$basic_string@DU?$char_traits@D@std@@V?$allocator@D@2@@std@@UWordSettingBits@Trellis@@@std@@PEAX@0@AEBQEAU10@@Z
	??$_Construct_in_place@PEAU?$_Tree_node@U?$pair@$$CBV?$basic_string@DU?$char_traits@D@std@@V?$allocator@D@2@@std@@V12@@std@@PEAX@std@@AEAPEAU12@@std@@YAXAEAPEAU?$_Tree_node@U?$pair@$$CBV?$basic_string@DU?$char_traits@D@std@@V?$allocator@D@2@@std@@V12@@std@@PEAX@0@0@Z
	??$_Construct_in_place@PEAU?$_Tree_node@U?$pair@$$CBV?$basic_string@DU?$char_traits@D@std@@V?$allocator@D@2@@std@@V12@@std@@PEAX@std@@AEBQEAU12@@std@@YAXAEAPEAU?$_Tree_node@U?$pair@$$CBV?$basic_string@DU?$char_traits@D@std@@V?$allocator@D@2@@std@@V12@@std@@PEAX@0@AEBQEAU10@@Z
	??$_Construct_in_place@PEAU?$_Tree_node@U?$pair@$$CBV?$basic_string@DU?$char_traits@D@std@@V?$allocator@D@2@@std@@V?$basic_ptree@V?$basic_string@DU?$char_traits@D@std@@V?$allocator@D@2@@std@@V12@U?$less@V?$basic_string@DU?$char_traits@D@std@@V?$allocator@D@2@@std@@@2@@property_tree@boost@@@std@@PEAX@std@@AEAPEAU12@@std@@YAXAEAPEAU?$_Tree_node@U?$pair@$$CBV?$basic_string@DU?$char_traits@D@std@@V?$allocator@D@2@@std@@V?$basic_ptree@V?$basic_string@DU?$char_traits@D@std@@V?$allocator@D@2@@std@@V12@U?$less@V?$basic_string@DU?$char_traits@D@std@@V?$allocator@D@2@@std@@@2@@property_tree@boost@@@std@@PEAX@0@0@Z
	??$_Construct_in_place@PEAU?$_Tree_node@U?$pair@$$CBV?$basic_string@DU?$char_traits@D@std@@V?$allocator@D@2@@std@@V?$basic_ptree@V?$basic_string@DU?$char_traits@D@std@@V?$allocator@D@2@@std@@V12@U?$less@V?$basic_string@DU?$char_traits@D@std@@V?$allocator@D@2@@std@@@2@@property_tree@boost@@@std@@PEAX@std@@AEBQEAU12@@std@@YAXAEAPEAU?$_Tree_node@U?$pair@$$CBV?$basic_string@DU?$char_traits@D@std@@V?$allocator@D@2@@std@@V?$basic_ptree@V?$basic_string@DU?$char_traits@D@std@@V?$allocator@D@2@@std@@V12@U?$less@V?$basic_string@DU?$char_traits@D@std@@V?$allocator@D@2@@std@@@2@@property_tree@boost@@@std@@PEAX@0@AEBQEAU10@@Z
	??$_Construct_in_place@PEAU?$_Tree_node@U?$pair@$$CBV?$basic_string@DU?$char_traits@D@std@@V?$allocator@D@2@@std@@V?$set@UFixedConnection@Trellis@@U?$less@UFixedConnection@Trellis@@@std@@V?$allocator@UFixedConnection@Trellis@@@4@@2@@std@@PEAX@std@@AEAPEAU12@@std@@YAXAEAPEAU?$_Tree_node@U?$pair@$$CBV?$basic_string@DU?$char_traits@D@std@@V?$allocator@D@2@@std@@V?$set@UFixedConnection@Trellis@@U?$less@UFixedConnection@Trellis@@@std@@V?$allocator@UFixedConnection@Trellis@@@4@@2@@std@@PEAX@0@0@Z
	??$_Construct_in_place@PEAU?$_Tree_node@U?$pair@$$CBV?$basic_string@DU?$char_traits@D@std@@V?$allocator@D@2@@std@@V?$set@UFixedConnection@Trellis@@U?$less@UFixedConnection@Trellis@@@std@@V?$allocator@UFixedConnection@Trellis@@@4@@2@@std@@PEAX@std@@AEBQEAU12@@std@@YAXAEAPEAU?$_Tree_node@U?$pair@$$CBV?$basic_string@DU?$char_traits@D@std@@V?$allocator@D@2@@std@@V?$set@UFixedConnection@Trellis@@U?$less@UFixedConnection@Trellis@@@std@@V?$allocator@UFixedConnection@Trellis@@@4@@2@@std@@PEAX@0@AEBQEAU10@@Z
	??$_Construct_in_place@PEAU?$_Tree_node@U?$pair@$$CBV?$basic_string@DU?$char_traits@D@std@@V?$allocator@D@2@@std@@V?$shared_ptr@VTile@Trellis@@@2@@std@@PEAX@std@@AEAPEAU12@@std@@YAXAEAPEAU?$_Tree_node@U?$pair@$$CBV?$basic_string@DU?$char_traits@D@std@@V?$allocator@D@2@@std@@V?$shared_ptr@VTile@Trellis@@@2@@std@@PEAX@0@0@Z
	??$_Construct_in_place@PEAU?$_Tree_node@U?$pair@$$CBV?$basic_string@DU?$char_traits@D@std@@V?$allocator@D@2@@std@@V?$shared_ptr@VTile@Trellis@@@2@@std@@PEAX@std@@AEBQEAU12@@std@@YAXAEAPEAU?$_Tree_node@U?$pair@$$CBV?$basic_string@DU?$char_traits@D@std@@V?$allocator@D@2@@std@@V?$shared_ptr@VTile@Trellis@@@2@@std@@PEAX@0@AEBQEAU10@@Z
	??$_Construct_in_place@PEAU?$_Tree_node@U?$pair@$$CBV?$basic_string@DU?$char_traits@D@std@@V?$allocator@D@2@@std@@V?$vector@UChangedBit@Trellis@@V?$allocator@UChangedBit@Trellis@@@std@@@2@@std@@PEAX@std@@AEAPEAU12@@std@@YAXAEAPEAU?$_Tree_node@U?$pair@$$CBV?$basic_string@DU?$char_traits@D@std@@V?$allocator@D@2@@std@@V?$vector@UChangedBit@Trellis@@V?$allocator@UChangedBit@Trellis@@@std@@@2@@std@@PEAX@0@0@Z
	??$_Construct_in_place@PEAU?$_Tree_node@U?$pair@$$CBV?$basic_string@DU?$char_traits@D@std@@V?$allocator@D@2@@std@@V?$vector@UChangedBit@Trellis@@V?$allocator@UChangedBit@Trellis@@@std@@@2@@std@@PEAX@std@@AEBQEAU12@@std@@YAXAEAPEAU?$_Tree_node@U?$pair@$$CBV?$basic_string@DU?$char_traits@D@std@@V?$allocator@D@2@@std@@V?$vector@UChangedBit@Trellis@@V?$allocator@UChangedBit@Trellis@@@std@@@2@@std@@PEAX@0@AEBQEAU10@@Z
	??$_Construct_in_place@PEAU?$_Tree_node@UConfigBit@Trellis@@PEAX@std@@AEAPEAU12@@std@@YAXAEAPEAU?$_Tree_node@UConfigBit@Trellis@@PEAX@0@0@Z
	??$_Construct_in_place@PEAU?$_Tree_node@UConfigBit@Trellis@@PEAX@std@@AEBQEAU12@@std@@YAXAEAPEAU?$_Tree_node@UConfigBit@Trellis@@PEAX@0@AEBQEAU10@@Z
	??$_Construct_in_place@PEAU?$_Tree_node@UFixedConnection@Trellis@@PEAX@std@@AEAPEAU12@@std@@YAXAEAPEAU?$_Tree_node@UFixedConnection@Trellis@@PEAX@0@0@Z
	??$_Construct_in_place@PEAU?$_Tree_node@UFixedConnection@Trellis@@PEAX@std@@AEBQEAU12@@std@@YAXAEAPEAU?$_Tree_node@UFixedConnection@Trellis@@PEAX@0@AEBQEAU10@@Z
	??$_Construct_in_place@PEAU?$_Tree_node@URelId@DDChipDb@Trellis@@PEAX@std@@AEAPEAU12@@std@@YAXAEAPEAU?$_Tree_node@URelId@DDChipDb@Trellis@@PEAX@0@0@Z
	??$_Construct_in_place@PEAU?$_Tree_node@URelId@DDChipDb@Trellis@@PEAX@std@@AEBQEAU12@@std@@YAXAEAPEAU?$_Tree_node@URelId@DDChipDb@Trellis@@PEAX@0@AEBQEAU10@@Z
	??$_Construct_in_place@PEAU?$_Tree_node@V?$basic_string@DU?$char_traits@D@std@@V?$allocator@D@2@@std@@PEAX@std@@AEAPEAU12@@std@@YAXAEAPEAU?$_Tree_node@V?$basic_string@DU?$char_traits@D@std@@V?$allocator@D@2@@std@@PEAX@0@0@Z
	??$_Construct_in_place@PEAU?$_Tree_node@V?$basic_string@DU?$char_traits@D@std@@V?$allocator@D@2@@std@@PEAX@std@@AEBQEAU12@@std@@YAXAEAPEAU?$_Tree_node@V?$basic_string@DU?$char_traits@D@std@@V?$allocator@D@2@@std@@PEAX@0@AEBQEAU10@@Z
	??$_Construct_in_place@U?$pair@HE@std@@U12@@std@@YAXAEAU?$pair@HE@0@$$QEAU10@@Z
	??$_Construct_in_place@U?$pair@URoutingId@Trellis@@H@std@@U12@@std@@YAXAEAU?$pair@URoutingId@Trellis@@H@0@$$QEAU10@@Z
	??$_Construct_in_place@U?$pair@V?$basic_string@DU?$char_traits@D@std@@V?$allocator@D@2@@std@@V12@@std@@U12@@std@@YAXAEAU?$pair@V?$basic_string@DU?$char_traits@D@std@@V?$allocator@D@2@@std@@V12@@0@$$QEAU10@@Z
	??$_Construct_in_place@U?$pair@V?$basic_string@DU?$char_traits@D@std@@V?$allocator@D@2@@std@@_N@std@@U12@@std@@YAXAEAU?$pair@V?$basic_string@DU?$char_traits@D@std@@V?$allocator@D@2@@std@@_N@0@$$QEAU10@@Z
	??$_Construct_in_place@UBelPort@DDChipDb@Trellis@@AEBU123@@std@@YAXAEAUBelPort@DDChipDb@Trellis@@AEBU123@@Z
	??$_Construct_in_place@UBelWire@DDChipDb@Trellis@@AEBU123@@std@@YAXAEAUBelWire@DDChipDb@Trellis@@AEBU123@@Z
	??$_Construct_in_place@UChangedBit@Trellis@@U12@@std@@YAXAEAUChangedBit@Trellis@@$$QEAU12@@Z
	??$_Construct_in_place@UConfigArc@Trellis@@U12@@std@@YAXAEAUConfigArc@Trellis@@$$QEAU12@@Z
	??$_Construct_in_place@UConfigEnum@Trellis@@U12@@std@@YAXAEAUConfigEnum@Trellis@@$$QEAU12@@Z
	??$_Construct_in_place@UConfigUnknown@Trellis@@AEBU12@@std@@YAXAEAUConfigUnknown@Trellis@@AEBU12@@Z
	??$_Construct_in_place@UConfigUnknown@Trellis@@U12@@std@@YAXAEAUConfigUnknown@Trellis@@$$QEAU12@@Z
	??$_Construct_in_place@UConfigWord@Trellis@@U12@@std@@YAXAEAUConfigWord@Trellis@@$$QEAU12@@Z
	??$_Construct_in_place@UDdArcData@DDChipDb@Trellis@@AEBU123@@std@@YAXAEAUDdArcData@DDChipDb@Trellis@@AEBU123@@Z
	??$_Construct_in_place@UDedupChipdb@DDChipDb@Trellis@@VIdStore@3@@std@@YAXAEAUDedupChipdb@DDChipDb@Trellis@@$$QEAVIdStore@3@@Z
	??$_Construct_in_place@UOptimizedChipdb@DDChipDb@Trellis@@VIdStore@3@@std@@YAXAEAUOptimizedChipdb@DDChipDb@Trellis@@$$QEAVIdStore@3@@Z
	??$_Construct_in_place@URoutingId@Trellis@@AEBU12@@std@@YAXAEAURoutingId@Trellis@@AEBU12@@Z
	??$_Construct_in_place@UTapSegment@Trellis@@AEBU12@@std@@YAXAEAUTapSegment@Trellis@@AEBU12@@Z
	??$_Construct_in_place@Ulayer@?$standard_callbacks@V?$basic_ptree@V?$basic_string@DU?$char_traits@D@std@@V?$allocator@D@2@@std@@V12@U?$less@V?$basic_string@DU?$char_traits@D@std@@V?$allocator@D@2@@std@@@2@@property_tree@boost@@@detail@json_parser@property_tree@boost@@AEBU123456@@std@@YAXAEAUlayer@?$standard_callbacks@V?$basic_ptree@V?$basic_string@DU?$char_traits@D@std@@V?$allocator@D@2@@std@@V12@U?$less@V?$basic_string@DU?$char_traits@D@std@@V?$allocator@D@2@@std@@@2@@property_tree@boost@@@detail@json_parser@property_tree@boost@@AEBU123456@@Z
	??$_Construct_in_place@V?$_List_unchecked_const_iterator@V?$_List_val@U?$_List_simple_types@UConfigBit@Trellis@@@std@@@std@@U_Iterator_base0@2@@std@@AEBV12@@std@@YAXAEAV?$_List_unchecked_const_iterator@V?$_List_val@U?$_List_simple_types@UConfigBit@Trellis@@@std@@@std@@U_Iterator_base0@2@@0@AEBV10@@Z
	??$_Construct_in_place@V?$_List_unchecked_iterator@V?$_List_val@U?$_List_simple_types@U?$pair@$$CBUTileLocator@Trellis@@V?$shared_ptr@VTileBitDatabase@Trellis@@@std@@@std@@@std@@@std@@@std@@AEBV12@@std@@YAXAEAV?$_List_unchecked_iterator@V?$_List_val@U?$_List_simple_types@U?$pair@$$CBUTileLocator@Trellis@@V?$shared_ptr@VTileBitDatabase@Trellis@@@std@@@std@@@std@@@std@@@0@AEBV10@@Z
	??$_Construct_in_place@V?$_List_unchecked_iterator@V?$_List_val@U?$_List_simple_types@U?$pair@$$CBV?$basic_string@DU?$char_traits@D@std@@V?$allocator@D@2@@std@@H@std@@@std@@@std@@@std@@AEBV12@@std@@YAXAEAV?$_List_unchecked_iterator@V?$_List_val@U?$_List_simple_types@U?$pair@$$CBV?$basic_string@DU?$char_traits@D@std@@V?$allocator@D@2@@std@@H@std@@@std@@@std@@@0@AEBV10@@Z
	??$_Construct_in_place@V?$shared_ptr@VTile@Trellis@@@std@@AEBV12@@std@@YAXAEAV?$shared_ptr@VTile@Trellis@@@0@AEBV10@@Z
	??$_Construct_in_place@V?$vector@EV?$allocator@E@std@@@std@@$$V@std@@YAXAEAV?$vector@EV?$allocator@E@std@@@0@@Z
	??$_Construct_in_place@V?$vector@V?$vector@DV?$allocator@D@std@@@std@@V?$allocator@V?$vector@DV?$allocator@D@std@@@std@@@2@@std@@$$V@std@@YAXAEAV?$vector@V?$vector@DV?$allocator@D@std@@@std@@V?$allocator@V?$vector@DV?$allocator@D@std@@@std@@@2@@0@@Z
	??$_Construct_in_place@VTile@Trellis@@AEBUTileInfo@2@AEAVChip@2@@std@@YAXAEAVTile@Trellis@@AEBUTileInfo@2@AEAVChip@2@@Z
	??$_Construct_n@$$V@?$vector@DV?$allocator@D@std@@@std@@AEAAX_K@Z
	??$_Construct_n@AEBQEADAEBQEAD@?$vector@DV?$allocator@D@std@@@std@@AEAAX_KAEBQEAD1@Z
	??$_Construct_n@AEBQEAEAEBQEAE@?$vector@EV?$allocator@E@std@@@std@@AEAAX_KAEBQEAE1@Z
	??$_Construct_n@AEBQEAGAEBQEAG@?$vector@GV?$allocator@G@std@@@std@@AEAAX_KAEBQEAG1@Z
	??$_Construct_n@AEBQEAHAEBQEAH@?$vector@HV?$allocator@H@std@@@std@@AEAAX_KAEBQEAH1@Z
	??$_Construct_n@AEBQEAIAEBQEAI@?$vector@IV?$allocator@I@std@@@std@@AEAAX_KAEBQEAI1@Z
	??$_Construct_n@AEBQEAU?$pair@V?$basic_string@DU?$char_traits@D@std@@V?$allocator@D@2@@std@@V12@@std@@AEBQEAU12@@?$vector@U?$pair@V?$basic_string@DU?$char_traits@D@std@@V?$allocator@D@2@@std@@V12@@std@@V?$allocator@U?$pair@V?$basic_string@DU?$char_traits@D@std@@V?$allocator@D@2@@std@@V12@@std@@@2@@std@@AEAAX_KAEBQEAU?$pair@V?$basic_string@DU?$char_traits@D@std@@V?$allocator@D@2@@std@@V12@@1@1@Z
	??$_Construct_n@AEBQEAUBelData@DDChipDb@Trellis@@AEBQEAU123@@?$vector@UBelData@DDChipDb@Trellis@@V?$allocator@UBelData@DDChipDb@Trellis@@@std@@@std@@AEAAX_KAEBQEAUBelData@DDChipDb@Trellis@@1@Z
	??$_Construct_n@AEBQEAUBelPort@DDChipDb@Trellis@@AEBQEAU123@@?$vector@UBelPort@DDChipDb@Trellis@@V?$allocator@UBelPort@DDChipDb@Trellis@@@std@@@std@@AEAAX_KAEBQEAUBelPort@DDChipDb@Trellis@@1@Z
	??$_Construct_n@AEBQEAUBelWire@DDChipDb@Trellis@@AEBQEAU123@@?$vector@UBelWire@DDChipDb@Trellis@@V?$allocator@UBelWire@DDChipDb@Trellis@@@std@@@std@@AEAAX_KAEBQEAUBelWire@DDChipDb@Trellis@@1@Z
	??$_Construct_n@AEBQEAUBitGroup@Trellis@@AEBQEAU12@@?$vector@UBitGroup@Trellis@@V?$allocator@UBitGroup@Trellis@@@std@@@std@@AEAAX_KAEBQEAUBitGroup@Trellis@@1@Z
	??$_Construct_n@AEBQEAUConfigArc@Trellis@@AEBQEAU12@@?$vector@UConfigArc@Trellis@@V?$allocator@UConfigArc@Trellis@@@std@@@std@@AEAAX_KAEBQEAUConfigArc@Trellis@@1@Z
	??$_Construct_n@AEBQEAUConfigEnum@Trellis@@AEBQEAU12@@?$vector@UConfigEnum@Trellis@@V?$allocator@UConfigEnum@Trellis@@@std@@@std@@AEAAX_KAEBQEAUConfigEnum@Trellis@@1@Z
	??$_Construct_n@AEBQEAUConfigUnknown@Trellis@@AEBQEAU12@@?$vector@UConfigUnknown@Trellis@@V?$allocator@UConfigUnknown@Trellis@@@std@@@std@@AEAAX_KAEBQEAUConfigUnknown@Trellis@@1@Z
	??$_Construct_n@AEBQEAUConfigWord@Trellis@@AEBQEAU12@@?$vector@UConfigWord@Trellis@@V?$allocator@UConfigWord@Trellis@@@std@@@std@@AEAAX_KAEBQEAUConfigWord@Trellis@@1@Z
	??$_Construct_n@AEBQEAUDdArcData@DDChipDb@Trellis@@AEBQEAU123@@?$vector@UDdArcData@DDChipDb@Trellis@@V?$allocator@UDdArcData@DDChipDb@Trellis@@@std@@@std@@AEAAX_KAEBQEAUDdArcData@DDChipDb@Trellis@@1@Z
	??$_Construct_n@AEBQEAUGlobalRegion@Trellis@@AEBQEAU12@@?$vector@UGlobalRegion@Trellis@@V?$allocator@UGlobalRegion@Trellis@@@std@@@std@@AEAAX_KAEBQEAUGlobalRegion@Trellis@@1@Z
	??$_Construct_n@AEBQEAUSiteInfo@Trellis@@AEBQEAU12@@?$vector@USiteInfo@Trellis@@V?$allocator@USiteInfo@Trellis@@@std@@@std@@AEAAX_KAEBQEAUSiteInfo@Trellis@@1@Z
	??$_Construct_n@AEBQEAUSpineInfo@Trellis@@AEBQEAU12@@?$vector@USpineInfo@Trellis@@V?$allocator@USpineInfo@Trellis@@@std@@@std@@AEAAX_KAEBQEAUSpineInfo@Trellis@@1@Z
	??$_Construct_n@AEBQEAUSpineSegment@Trellis@@AEBQEAU12@@?$vector@USpineSegment@Trellis@@V?$allocator@USpineSegment@Trellis@@@std@@@std@@AEAAX_KAEBQEAUSpineSegment@Trellis@@1@Z
	??$_Construct_n@AEBQEAUTapSegment@Trellis@@AEBQEAU12@@?$vector@UTapSegment@Trellis@@V?$allocator@UTapSegment@Trellis@@@std@@@std@@AEAAX_KAEBQEAUTapSegment@Trellis@@1@Z
	??$_Construct_n@AEBQEAUWireData@DDChipDb@Trellis@@AEBQEAU123@@?$vector@UWireData@DDChipDb@Trellis@@V?$allocator@UWireData@DDChipDb@Trellis@@@std@@@std@@AEAAX_KAEBQEAUWireData@DDChipDb@Trellis@@1@Z
	??$_Construct_n@AEBQEAU_Grp_t@?$_Tgt_state_t@V?$_String_const_iterator@V?$_String_val@U?$_Simple_types@D@std@@@std@@@std@@@std@@AEBQEAU123@@?$vector@U_Grp_t@?$_Tgt_state_t@V?$_String_const_iterator@V?$_String_val@U?$_Simple_types@D@std@@@std@@@std@@@std@@V?$allocator@U_Grp_t@?$_Tgt_state_t@V?$_String_const_iterator@V?$_String_val@U?$_Simple_types@D@std@@@std@@@std@@@std@@@3@@std@@AEAAX_KAEBQEAU_Grp_t@?$_Tgt_state_t@V?$_String_const_iterator@V?$_String_val@U?$_Simple_types@D@std@@@std@@@std@@@1@1@Z
	??$_Construct_n@AEBQEAV?$basic_string@DU?$char_traits@D@std@@V?$allocator@D@2@@std@@AEBQEAV12@@?$vector@V?$basic_string@DU?$char_traits@D@std@@V?$allocator@D@2@@std@@V?$allocator@V?$basic_string@DU?$char_traits@D@std@@V?$allocator@D@2@@std@@@2@@std@@AEAAX_KAEBQEAV?$basic_string@DU?$char_traits@D@std@@V?$allocator@D@2@@1@1@Z
	??$_Construct_n@AEBQEAV?$vector@HV?$allocator@H@std@@@std@@AEBQEAV12@@?$vector@V?$vector@HV?$allocator@H@std@@@std@@V?$allocator@V?$vector@HV?$allocator@H@std@@@std@@@2@@std@@AEAAX_KAEBQEAV?$vector@HV?$allocator@H@std@@@1@1@Z
	??$_Construct_n@AEBQEAV?$vector@U?$pair@V?$basic_string@DU?$char_traits@D@std@@V?$allocator@D@2@@std@@V12@@std@@V?$allocator@U?$pair@V?$basic_string@DU?$char_traits@D@std@@V?$allocator@D@2@@std@@V12@@std@@@2@@std@@AEBQEAV12@@?$vector@V?$vector@U?$pair@V?$basic_string@DU?$char_traits@D@std@@V?$allocator@D@2@@std@@V12@@std@@V?$allocator@U?$pair@V?$basic_string@DU?$char_traits@D@std@@V?$allocator@D@2@@std@@V12@@std@@@2@@std@@V?$allocator@V?$vector@U?$pair@V?$basic_string@DU?$char_traits@D@std@@V?$allocator@D@2@@std@@V12@@std@@V?$allocator@U?$pair@V?$basic_string@DU?$char_traits@D@std@@V?$allocator@D@2@@std@@V12@@std@@@2@@std@@@2@@std@@AEAAX_KAEBQEAV?$vector@U?$pair@V?$basic_string@DU?$char_traits@D@std@@V?$allocator@D@2@@std@@V12@@std@@V?$allocator@U?$pair@V?$basic_string@DU?$char_traits@D@std@@V?$allocator@D@2@@std@@V12@@std@@@2@@1@1@Z
	??$_Construct_n@AEBQEAV?$vector@V?$vector@U?$pair@V?$basic_string@DU?$char_traits@D@std@@V?$allocator@D@2@@std@@V12@@std@@V?$allocator@U?$pair@V?$basic_string@DU?$char_traits@D@std@@V?$allocator@D@2@@std@@V12@@std@@@2@@std@@V?$allocator@V?$vector@U?$pair@V?$basic_string@DU?$char_traits@D@std@@V?$allocator@D@2@@std@@V12@@std@@V?$allocator@U?$pair@V?$basic_string@DU?$char_traits@D@std@@V?$allocator@D@2@@std@@V12@@std@@@2@@std@@@2@@std@@AEBQEAV12@@?$vector@V?$vector@V?$vector@U?$pair@V?$basic_string@DU?$char_traits@D@std@@V?$allocator@D@2@@std@@V12@@std@@V?$allocator@U?$pair@V?$basic_string@DU?$char_traits@D@std@@V?$allocator@D@2@@std@@V12@@std@@@2@@std@@V?$allocator@V?$vector@U?$pair@V?$basic_string@DU?$char_traits@D@std@@V?$allocator@D@2@@std@@V12@@std@@V?$allocator@U?$pair@V?$basic_string@DU?$char_traits@D@std@@V?$allocator@D@2@@std@@V12@@std@@@2@@std@@@2@@std@@V?$allocator@V?$vector@V?$vector@U?$pair@V?$basic_string@DU?$char_traits@D@std@@V?$allocator@D@2@@std@@V12@@std@@V?$allocator@U?$pair@V?$basic_string@DU?$char_traits@D@std@@V?$allocator@D@2@@std@@V12@@std@@@2@@std@@V?$allocator@V?$vector@U?$pair@V?$basic_string@DU?$char_traits@D@std@@V?$allocator@D@2@@std@@V12@@std@@V?$allocator@U?$pair@V?$basic_string@DU?$char_traits@D@std@@V?$allocator@D@2@@std@@V12@@std@@@2@@std@@@2@@std@@@2@@std@@AEAAX_KAEBQEAV?$vector@V?$vector@U?$pair@V?$basic_string@DU?$char_traits@D@std@@V?$allocator@D@2@@std@@V12@@std@@V?$allocator@U?$pair@V?$basic_string@DU?$char_traits@D@std@@V?$allocator@D@2@@std@@V12@@std@@@2@@std@@V?$allocator@V?$vector@U?$pair@V?$basic_string@DU?$char_traits@D@std@@V?$allocator@D@2@@std@@V12@@std@@V?$allocator@U?$pair@V?$basic_string@DU?$char_traits@D@std@@V?$allocator@D@2@@std@@V12@@std@@@2@@std@@@2@@1@1@Z
	??$_Construct_n@PEBEPEBE@?$vector@EV?$allocator@E@std@@@std@@AEAAX_K$$QEAPEBE1@Z
	??$_Construct_n@PEBU?$pair@V?$basic_string@DU?$char_traits@D@std@@V?$allocator@D@2@@std@@E@std@@PEBU12@@?$vector@U?$pair@V?$basic_string@DU?$char_traits@D@std@@V?$allocator@D@2@@std@@E@std@@V?$allocator@U?$pair@V?$basic_string@DU?$char_traits@D@std@@V?$allocator@D@2@@std@@E@std@@@2@@std@@AEAAX_K$$QEAPEBU?$pair@V?$basic_string@DU?$char_traits@D@std@@V?$allocator@D@2@@std@@E@1@1@Z
	??$_Construct_n@PEBUSpineInfo@Trellis@@PEBU12@@?$vector@USpineInfo@Trellis@@V?$allocator@USpineInfo@Trellis@@@std@@@std@@AEAAX_K$$QEAPEBUSpineInfo@Trellis@@1@Z
	??$_Convert_size@_K_K@std@@YA_K_K@Z
	??$_Copy@$0A@@?$_Tree@V?$_Tmap_traits@GV?$vector@GV?$allocator@G@std@@@std@@U?$less@G@2@V?$allocator@U?$pair@$$CBGV?$vector@GV?$allocator@G@std@@@std@@@std@@@2@$0A@@std@@@std@@IEAAXAEBV01@@Z
	??$_Copy@$0A@@?$_Tree@V?$_Tmap_traits@HU?$pair@URoutingId@Trellis@@W4PortDirection@2@@std@@U?$less@H@2@V?$allocator@U?$pair@$$CBHU?$pair@URoutingId@Trellis@@W4PortDirection@2@@std@@@std@@@2@$0A@@std@@@std@@IEAAXAEBV01@@Z
	??$_Copy@$0A@@?$_Tree@V?$_Tmap_traits@V?$basic_string@DU?$char_traits@D@std@@V?$allocator@D@2@@std@@UArcData@Trellis@@U?$less@V?$basic_string@DU?$char_traits@D@std@@V?$allocator@D@2@@std@@@2@V?$allocator@U?$pair@$$CBV?$basic_string@DU?$char_traits@D@std@@V?$allocator@D@2@@std@@UArcData@Trellis@@@std@@@2@$0A@@std@@@std@@IEAAXAEBV01@@Z
	??$_Copy@$0A@@?$_Tree@V?$_Tmap_traits@V?$basic_string@DU?$char_traits@D@std@@V?$allocator@D@2@@std@@UBitGroup@Trellis@@U?$less@V?$basic_string@DU?$char_traits@D@std@@V?$allocator@D@2@@std@@@2@V?$allocator@U?$pair@$$CBV?$basic_string@DU?$char_traits@D@std@@V?$allocator@D@2@@std@@UBitGroup@Trellis@@@std@@@2@$0A@@std@@@std@@IEAAXAEBV01@@Z
	??$_Copy@$0A@@?$_Tree@V?$_Tmap_traits@V?$basic_string@DU?$char_traits@D@std@@V?$allocator@D@2@@std@@V12@U?$less@V?$basic_string@DU?$char_traits@D@std@@V?$allocator@D@2@@std@@@2@V?$allocator@U?$pair@$$CBV?$basic_string@DU?$char_traits@D@std@@V?$allocator@D@2@@std@@V12@@std@@@2@$0A@@std@@@std@@IEAAXAEBV01@@Z
	??$_Copy@$0A@@?$_Tree@V?$_Tmap_traits@V?$basic_string@DU?$char_traits@D@std@@V?$allocator@D@2@@std@@V?$shared_ptr@VTile@Trellis@@@2@U?$less@V?$basic_string@DU?$char_traits@D@std@@V?$allocator@D@2@@std@@@2@V?$allocator@U?$pair@$$CBV?$basic_string@DU?$char_traits@D@std@@V?$allocator@D@2@@std@@V?$shared_ptr@VTile@Trellis@@@2@@std@@@2@$0A@@std@@@std@@IEAAXAEBV01@@Z
	??$_Copy@$0A@@?$_Tree@V?$_Tset_traits@UConfigBit@Trellis@@U?$less@UConfigBit@Trellis@@@std@@V?$allocator@UConfigBit@Trellis@@@4@$0A@@std@@@std@@IEAAXAEBV01@@Z
	??$_Copy@$0A@@?$_Tree@V?$_Tset_traits@UFixedConnection@Trellis@@U?$less@UFixedConnection@Trellis@@@std@@V?$allocator@UFixedConnection@Trellis@@@4@$0A@@std@@@std@@IEAAXAEBV01@@Z
	??$_Copy@$0A@@?$_Tree@V?$_Tset_traits@URelId@DDChipDb@Trellis@@U?$less@URelId@DDChipDb@Trellis@@@std@@V?$allocator@URelId@DDChipDb@Trellis@@@5@$0A@@std@@@std@@IEAAXAEBV01@@Z
	??$_Copy_backward_memmove@PEAU?$copy_map_entry@U?$sequenced_index_node@U?$ordered_index_node@Unull_augment_policy@detail@multi_index@boost@@U?$index_node_base@U?$pair@$$CBV?$basic_string@DU?$char_traits@D@std@@V?$allocator@D@2@@std@@V?$basic_ptree@V?$basic_string@DU?$char_traits@D@std@@V?$allocator@D@2@@std@@V12@U?$less@V?$basic_string@DU?$char_traits@D@std@@V?$allocator@D@2@@std@@@2@@property_tree@boost@@@std@@V?$allocator@U?$pair@$$CBV?$basic_string@DU?$char_traits@D@std@@V?$allocator@D@2@@std@@V?$basic_ptree@V?$basic_string@DU?$char_traits@D@std@@V?$allocator@D@2@@std@@V12@U?$less@V?$basic_string@DU?$char_traits@D@std@@V?$allocator@D@2@@std@@@2@@property_tree@boost@@@std@@@2@@234@@detail@multi_index@boost@@@detail@multi_index@boost@@@detail@multi_index@boost@@PEAU1234@@std@@YAPEAU?$copy_map_entry@U?$sequenced_index_node@U?$ordered_index_node@Unull_augment_policy@detail@multi_index@boost@@U?$index_node_base@U?$pair@$$CBV?$basic_string@DU?$char_traits@D@std@@V?$allocator@D@2@@std@@V?$basic_ptree@V?$basic_string@DU?$char_traits@D@std@@V?$allocator@D@2@@std@@V12@U?$less@V?$basic_string@DU?$char_traits@D@std@@V?$allocator@D@2@@std@@@2@@property_tree@boost@@@std@@V?$allocator@U?$pair@$$CBV?$basic_string@DU?$char_traits@D@std@@V?$allocator@D@2@@std@@V?$basic_ptree@V?$basic_string@DU?$char_traits@D@std@@V?$allocator@D@2@@std@@V12@U?$less@V?$basic_string@DU?$char_traits@D@std@@V?$allocator@D@2@@std@@@2@@property_tree@boost@@@std@@@2@@234@@detail@multi_index@boost@@@detail@multi_index@boost@@@detail@multi_index@boost@@PEAU1234@00@Z
	??$_Copy_backward_unchecked@V?$_Vb_iterator@U?$_Wrap_alloc@V?$allocator@I@std@@@std@@@std@@V12@@std@@YA?AV?$_Vb_iterator@U?$_Wrap_alloc@V?$allocator@I@std@@@std@@@0@V10@00@Z
	??$_Copy_construct_from@V?$vector@V?$vector@DV?$allocator@D@std@@@std@@V?$allocator@V?$vector@DV?$allocator@D@std@@@std@@@2@@std@@@?$_Ptr_base@V?$vector@V?$vector@DV?$allocator@D@std@@@std@@V?$allocator@V?$vector@DV?$allocator@D@std@@@std@@@2@@std@@@std@@IEAAXAEBV?$shared_ptr@V?$vector@V?$vector@DV?$allocator@D@std@@@std@@V?$allocator@V?$vector@DV?$allocator@D@std@@@std@@@2@@std@@@1@@Z
	??$_Copy_construct_from@VTile@Trellis@@@?$_Ptr_base@VTile@Trellis@@@std@@IEAAXAEBV?$shared_ptr@VTile@Trellis@@@1@@Z
	??$_Copy_construct_from@VTileBitDatabase@Trellis@@@?$_Ptr_base@VTileBitDatabase@Trellis@@@std@@IEAAXAEBV?$shared_ptr@VTileBitDatabase@Trellis@@@1@@Z
	??$_Copy_memmove@PEADPEAD@std@@YAPEADPEAD00@Z
	??$_Copy_memmove@PEAEPEAE@std@@YAPEAEPEAE00@Z
	??$_Copy_memmove@PEAGPEAG@std@@YAPEAGPEAG00@Z
	??$_Copy_memmove@PEAHPEAH@std@@YAPEAHPEAH00@Z
	??$_Copy_memmove@PEAIPEAI@std@@YAPEAIPEAI00@Z
	??$_Copy_memmove@PEAU?$pair@HE@std@@PEAU12@@std@@YAPEAU?$pair@HE@0@PEAU10@00@Z
	??$_Copy_memmove@PEAU?$pair@URoutingId@Trellis@@H@std@@PEAU12@@std@@YAPEAU?$pair@URoutingId@Trellis@@H@0@PEAU10@00@Z
	??$_Copy_memmove@PEAUBelPort@DDChipDb@Trellis@@PEAU123@@std@@YAPEAUBelPort@DDChipDb@Trellis@@PEAU123@00@Z
	??$_Copy_memmove@PEAUBelWire@DDChipDb@Trellis@@PEAU123@@std@@YAPEAUBelWire@DDChipDb@Trellis@@PEAU123@00@Z
	??$_Copy_memmove@PEAUChangedBit@Trellis@@PEAU12@@std@@YAPEAUChangedBit@Trellis@@PEAU12@00@Z
	??$_Copy_memmove@PEAUConfigUnknown@Trellis@@PEAU12@@std@@YAPEAUConfigUnknown@Trellis@@PEAU12@00@Z
	??$_Copy_memmove@PEAUDdArcData@DDChipDb@Trellis@@PEAU123@@std@@YAPEAUDdArcData@DDChipDb@Trellis@@PEAU123@00@Z
	??$_Copy_memmove@PEAURoutingId@Trellis@@PEAU12@@std@@YAPEAURoutingId@Trellis@@PEAU12@00@Z
	??$_Copy_memmove@PEAUSpineInfo@Trellis@@PEAU12@@std@@YAPEAUSpineInfo@Trellis@@PEAU12@00@Z
	??$_Copy_memmove@PEAUTapSegment@Trellis@@PEAU12@@std@@YAPEAUTapSegment@Trellis@@PEAU12@00@Z
	??$_Copy_memmove@PEAU_Grp_t@?$_Tgt_state_t@V?$_String_const_iterator@V?$_String_val@U?$_Simple_types@D@std@@@std@@@std@@@std@@PEAU123@@std@@YAPEAU_Grp_t@?$_Tgt_state_t@V?$_String_const_iterator@V?$_String_val@U?$_Simple_types@D@std@@@std@@@std@@@0@PEAU120@00@Z
	??$_Copy_memmove@PEAU_Loop_vals_v2_t@std@@PEAU12@@std@@YAPEAU_Loop_vals_v2_t@0@PEAU10@00@Z
	??$_Copy_memmove@PEAUlayer@?$standard_callbacks@V?$basic_ptree@V?$basic_string@DU?$char_traits@D@std@@V?$allocator@D@2@@std@@V12@U?$less@V?$basic_string@DU?$char_traits@D@std@@V?$allocator@D@2@@std@@@2@@property_tree@boost@@@detail@json_parser@property_tree@boost@@PEAU123456@@std@@YAPEAUlayer@?$standard_callbacks@V?$basic_ptree@V?$basic_string@DU?$char_traits@D@std@@V?$allocator@D@2@@std@@V12@U?$less@V?$basic_string@DU?$char_traits@D@std@@V?$allocator@D@2@@std@@@2@@property_tree@boost@@@detail@json_parser@property_tree@boost@@PEAU123456@00@Z
	??$_Copy_memmove@PEAV?$sub_match@V?$_String_const_iterator@V?$_String_val@U?$_Simple_types@D@std@@@std@@@std@@@std@@PEAV12@@std@@YAPEAV?$sub_match@V?$_String_const_iterator@V?$_String_val@U?$_Simple_types@D@std@@@std@@@std@@@0@PEAV10@00@Z
	??$_Copy_memmove@PEBDPEAD@std@@YAPEADPEBD0PEAD@Z
	??$_Copy_memmove@PEBEPEAE@std@@YAPEAEPEBE0PEAE@Z
	??$_Copy_memmove@PEBUSpineInfo@Trellis@@PEAU12@@std@@YAPEAUSpineInfo@Trellis@@PEBU12@0PEAU12@@Z
	??$_Copy_memmove_n@PEAIPEAI@std@@YAPEAIPEAI_K0@Z
	??$_Copy_memmove_n@PEAU?$pair@URoutingId@Trellis@@H@std@@PEAU12@@std@@YAPEAU?$pair@URoutingId@Trellis@@H@0@PEAU10@_K0@Z
	??$_Copy_memmove_n@PEAUBelPort@DDChipDb@Trellis@@PEAU123@@std@@YAPEAUBelPort@DDChipDb@Trellis@@PEAU123@_K0@Z
	??$_Copy_memmove_n@PEAUBelWire@DDChipDb@Trellis@@PEAU123@@std@@YAPEAUBelWire@DDChipDb@Trellis@@PEAU123@_K0@Z
	??$_Copy_memmove_n@PEAUChangedBit@Trellis@@PEAU12@@std@@YAPEAUChangedBit@Trellis@@PEAU12@_K0@Z
	??$_Copy_memmove_n@PEAUConfigUnknown@Trellis@@PEAU12@@std@@YAPEAUConfigUnknown@Trellis@@PEAU12@_K0@Z
	??$_Copy_memmove_n@PEAUDdArcData@DDChipDb@Trellis@@PEAU123@@std@@YAPEAUDdArcData@DDChipDb@Trellis@@PEAU123@_K0@Z
	??$_Copy_memmove_n@PEAURoutingId@Trellis@@PEAU12@@std@@YAPEAURoutingId@Trellis@@PEAU12@_K0@Z
	??$_Copy_memmove_n@PEAUSpineInfo@Trellis@@PEAU12@@std@@YAPEAUSpineInfo@Trellis@@PEAU12@_K0@Z
	??$_Copy_memmove_n@PEAU_Grp_t@?$_Tgt_state_t@V?$_String_const_iterator@V?$_String_val@U?$_Simple_types@D@std@@@std@@@std@@@std@@PEAU123@@std@@YAPEAU_Grp_t@?$_Tgt_state_t@V?$_String_const_iterator@V?$_String_val@U?$_Simple_types@D@std@@@std@@@std@@@0@PEAU120@_K0@Z
	??$_Copy_memmove_tail@PEAD@std@@YAPEADQEBDQEAD_K2@Z
	??$_Copy_memmove_tail@PEAE@std@@YAPEAEQEBDQEAE_K2@Z
	??$_Copy_memmove_tail@PEAG@std@@YAPEAGQEBDQEAG_K2@Z
	??$_Copy_memmove_tail@PEAH@std@@YAPEAHQEBDQEAH_K2@Z
	??$_Copy_memmove_tail@PEAI@std@@YAPEAIQEBDQEAI_K2@Z
	??$_Copy_memmove_tail@PEAU?$pair@HE@std@@@std@@YAPEAU?$pair@HE@0@QEBDQEAU10@_K2@Z
	??$_Copy_memmove_tail@PEAU?$pair@URoutingId@Trellis@@H@std@@@std@@YAPEAU?$pair@URoutingId@Trellis@@H@0@QEBDQEAU10@_K2@Z
	??$_Copy_memmove_tail@PEAUBelPort@DDChipDb@Trellis@@@std@@YAPEAUBelPort@DDChipDb@Trellis@@QEBDQEAU123@_K2@Z
	??$_Copy_memmove_tail@PEAUBelWire@DDChipDb@Trellis@@@std@@YAPEAUBelWire@DDChipDb@Trellis@@QEBDQEAU123@_K2@Z
	??$_Copy_memmove_tail@PEAUChangedBit@Trellis@@@std@@YAPEAUChangedBit@Trellis@@QEBDQEAU12@_K2@Z
	??$_Copy_memmove_tail@PEAUConfigUnknown@Trellis@@@std@@YAPEAUConfigUnknown@Trellis@@QEBDQEAU12@_K2@Z
	??$_Copy_memmove_tail@PEAUDdArcData@DDChipDb@Trellis@@@std@@YAPEAUDdArcData@DDChipDb@Trellis@@QEBDQEAU123@_K2@Z
	??$_Copy_memmove_tail@PEAURoutingId@Trellis@@@std@@YAPEAURoutingId@Trellis@@QEBDQEAU12@_K2@Z
	??$_Copy_memmove_tail@PEAUSpineInfo@Trellis@@@std@@YAPEAUSpineInfo@Trellis@@QEBDQEAU12@_K2@Z
	??$_Copy_memmove_tail@PEAUTapSegment@Trellis@@@std@@YAPEAUTapSegment@Trellis@@QEBDQEAU12@_K2@Z
	??$_Copy_memmove_tail@PEAU_Grp_t@?$_Tgt_state_t@V?$_String_const_iterator@V?$_String_val@U?$_Simple_types@D@std@@@std@@@std@@@std@@@std@@YAPEAU_Grp_t@?$_Tgt_state_t@V?$_String_const_iterator@V?$_String_val@U?$_Simple_types@D@std@@@std@@@std@@@0@QEBDQEAU120@_K2@Z
	??$_Copy_memmove_tail@PEAU_Loop_vals_v2_t@std@@@std@@YAPEAU_Loop_vals_v2_t@0@QEBDQEAU10@_K2@Z
	??$_Copy_memmove_tail@PEAUlayer@?$standard_callbacks@V?$basic_ptree@V?$basic_string@DU?$char_traits@D@std@@V?$allocator@D@2@@std@@V12@U?$less@V?$basic_string@DU?$char_traits@D@std@@V?$allocator@D@2@@std@@@2@@property_tree@boost@@@detail@json_parser@property_tree@boost@@@std@@YAPEAUlayer@?$standard_callbacks@V?$basic_ptree@V?$basic_string@DU?$char_traits@D@std@@V?$allocator@D@2@@std@@V12@U?$less@V?$basic_string@DU?$char_traits@D@std@@V?$allocator@D@2@@std@@@2@@property_tree@boost@@@detail@json_parser@property_tree@boost@@QEBDQEAU123456@_K2@Z
	??$_Copy_memmove_tail@PEAV?$sub_match@V?$_String_const_iterator@V?$_String_val@U?$_Simple_types@D@std@@@std@@@std@@@std@@@std@@YAPEAV?$sub_match@V?$_String_const_iterator@V?$_String_val@U?$_Simple_types@D@std@@@std@@@std@@@0@QEBDQEAV10@_K2@Z
	??$_Copy_n_unchecked4@PEAI_KPEAI@std@@YAPEAIPEAI_K0@Z
	??$_Copy_n_unchecked4@PEAU?$pair@URoutingId@Trellis@@H@std@@_KPEAU12@@std@@YAPEAU?$pair@URoutingId@Trellis@@H@0@PEAU10@_K0@Z
	??$_Copy_n_unchecked4@PEAUBelData@DDChipDb@Trellis@@_KPEAU123@@std@@YAPEAUBelData@DDChipDb@Trellis@@PEAU123@_K0@Z
	??$_Copy_n_unchecked4@PEAUBelPort@DDChipDb@Trellis@@_KPEAU123@@std@@YAPEAUBelPort@DDChipDb@Trellis@@PEAU123@_K0@Z
	??$_Copy_n_unchecked4@PEAUBelWire@DDChipDb@Trellis@@_KPEAU123@@std@@YAPEAUBelWire@DDChipDb@Trellis@@PEAU123@_K0@Z
	??$_Copy_n_unchecked4@PEAUBitGroup@Trellis@@_KPEAU12@@std@@YAPEAUBitGroup@Trellis@@PEAU12@_K0@Z
	??$_Copy_n_unchecked4@PEAUChangedBit@Trellis@@_KPEAU12@@std@@YAPEAUChangedBit@Trellis@@PEAU12@_K0@Z
	??$_Copy_n_unchecked4@PEAUConfigArc@Trellis@@_KPEAU12@@std@@YAPEAUConfigArc@Trellis@@PEAU12@_K0@Z
	??$_Copy_n_unchecked4@PEAUConfigEnum@Trellis@@_KPEAU12@@std@@YAPEAUConfigEnum@Trellis@@PEAU12@_K0@Z
	??$_Copy_n_unchecked4@PEAUConfigUnknown@Trellis@@_KPEAU12@@std@@YAPEAUConfigUnknown@Trellis@@PEAU12@_K0@Z
	??$_Copy_n_unchecked4@PEAUConfigWord@Trellis@@_KPEAU12@@std@@YAPEAUConfigWord@Trellis@@PEAU12@_K0@Z
	??$_Copy_n_unchecked4@PEAUDdArcData@DDChipDb@Trellis@@_KPEAU123@@std@@YAPEAUDdArcData@DDChipDb@Trellis@@PEAU123@_K0@Z
	??$_Copy_n_unchecked4@PEAURoutingId@Trellis@@_KPEAU12@@std@@YAPEAURoutingId@Trellis@@PEAU12@_K0@Z
	??$_Copy_n_unchecked4@PEAUSpineInfo@Trellis@@_KPEAU12@@std@@YAPEAUSpineInfo@Trellis@@PEAU12@_K0@Z
	??$_Copy_n_unchecked4@PEAUWireData@DDChipDb@Trellis@@_KPEAU123@@std@@YAPEAUWireData@DDChipDb@Trellis@@PEAU123@_K0@Z
	??$_Copy_n_unchecked4@PEAU_Grp_t@?$_Tgt_state_t@V?$_String_const_iterator@V?$_String_val@U?$_Simple_types@D@std@@@std@@@std@@@std@@_KPEAU123@@std@@YAPEAU_Grp_t@?$_Tgt_state_t@V?$_String_const_iterator@V?$_String_val@U?$_Simple_types@D@std@@@std@@@std@@@0@PEAU120@_K0@Z
	??$_Copy_n_unchecked4@PEAV?$basic_string@DU?$char_traits@D@std@@V?$allocator@D@2@@std@@_KPEAV12@@std@@YAPEAV?$basic_string@DU?$char_traits@D@std@@V?$allocator@D@2@@0@PEAV10@_K0@Z
	??$_Copy_nodes@$0A@@?$_Tree@V?$_Tmap_traits@GV?$vector@GV?$allocator@G@std@@@std@@U?$less@G@2@V?$allocator@U?$pair@$$CBGV?$vector@GV?$allocator@G@std@@@std@@@std@@@2@$0A@@std@@@std@@IEAAPEAU?$_Tree_node@U?$pair@$$CBGV?$vector@GV?$allocator@G@std@@@std@@@std@@PEAX@1@PEAU21@0@Z
	??$_Copy_nodes@$0A@@?$_Tree@V?$_Tmap_traits@HU?$pair@URoutingId@Trellis@@W4PortDirection@2@@std@@U?$less@H@2@V?$allocator@U?$pair@$$CBHU?$pair@URoutingId@Trellis@@W4PortDirection@2@@std@@@std@@@2@$0A@@std@@@std@@IEAAPEAU?$_Tree_node@U?$pair@$$CBHU?$pair@URoutingId@Trellis@@W4PortDirection@2@@std@@@std@@PEAX@1@PEAU21@0@Z
	??$_Copy_nodes@$0A@@?$_Tree@V?$_Tmap_traits@V?$basic_string@DU?$char_traits@D@std@@V?$allocator@D@2@@std@@UArcData@Trellis@@U?$less@V?$basic_string@DU?$char_traits@D@std@@V?$allocator@D@2@@std@@@2@V?$allocator@U?$pair@$$CBV?$basic_string@DU?$char_traits@D@std@@V?$allocator@D@2@@std@@UArcData@Trellis@@@std@@@2@$0A@@std@@@std@@IEAAPEAU?$_Tree_node@U?$pair@$$CBV?$basic_string@DU?$char_traits@D@std@@V?$allocator@D@2@@std@@UArcData@Trellis@@@std@@PEAX@1@PEAU21@0@Z
	??$_Copy_nodes@$0A@@?$_Tree@V?$_Tmap_traits@V?$basic_string@DU?$char_traits@D@std@@V?$allocator@D@2@@std@@UBitGroup@Trellis@@U?$less@V?$basic_string@DU?$char_traits@D@std@@V?$allocator@D@2@@std@@@2@V?$allocator@U?$pair@$$CBV?$basic_string@DU?$char_traits@D@std@@V?$allocator@D@2@@std@@UBitGroup@Trellis@@@std@@@2@$0A@@std@@@std@@IEAAPEAU?$_Tree_node@U?$pair@$$CBV?$basic_string@DU?$char_traits@D@std@@V?$allocator@D@2@@std@@UBitGroup@Trellis@@@std@@PEAX@1@PEAU21@0@Z
	??$_Copy_nodes@$0A@@?$_Tree@V?$_Tmap_traits@V?$basic_string@DU?$char_traits@D@std@@V?$allocator@D@2@@std@@V12@U?$less@V?$basic_string@DU?$char_traits@D@std@@V?$allocator@D@2@@std@@@2@V?$allocator@U?$pair@$$CBV?$basic_string@DU?$char_traits@D@std@@V?$allocator@D@2@@std@@V12@@std@@@2@$0A@@std@@@std@@IEAAPEAU?$_Tree_node@U?$pair@$$CBV?$basic_string@DU?$char_traits@D@std@@V?$allocator@D@2@@std@@V12@@std@@PEAX@1@PEAU21@0@Z
	??$_Copy_nodes@$0A@@?$_Tree@V?$_Tmap_traits@V?$basic_string@DU?$char_traits@D@std@@V?$allocator@D@2@@std@@V?$shared_ptr@VTile@Trellis@@@2@U?$less@V?$basic_string@DU?$char_traits@D@std@@V?$allocator@D@2@@std@@@2@V?$allocator@U?$pair@$$CBV?$basic_string@DU?$char_traits@D@std@@V?$allocator@D@2@@std@@V?$shared_ptr@VTile@Trellis@@@2@@std@@@2@$0A@@std@@@std@@IEAAPEAU?$_Tree_node@U?$pair@$$CBV?$basic_string@DU?$char_traits@D@std@@V?$allocator@D@2@@std@@V?$shared_ptr@VTile@Trellis@@@2@@std@@PEAX@1@PEAU21@0@Z
	??$_Copy_nodes@$0A@@?$_Tree@V?$_Tset_traits@UConfigBit@Trellis@@U?$less@UConfigBit@Trellis@@@std@@V?$allocator@UConfigBit@Trellis@@@4@$0A@@std@@@std@@IEAAPEAU?$_Tree_node@UConfigBit@Trellis@@PEAX@1@PEAU21@0@Z
	??$_Copy_nodes@$0A@@?$_Tree@V?$_Tset_traits@UFixedConnection@Trellis@@U?$less@UFixedConnection@Trellis@@@std@@V?$allocator@UFixedConnection@Trellis@@@4@$0A@@std@@@std@@IEAAPEAU?$_Tree_node@UFixedConnection@Trellis@@PEAX@1@PEAU21@0@Z
	??$_Copy_nodes@$0A@@?$_Tree@V?$_Tset_traits@URelId@DDChipDb@Trellis@@U?$less@URelId@DDChipDb@Trellis@@@std@@V?$allocator@URelId@DDChipDb@Trellis@@@5@$0A@@std@@@std@@IEAAPEAU?$_Tree_node@URelId@DDChipDb@Trellis@@PEAX@1@PEAU21@0@Z
	??$_Copy_or_move@$0A@U?$pair@$$CBGV?$vector@GV?$allocator@G@std@@@std@@@std@@@?$_Tree@V?$_Tmap_traits@GV?$vector@GV?$allocator@G@std@@@std@@U?$less@G@2@V?$allocator@U?$pair@$$CBGV?$vector@GV?$allocator@G@std@@@std@@@std@@@2@$0A@@std@@@std@@IEAAPEAU?$_Tree_node@U?$pair@$$CBGV?$vector@GV?$allocator@G@std@@@std@@@std@@PEAX@1@AEAU?$pair@$$CBGV?$vector@GV?$allocator@G@std@@@std@@@1@@Z
	??$_Copy_or_move@$0A@U?$pair@$$CBHU?$pair@URoutingId@Trellis@@W4PortDirection@2@@std@@@std@@@?$_Tree@V?$_Tmap_traits@HU?$pair@URoutingId@Trellis@@W4PortDirection@2@@std@@U?$less@H@2@V?$allocator@U?$pair@$$CBHU?$pair@URoutingId@Trellis@@W4PortDirection@2@@std@@@std@@@2@$0A@@std@@@std@@IEAAPEAU?$_Tree_node@U?$pair@$$CBHU?$pair@URoutingId@Trellis@@W4PortDirection@2@@std@@@std@@PEAX@1@AEAU?$pair@$$CBHU?$pair@URoutingId@Trellis@@W4PortDirection@2@@std@@@1@@Z
	??$_Copy_or_move@$0A@U?$pair@$$CBV?$basic_string@DU?$char_traits@D@std@@V?$allocator@D@2@@std@@UArcData@Trellis@@@std@@@?$_Tree@V?$_Tmap_traits@V?$basic_string@DU?$char_traits@D@std@@V?$allocator@D@2@@std@@UArcData@Trellis@@U?$less@V?$basic_string@DU?$char_traits@D@std@@V?$allocator@D@2@@std@@@2@V?$allocator@U?$pair@$$CBV?$basic_string@DU?$char_traits@D@std@@V?$allocator@D@2@@std@@UArcData@Trellis@@@std@@@2@$0A@@std@@@std@@IEAAPEAU?$_Tree_node@U?$pair@$$CBV?$basic_string@DU?$char_traits@D@std@@V?$allocator@D@2@@std@@UArcData@Trellis@@@std@@PEAX@1@AEAU?$pair@$$CBV?$basic_string@DU?$char_traits@D@std@@V?$allocator@D@2@@std@@UArcData@Trellis@@@1@@Z
	??$_Copy_or_move@$0A@U?$pair@$$CBV?$basic_string@DU?$char_traits@D@std@@V?$allocator@D@2@@std@@UBitGroup@Trellis@@@std@@@?$_Tree@V?$_Tmap_traits@V?$basic_string@DU?$char_traits@D@std@@V?$allocator@D@2@@std@@UBitGroup@Trellis@@U?$less@V?$basic_string@DU?$char_traits@D@std@@V?$allocator@D@2@@std@@@2@V?$allocator@U?$pair@$$CBV?$basic_string@DU?$char_traits@D@std@@V?$allocator@D@2@@std@@UBitGroup@Trellis@@@std@@@2@$0A@@std@@@std@@IEAAPEAU?$_Tree_node@U?$pair@$$CBV?$basic_string@DU?$char_traits@D@std@@V?$allocator@D@2@@std@@UBitGroup@Trellis@@@std@@PEAX@1@AEAU?$pair@$$CBV?$basic_string@DU?$char_traits@D@std@@V?$allocator@D@2@@std@@UBitGroup@Trellis@@@1@@Z
	??$_Copy_or_move@$0A@U?$pair@$$CBV?$basic_string@DU?$char_traits@D@std@@V?$allocator@D@2@@std@@V12@@std@@@?$_Tree@V?$_Tmap_traits@V?$basic_string@DU?$char_traits@D@std@@V?$allocator@D@2@@std@@V12@U?$less@V?$basic_string@DU?$char_traits@D@std@@V?$allocator@D@2@@std@@@2@V?$allocator@U?$pair@$$CBV?$basic_string@DU?$char_traits@D@std@@V?$allocator@D@2@@std@@V12@@std@@@2@$0A@@std@@@std@@IEAAPEAU?$_Tree_node@U?$pair@$$CBV?$basic_string@DU?$char_traits@D@std@@V?$allocator@D@2@@std@@V12@@std@@PEAX@1@AEAU?$pair@$$CBV?$basic_string@DU?$char_traits@D@std@@V?$allocator@D@2@@std@@V12@@1@@Z
	??$_Copy_or_move@$0A@U?$pair@$$CBV?$basic_string@DU?$char_traits@D@std@@V?$allocator@D@2@@std@@V?$shared_ptr@VTile@Trellis@@@2@@std@@@?$_Tree@V?$_Tmap_traits@V?$basic_string@DU?$char_traits@D@std@@V?$allocator@D@2@@std@@V?$shared_ptr@VTile@Trellis@@@2@U?$less@V?$basic_string@DU?$char_traits@D@std@@V?$allocator@D@2@@std@@@2@V?$allocator@U?$pair@$$CBV?$basic_string@DU?$char_traits@D@std@@V?$allocator@D@2@@std@@V?$shared_ptr@VTile@Trellis@@@2@@std@@@2@$0A@@std@@@std@@IEAAPEAU?$_Tree_node@U?$pair@$$CBV?$basic_string@DU?$char_traits@D@std@@V?$allocator@D@2@@std@@V?$shared_ptr@VTile@Trellis@@@2@@std@@PEAX@1@AEAU?$pair@$$CBV?$basic_string@DU?$char_traits@D@std@@V?$allocator@D@2@@std@@V?$shared_ptr@VTile@Trellis@@@2@@1@@Z
	??$_Copy_or_move@$0A@UConfigBit@Trellis@@@?$_Tree@V?$_Tset_traits@UConfigBit@Trellis@@U?$less@UConfigBit@Trellis@@@std@@V?$allocator@UConfigBit@Trellis@@@4@$0A@@std@@@std@@IEAAPEAU?$_Tree_node@UConfigBit@Trellis@@PEAX@1@AEAUConfigBit@Trellis@@@Z
	??$_Copy_or_move@$0A@UFixedConnection@Trellis@@@?$_Tree@V?$_Tset_traits@UFixedConnection@Trellis@@U?$less@UFixedConnection@Trellis@@@std@@V?$allocator@UFixedConnection@Trellis@@@4@$0A@@std@@@std@@IEAAPEAU?$_Tree_node@UFixedConnection@Trellis@@PEAX@1@AEAUFixedConnection@Trellis@@@Z
	??$_Copy_or_move@$0A@URelId@DDChipDb@Trellis@@@?$_Tree@V?$_Tset_traits@URelId@DDChipDb@Trellis@@U?$less@URelId@DDChipDb@Trellis@@@std@@V?$allocator@URelId@DDChipDb@Trellis@@@5@$0A@@std@@@std@@IEAAPEAU?$_Tree_node@URelId@DDChipDb@Trellis@@PEAX@1@AEAURelId@DDChipDb@Trellis@@@Z
	??$_Copy_unchecked@PEAEPEAEV?$back_insert_iterator@V?$vector@EV?$allocator@E@std@@@std@@@std@@@std@@YA?AV?$back_insert_iterator@V?$vector@EV?$allocator@E@std@@@std@@@0@PEAE0V10@@Z
	??$_Copy_unchecked@PEBDPEBDPEAD@std@@YAPEADPEBD0PEAD@Z
	??$_Copy_unchecked@PEBDPEBDV?$back_insert_iterator@V?$vector@EV?$allocator@E@std@@@std@@@std@@@std@@YA?AV?$back_insert_iterator@V?$vector@EV?$allocator@E@std@@@std@@@0@PEBD0V10@@Z
	??$_Copy_unchecked@V?$_Vb_iterator@U?$_Wrap_alloc@V?$allocator@I@std@@@std@@@std@@V12@V12@@std@@YA?AV?$_Vb_iterator@U?$_Wrap_alloc@V?$allocator@I@std@@@std@@@0@V10@00@Z
	??$_Copy_unchecked@V?$transform_iterator@U?$select_first@V?$map@V?$basic_string@DU?$char_traits@D@std@@V?$allocator@D@2@@std@@UArcData@Trellis@@U?$less@V?$basic_string@DU?$char_traits@D@std@@V?$allocator@D@2@@std@@@2@V?$allocator@U?$pair@$$CBV?$basic_string@DU?$char_traits@D@std@@V?$allocator@D@2@@std@@UArcData@Trellis@@@std@@@2@@std@@@range_detail@boost@@V?$_Tree_const_iterator@V?$_Tree_val@U?$_Tree_simple_types@U?$pair@$$CBV?$basic_string@DU?$char_traits@D@std@@V?$allocator@D@2@@std@@UArcData@Trellis@@@std@@@std@@@std@@@std@@Uuse_default@3@U63@@iterators@boost@@V123@V?$back_insert_iterator@V?$vector@V?$basic_string@DU?$char_traits@D@std@@V?$allocator@D@2@@std@@V?$allocator@V?$basic_string@DU?$char_traits@D@std@@V?$allocator@D@2@@std@@@2@@std@@@std@@@std@@YA?AV?$back_insert_iterator@V?$vector@V?$basic_string@DU?$char_traits@D@std@@V?$allocator@D@2@@std@@V?$allocator@V?$basic_string@DU?$char_traits@D@std@@V?$allocator@D@2@@std@@@2@@std@@@0@V?$transform_iterator@U?$select_first@V?$map@V?$basic_string@DU?$char_traits@D@std@@V?$allocator@D@2@@std@@UArcData@Trellis@@U?$less@V?$basic_string@DU?$char_traits@D@std@@V?$allocator@D@2@@std@@@2@V?$allocator@U?$pair@$$CBV?$basic_string@DU?$char_traits@D@std@@V?$allocator@D@2@@std@@UArcData@Trellis@@@std@@@2@@std@@@range_detail@boost@@V?$_Tree_const_iterator@V?$_Tree_val@U?$_Tree_simple_types@U?$pair@$$CBV?$basic_string@DU?$char_traits@D@std@@V?$allocator@D@2@@std@@UArcData@Trellis@@@std@@@std@@@std@@@std@@Uuse_default@3@U63@@iterators@boost@@0V10@@Z
	??$_Copy_unchecked@V?$transform_iterator@U?$select_first@V?$map@V?$basic_string@DU?$char_traits@D@std@@V?$allocator@D@2@@std@@UBitGroup@Trellis@@U?$less@V?$basic_string@DU?$char_traits@D@std@@V?$allocator@D@2@@std@@@2@V?$allocator@U?$pair@$$CBV?$basic_string@DU?$char_traits@D@std@@V?$allocator@D@2@@std@@UBitGroup@Trellis@@@std@@@2@@std@@@range_detail@boost@@V?$_Tree_const_iterator@V?$_Tree_val@U?$_Tree_simple_types@U?$pair@$$CBV?$basic_string@DU?$char_traits@D@std@@V?$allocator@D@2@@std@@UBitGroup@Trellis@@@std@@@std@@@std@@@std@@Uuse_default@3@U63@@iterators@boost@@V123@V?$back_insert_iterator@V?$vector@V?$basic_string@DU?$char_traits@D@std@@V?$allocator@D@2@@std@@V?$allocator@V?$basic_string@DU?$char_traits@D@std@@V?$allocator@D@2@@std@@@2@@std@@@std@@@std@@YA?AV?$back_insert_iterator@V?$vector@V?$basic_string@DU?$char_traits@D@std@@V?$allocator@D@2@@std@@V?$allocator@V?$basic_string@DU?$char_traits@D@std@@V?$allocator@D@2@@std@@@2@@std@@@0@V?$transform_iterator@U?$select_first@V?$map@V?$basic_string@DU?$char_traits@D@std@@V?$allocator@D@2@@std@@UBitGroup@Trellis@@U?$less@V?$basic_string@DU?$char_traits@D@std@@V?$allocator@D@2@@std@@@2@V?$allocator@U?$pair@$$CBV?$basic_string@DU?$char_traits@D@std@@V?$allocator@D@2@@std@@UBitGroup@Trellis@@@std@@@2@@std@@@range_detail@boost@@V?$_Tree_const_iterator@V?$_Tree_val@U?$_Tree_simple_types@U?$pair@$$CBV?$basic_string@DU?$char_traits@D@std@@V?$allocator@D@2@@std@@UBitGroup@Trellis@@@std@@@std@@@std@@@std@@Uuse_default@3@U63@@iterators@boost@@0V10@@Z
	??$_Copy_unchecked@V?$transform_iterator@U?$select_first@V?$map@V?$basic_string@DU?$char_traits@D@std@@V?$allocator@D@2@@std@@UEnumSettingBits@Trellis@@U?$less@V?$basic_string@DU?$char_traits@D@std@@V?$allocator@D@2@@std@@@2@V?$allocator@U?$pair@$$CBV?$basic_string@DU?$char_traits@D@std@@V?$allocator@D@2@@std@@UEnumSettingBits@Trellis@@@std@@@2@@std@@@range_detail@boost@@V?$_Tree_const_iterator@V?$_Tree_val@U?$_Tree_simple_types@U?$pair@$$CBV?$basic_string@DU?$char_traits@D@std@@V?$allocator@D@2@@std@@UEnumSettingBits@Trellis@@@std@@@std@@@std@@@std@@Uuse_default@3@U63@@iterators@boost@@V123@V?$back_insert_iterator@V?$vector@V?$basic_string@DU?$char_traits@D@std@@V?$allocator@D@2@@std@@V?$allocator@V?$basic_string@DU?$char_traits@D@std@@V?$allocator@D@2@@std@@@2@@std@@@std@@@std@@YA?AV?$back_insert_iterator@V?$vector@V?$basic_string@DU?$char_traits@D@std@@V?$allocator@D@2@@std@@V?$allocator@V?$basic_string@DU?$char_traits@D@std@@V?$allocator@D@2@@std@@@2@@std@@@0@V?$transform_iterator@U?$select_first@V?$map@V?$basic_string@DU?$char_traits@D@std@@V?$allocator@D@2@@std@@UEnumSettingBits@Trellis@@U?$less@V?$basic_string@DU?$char_traits@D@std@@V?$allocator@D@2@@std@@@2@V?$allocator@U?$pair@$$CBV?$basic_string@DU?$char_traits@D@std@@V?$allocator@D@2@@std@@UEnumSettingBits@Trellis@@@std@@@2@@std@@@range_detail@boost@@V?$_Tree_const_iterator@V?$_Tree_val@U?$_Tree_simple_types@U?$pair@$$CBV?$basic_string@DU?$char_traits@D@std@@V?$allocator@D@2@@std@@UEnumSettingBits@Trellis@@@std@@@std@@@std@@@std@@Uuse_default@3@U63@@iterators@boost@@0V10@@Z
	??$_Copy_unchecked@V?$transform_iterator@U?$select_first@V?$map@V?$basic_string@DU?$char_traits@D@std@@V?$allocator@D@2@@std@@UMuxBits@Trellis@@U?$less@V?$basic_string@DU?$char_traits@D@std@@V?$allocator@D@2@@std@@@2@V?$allocator@U?$pair@$$CBV?$basic_string@DU?$char_traits@D@std@@V?$allocator@D@2@@std@@UMuxBits@Trellis@@@std@@@2@@std@@@range_detail@boost@@V?$_Tree_const_iterator@V?$_Tree_val@U?$_Tree_simple_types@U?$pair@$$CBV?$basic_string@DU?$char_traits@D@std@@V?$allocator@D@2@@std@@UMuxBits@Trellis@@@std@@@std@@@std@@@std@@Uuse_default@3@U63@@iterators@boost@@V123@V?$back_insert_iterator@V?$vector@V?$basic_string@DU?$char_traits@D@std@@V?$allocator@D@2@@std@@V?$allocator@V?$basic_string@DU?$char_traits@D@std@@V?$allocator@D@2@@std@@@2@@std@@@std@@@std@@YA?AV?$back_insert_iterator@V?$vector@V?$basic_string@DU?$char_traits@D@std@@V?$allocator@D@2@@std@@V?$allocator@V?$basic_string@DU?$char_traits@D@std@@V?$allocator@D@2@@std@@@2@@std@@@0@V?$transform_iterator@U?$select_first@V?$map@V?$basic_string@DU?$char_traits@D@std@@V?$allocator@D@2@@std@@UMuxBits@Trellis@@U?$less@V?$basic_string@DU?$char_traits@D@std@@V?$allocator@D@2@@std@@@2@V?$allocator@U?$pair@$$CBV?$basic_string@DU?$char_traits@D@std@@V?$allocator@D@2@@std@@UMuxBits@Trellis@@@std@@@2@@std@@@range_detail@boost@@V?$_Tree_const_iterator@V?$_Tree_val@U?$_Tree_simple_types@U?$pair@$$CBV?$basic_string@DU?$char_traits@D@std@@V?$allocator@D@2@@std@@UMuxBits@Trellis@@@std@@@std@@@std@@@std@@Uuse_default@3@U63@@iterators@boost@@0V10@@Z
	??$_Copy_unchecked@V?$transform_iterator@U?$select_first@V?$map@V?$basic_string@DU?$char_traits@D@std@@V?$allocator@D@2@@std@@UWordSettingBits@Trellis@@U?$less@V?$basic_string@DU?$char_traits@D@std@@V?$allocator@D@2@@std@@@2@V?$allocator@U?$pair@$$CBV?$basic_string@DU?$char_traits@D@std@@V?$allocator@D@2@@std@@UWordSettingBits@Trellis@@@std@@@2@@std@@@range_detail@boost@@V?$_Tree_const_iterator@V?$_Tree_val@U?$_Tree_simple_types@U?$pair@$$CBV?$basic_string@DU?$char_traits@D@std@@V?$allocator@D@2@@std@@UWordSettingBits@Trellis@@@std@@@std@@@std@@@std@@Uuse_default@3@U63@@iterators@boost@@V123@V?$back_insert_iterator@V?$vector@V?$basic_string@DU?$char_traits@D@std@@V?$allocator@D@2@@std@@V?$allocator@V?$basic_string@DU?$char_traits@D@std@@V?$allocator@D@2@@std@@@2@@std@@@std@@@std@@YA?AV?$back_insert_iterator@V?$vector@V?$basic_string@DU?$char_traits@D@std@@V?$allocator@D@2@@std@@V?$allocator@V?$basic_string@DU?$char_traits@D@std@@V?$allocator@D@2@@std@@@2@@std@@@0@V?$transform_iterator@U?$select_first@V?$map@V?$basic_string@DU?$char_traits@D@std@@V?$allocator@D@2@@std@@UWordSettingBits@Trellis@@U?$less@V?$basic_string@DU?$char_traits@D@std@@V?$allocator@D@2@@std@@@2@V?$allocator@U?$pair@$$CBV?$basic_string@DU?$char_traits@D@std@@V?$allocator@D@2@@std@@UWordSettingBits@Trellis@@@std@@@2@@std@@@range_detail@boost@@V?$_Tree_const_iterator@V?$_Tree_val@U?$_Tree_simple_types@U?$pair@$$CBV?$basic_string@DU?$char_traits@D@std@@V?$allocator@D@2@@std@@UWordSettingBits@Trellis@@@std@@@std@@@std@@@std@@Uuse_default@3@U63@@iterators@boost@@0V10@@Z
	??$_Copy_vbool@V?$_Vb_iterator@U?$_Wrap_alloc@V?$allocator@I@std@@@std@@@std@@V12@@std@@YA?AV?$_Vb_iterator@U?$_Wrap_alloc@V?$allocator@I@std@@@std@@@0@V10@00@Z
	??$_Could_compare_equal_to_value_type@PEADD@std@@YA_NAEBD@Z
	??$_Could_compare_equal_to_value_type@PEBDD@std@@YA_NAEBD@Z
	??$_Could_compare_equal_to_value_type@PEBHH@std@@YA_NAEBH@Z
	??$_Deallocate@$0BA@@std@@YAXPEAX_K@Z
	??$_Destroy_in_place@PEAD@std@@YAXAEAPEAD@Z
	??$_Destroy_in_place@PEAU?$_List_node@U?$pair@$$CBUTileLocator@Trellis@@V?$shared_ptr@VTileBitDatabase@Trellis@@@std@@@std@@PEAX@std@@@std@@YAXAEAPEAU?$_List_node@U?$pair@$$CBUTileLocator@Trellis@@V?$shared_ptr@VTileBitDatabase@Trellis@@@std@@@std@@PEAX@0@@Z
	??$_Destroy_in_place@PEAU?$_List_node@U?$pair@$$CBV?$basic_string@DU?$char_traits@D@std@@V?$allocator@D@2@@std@@H@std@@PEAX@std@@@std@@YAXAEAPEAU?$_List_node@U?$pair@$$CBV?$basic_string@DU?$char_traits@D@std@@V?$allocator@D@2@@std@@H@std@@PEAX@0@@Z
	??$_Destroy_in_place@PEAU?$_List_node@UConfigBit@Trellis@@PEAX@std@@@std@@YAXAEAPEAU?$_List_node@UConfigBit@Trellis@@PEAX@0@@Z
	??$_Destroy_in_place@PEAU?$_Tree_node@U?$pair@$$CBGV?$vector@GV?$allocator@G@std@@@std@@@std@@PEAX@std@@@std@@YAXAEAPEAU?$_Tree_node@U?$pair@$$CBGV?$vector@GV?$allocator@G@std@@@std@@@std@@PEAX@0@@Z
	??$_Destroy_in_place@PEAU?$_Tree_node@U?$pair@$$CBHU?$pair@URoutingId@Trellis@@W4PortDirection@2@@std@@@std@@PEAX@std@@@std@@YAXAEAPEAU?$_Tree_node@U?$pair@$$CBHU?$pair@URoutingId@Trellis@@W4PortDirection@2@@std@@@std@@PEAX@0@@Z
	??$_Destroy_in_place@PEAU?$_Tree_node@U?$pair@$$CBHURoutingArc@Trellis@@@std@@PEAX@std@@@std@@YAXAEAPEAU?$_Tree_node@U?$pair@$$CBHURoutingArc@Trellis@@@std@@PEAX@0@@Z
	??$_Destroy_in_place@PEAU?$_Tree_node@U?$pair@$$CBHURoutingBel@Trellis@@@std@@PEAX@std@@@std@@YAXAEAPEAU?$_Tree_node@U?$pair@$$CBHURoutingBel@Trellis@@@std@@PEAX@0@@Z
	??$_Destroy_in_place@PEAU?$_Tree_node@U?$pair@$$CBHURoutingWire@Trellis@@@std@@PEAX@std@@@std@@YAXAEAPEAU?$_Tree_node@U?$pair@$$CBHURoutingWire@Trellis@@@std@@PEAX@0@@Z
	??$_Destroy_in_place@PEAU?$_Tree_node@U?$pair@$$CBII@std@@PEAX@std@@@std@@YAXAEAPEAU?$_Tree_node@U?$pair@$$CBII@std@@PEAX@0@@Z
	??$_Destroy_in_place@PEAU?$_Tree_node@U?$pair@$$CBU?$pair@HH@std@@H@std@@PEAX@std@@@std@@YAXAEAPEAU?$_Tree_node@U?$pair@$$CBU?$pair@HH@std@@H@std@@PEAX@0@@Z
	??$_Destroy_in_place@PEAU?$_Tree_node@U?$pair@$$CBU?$pair@HH@std@@U12@@std@@PEAX@std@@@std@@YAXAEAPEAU?$_Tree_node@U?$pair@$$CBU?$pair@HH@std@@U12@@std@@PEAX@0@@Z
	??$_Destroy_in_place@PEAU?$_Tree_node@U?$pair@$$CBU?$pair@HH@std@@V?$vector@USpineInfo@Trellis@@V?$allocator@USpineInfo@Trellis@@@std@@@2@@std@@PEAX@std@@@std@@YAXAEAPEAU?$_Tree_node@U?$pair@$$CBU?$pair@HH@std@@V?$vector@USpineInfo@Trellis@@V?$allocator@USpineInfo@Trellis@@@std@@@2@@std@@PEAX@0@@Z
	??$_Destroy_in_place@PEAU?$_Tree_node@U?$pair@$$CBU?$pair@_K_K@std@@ULocationData@DDChipDb@Trellis@@@std@@PEAX@std@@@std@@YAXAEAPEAU?$_Tree_node@U?$pair@$$CBU?$pair@_K_K@std@@ULocationData@DDChipDb@Trellis@@@std@@PEAX@0@@Z
	??$_Destroy_in_place@PEAU?$_Tree_node@U?$pair@$$CBULocation@Trellis@@U?$pair@_K_K@std@@@std@@PEAX@std@@@std@@YAXAEAPEAU?$_Tree_node@U?$pair@$$CBULocation@Trellis@@U?$pair@_K_K@std@@@std@@PEAX@0@@Z
	??$_Destroy_in_place@PEAU?$_Tree_node@U?$pair@$$CBULocation@Trellis@@ULocationData@DDChipDb@2@@std@@PEAX@std@@@std@@YAXAEAPEAU?$_Tree_node@U?$pair@$$CBULocation@Trellis@@ULocationData@DDChipDb@2@@std@@PEAX@0@@Z
	??$_Destroy_in_place@PEAU?$_Tree_node@U?$pair@$$CBULocation@Trellis@@URoutingTileLoc@2@@std@@PEAX@std@@@std@@YAXAEAPEAU?$_Tree_node@U?$pair@$$CBULocation@Trellis@@URoutingTileLoc@2@@std@@PEAX@0@@Z
	??$_Destroy_in_place@PEAU?$_Tree_node@U?$pair@$$CBV?$basic_string@DU?$char_traits@D@std@@V?$allocator@D@2@@std@@UArcData@Trellis@@@std@@PEAX@std@@@std@@YAXAEAPEAU?$_Tree_node@U?$pair@$$CBV?$basic_string@DU?$char_traits@D@std@@V?$allocator@D@2@@std@@UArcData@Trellis@@@std@@PEAX@0@@Z
	??$_Destroy_in_place@PEAU?$_Tree_node@U?$pair@$$CBV?$basic_string@DU?$char_traits@D@std@@V?$allocator@D@2@@std@@UBitGroup@Trellis@@@std@@PEAX@std@@@std@@YAXAEAPEAU?$_Tree_node@U?$pair@$$CBV?$basic_string@DU?$char_traits@D@std@@V?$allocator@D@2@@std@@UBitGroup@Trellis@@@std@@PEAX@0@@Z
	??$_Destroy_in_place@PEAU?$_Tree_node@U?$pair@$$CBV?$basic_string@DU?$char_traits@D@std@@V?$allocator@D@2@@std@@UEnumSettingBits@Trellis@@@std@@PEAX@std@@@std@@YAXAEAPEAU?$_Tree_node@U?$pair@$$CBV?$basic_string@DU?$char_traits@D@std@@V?$allocator@D@2@@std@@UEnumSettingBits@Trellis@@@std@@PEAX@0@@Z
	??$_Destroy_in_place@PEAU?$_Tree_node@U?$pair@$$CBV?$basic_string@DU?$char_traits@D@std@@V?$allocator@D@2@@std@@UMuxBits@Trellis@@@std@@PEAX@std@@@std@@YAXAEAPEAU?$_Tree_node@U?$pair@$$CBV?$basic_string@DU?$char_traits@D@std@@V?$allocator@D@2@@std@@UMuxBits@Trellis@@@std@@PEAX@0@@Z
	??$_Destroy_in_place@PEAU?$_Tree_node@U?$pair@$$CBV?$basic_string@DU?$char_traits@D@std@@V?$allocator@D@2@@std@@UTileConfig@Trellis@@@std@@PEAX@std@@@std@@YAXAEAPEAU?$_Tree_node@U?$pair@$$CBV?$basic_string@DU?$char_traits@D@std@@V?$allocator@D@2@@std@@UTileConfig@Trellis@@@std@@PEAX@0@@Z
	??$_Destroy_in_place@PEAU?$_Tree_node@U?$pair@$$CBV?$basic_string@DU?$char_traits@D@std@@V?$allocator@D@2@@std@@UWordSettingBits@Trellis@@@std@@PEAX@std@@@std@@YAXAEAPEAU?$_Tree_node@U?$pair@$$CBV?$basic_string@DU?$char_traits@D@std@@V?$allocator@D@2@@std@@UWordSettingBits@Trellis@@@std@@PEAX@0@@Z
	??$_Destroy_in_place@PEAU?$_Tree_node@U?$pair@$$CBV?$basic_string@DU?$char_traits@D@std@@V?$allocator@D@2@@std@@V12@@std@@PEAX@std@@@std@@YAXAEAPEAU?$_Tree_node@U?$pair@$$CBV?$basic_string@DU?$char_traits@D@std@@V?$allocator@D@2@@std@@V12@@std@@PEAX@0@@Z
	??$_Destroy_in_place@PEAU?$_Tree_node@U?$pair@$$CBV?$basic_string@DU?$char_traits@D@std@@V?$allocator@D@2@@std@@V?$basic_ptree@V?$basic_string@DU?$char_traits@D@std@@V?$allocator@D@2@@std@@V12@U?$less@V?$basic_string@DU?$char_traits@D@std@@V?$allocator@D@2@@std@@@2@@property_tree@boost@@@std@@PEAX@std@@@std@@YAXAEAPEAU?$_Tree_node@U?$pair@$$CBV?$basic_string@DU?$char_traits@D@std@@V?$allocator@D@2@@std@@V?$basic_ptree@V?$basic_string@DU?$char_traits@D@std@@V?$allocator@D@2@@std@@V12@U?$less@V?$basic_string@DU?$char_traits@D@std@@V?$allocator@D@2@@std@@@2@@property_tree@boost@@@std@@PEAX@0@@Z
	??$_Destroy_in_place@PEAU?$_Tree_node@U?$pair@$$CBV?$basic_string@DU?$char_traits@D@std@@V?$allocator@D@2@@std@@V?$set@UFixedConnection@Trellis@@U?$less@UFixedConnection@Trellis@@@std@@V?$allocator@UFixedConnection@Trellis@@@4@@2@@std@@PEAX@std@@@std@@YAXAEAPEAU?$_Tree_node@U?$pair@$$CBV?$basic_string@DU?$char_traits@D@std@@V?$allocator@D@2@@std@@V?$set@UFixedConnection@Trellis@@U?$less@UFixedConnection@Trellis@@@std@@V?$allocator@UFixedConnection@Trellis@@@4@@2@@std@@PEAX@0@@Z
	??$_Destroy_in_place@PEAU?$_Tree_node@U?$pair@$$CBV?$basic_string@DU?$char_traits@D@std@@V?$allocator@D@2@@std@@V?$shared_ptr@VTile@Trellis@@@2@@std@@PEAX@std@@@std@@YAXAEAPEAU?$_Tree_node@U?$pair@$$CBV?$basic_string@DU?$char_traits@D@std@@V?$allocator@D@2@@std@@V?$shared_ptr@VTile@Trellis@@@2@@std@@PEAX@0@@Z
	??$_Destroy_in_place@PEAU?$_Tree_node@U?$pair@$$CBV?$basic_string@DU?$char_traits@D@std@@V?$allocator@D@2@@std@@V?$vector@UChangedBit@Trellis@@V?$allocator@UChangedBit@Trellis@@@std@@@2@@std@@PEAX@std@@@std@@YAXAEAPEAU?$_Tree_node@U?$pair@$$CBV?$basic_string@DU?$char_traits@D@std@@V?$allocator@D@2@@std@@V?$vector@UChangedBit@Trellis@@V?$allocator@UChangedBit@Trellis@@@std@@@2@@std@@PEAX@0@@Z
	??$_Destroy_in_place@PEAU?$_Tree_node@UConfigBit@Trellis@@PEAX@std@@@std@@YAXAEAPEAU?$_Tree_node@UConfigBit@Trellis@@PEAX@0@@Z
	??$_Destroy_in_place@PEAU?$_Tree_node@UFixedConnection@Trellis@@PEAX@std@@@std@@YAXAEAPEAU?$_Tree_node@UFixedConnection@Trellis@@PEAX@0@@Z
	??$_Destroy_in_place@PEAU?$_Tree_node@URelId@DDChipDb@Trellis@@PEAX@std@@@std@@YAXAEAPEAU?$_Tree_node@URelId@DDChipDb@Trellis@@PEAX@0@@Z
	??$_Destroy_in_place@PEAU?$_Tree_node@V?$basic_string@DU?$char_traits@D@std@@V?$allocator@D@2@@std@@PEAX@std@@@std@@YAXAEAPEAU?$_Tree_node@V?$basic_string@DU?$char_traits@D@std@@V?$allocator@D@2@@std@@PEAX@0@@Z
	??$_Destroy_in_place@UDedupChipdb@DDChipDb@Trellis@@@std@@YAXAEAUDedupChipdb@DDChipDb@Trellis@@@Z
	??$_Destroy_in_place@UOptimizedChipdb@DDChipDb@Trellis@@@std@@YAXAEAUOptimizedChipdb@DDChipDb@Trellis@@@Z
	??$_Destroy_in_place@V?$vector@V?$vector@DV?$allocator@D@std@@@std@@V?$allocator@V?$vector@DV?$allocator@D@std@@@std@@@2@@std@@@std@@YAXAEAV?$vector@V?$vector@DV?$allocator@D@std@@@std@@V?$allocator@V?$vector@DV?$allocator@D@std@@@std@@@2@@0@@Z
	??$_Destroy_in_place@VTile@Trellis@@@std@@YAXAEAVTile@Trellis@@@Z
	??$_Destroy_range@PEAV?$_List_unchecked_const_iterator@V?$_List_val@U?$_List_simple_types@UConfigBit@Trellis@@@std@@@std@@U_Iterator_base0@2@@std@@PEAV12@@std@@YAXPEAV?$_List_unchecked_const_iterator@V?$_List_val@U?$_List_simple_types@UConfigBit@Trellis@@@std@@@std@@U_Iterator_base0@2@@0@QEAV10@@Z
	??$_Destroy_range@PEAV?$_List_unchecked_iterator@V?$_List_val@U?$_List_simple_types@U?$pair@$$CBUTileLocator@Trellis@@V?$shared_ptr@VTileBitDatabase@Trellis@@@std@@@std@@@std@@@std@@@std@@PEAV12@@std@@YAXPEAV?$_List_unchecked_iterator@V?$_List_val@U?$_List_simple_types@U?$pair@$$CBUTileLocator@Trellis@@V?$shared_ptr@VTileBitDatabase@Trellis@@@std@@@std@@@std@@@std@@@0@QEAV10@@Z
	??$_Destroy_range@PEAV?$_List_unchecked_iterator@V?$_List_val@U?$_List_simple_types@U?$pair@$$CBV?$basic_string@DU?$char_traits@D@std@@V?$allocator@D@2@@std@@H@std@@@std@@@std@@@std@@PEAV12@@std@@YAXPEAV?$_List_unchecked_iterator@V?$_List_val@U?$_List_simple_types@U?$pair@$$CBV?$basic_string@DU?$char_traits@D@std@@V?$allocator@D@2@@std@@H@std@@@std@@@std@@@0@QEAV10@@Z
	??$_Destroy_range@V?$allocator@D@std@@@std@@YAXPEADQEADAEAV?$allocator@D@0@@Z
	??$_Destroy_range@V?$allocator@E@std@@@std@@YAXPEAEQEAEAEAV?$allocator@E@0@@Z
	??$_Destroy_range@V?$allocator@G@std@@@std@@YAXPEAGQEAGAEAV?$allocator@G@0@@Z
	??$_Destroy_range@V?$allocator@H@std@@@std@@YAXPEAHQEAHAEAV?$allocator@H@0@@Z
	??$_Destroy_range@V?$allocator@I@std@@@std@@YAXPEAIQEAIAEAV?$allocator@I@0@@Z
	??$_Destroy_range@V?$allocator@U?$pair@HE@std@@@std@@@std@@YAXPEAU?$pair@HE@0@QEAU10@AEAV?$allocator@U?$pair@HE@std@@@0@@Z
	??$_Destroy_range@V?$allocator@U?$pair@URoutingId@Trellis@@H@std@@@std@@@std@@YAXPEAU?$pair@URoutingId@Trellis@@H@0@QEAU10@AEAV?$allocator@U?$pair@URoutingId@Trellis@@H@std@@@0@@Z
	??$_Destroy_range@V?$allocator@U?$pair@V?$basic_string@DU?$char_traits@D@std@@V?$allocator@D@2@@std@@E@std@@@std@@@std@@YAXPEAU?$pair@V?$basic_string@DU?$char_traits@D@std@@V?$allocator@D@2@@std@@E@0@QEAU10@AEAV?$allocator@U?$pair@V?$basic_string@DU?$char_traits@D@std@@V?$allocator@D@2@@std@@E@std@@@0@@Z
	??$_Destroy_range@V?$allocator@U?$pair@V?$basic_string@DU?$char_traits@D@std@@V?$allocator@D@2@@std@@V12@@std@@@std@@@std@@YAXPEAU?$pair@V?$basic_string@DU?$char_traits@D@std@@V?$allocator@D@2@@std@@V12@@0@QEAU10@AEAV?$allocator@U?$pair@V?$basic_string@DU?$char_traits@D@std@@V?$allocator@D@2@@std@@V12@@std@@@0@@Z
	??$_Destroy_range@V?$allocator@U?$pair@V?$basic_string@DU?$char_traits@D@std@@V?$allocator@D@2@@std@@_N@std@@@std@@@std@@YAXPEAU?$pair@V?$basic_string@DU?$char_traits@D@std@@V?$allocator@D@2@@std@@_N@0@QEAU10@AEAV?$allocator@U?$pair@V?$basic_string@DU?$char_traits@D@std@@V?$allocator@D@2@@std@@_N@std@@@0@@Z
	??$_Destroy_range@V?$allocator@UBelData@DDChipDb@Trellis@@@std@@@std@@YAXPEAUBelData@DDChipDb@Trellis@@QEAU123@AEAV?$allocator@UBelData@DDChipDb@Trellis@@@0@@Z
	??$_Destroy_range@V?$allocator@UBelPort@DDChipDb@Trellis@@@std@@@std@@YAXPEAUBelPort@DDChipDb@Trellis@@QEAU123@AEAV?$allocator@UBelPort@DDChipDb@Trellis@@@0@@Z
	??$_Destroy_range@V?$allocator@UBelWire@DDChipDb@Trellis@@@std@@@std@@YAXPEAUBelWire@DDChipDb@Trellis@@QEAU123@AEAV?$allocator@UBelWire@DDChipDb@Trellis@@@0@@Z
	??$_Destroy_range@V?$allocator@UBitGroup@Trellis@@@std@@@std@@YAXPEAUBitGroup@Trellis@@QEAU12@AEAV?$allocator@UBitGroup@Trellis@@@0@@Z
	??$_Destroy_range@V?$allocator@UChangedBit@Trellis@@@std@@@std@@YAXPEAUChangedBit@Trellis@@QEAU12@AEAV?$allocator@UChangedBit@Trellis@@@0@@Z
	??$_Destroy_range@V?$allocator@UConfigArc@Trellis@@@std@@@std@@YAXPEAUConfigArc@Trellis@@QEAU12@AEAV?$allocator@UConfigArc@Trellis@@@0@@Z
	??$_Destroy_range@V?$allocator@UConfigEnum@Trellis@@@std@@@std@@YAXPEAUConfigEnum@Trellis@@QEAU12@AEAV?$allocator@UConfigEnum@Trellis@@@0@@Z
	??$_Destroy_range@V?$allocator@UConfigUnknown@Trellis@@@std@@@std@@YAXPEAUConfigUnknown@Trellis@@QEAU12@AEAV?$allocator@UConfigUnknown@Trellis@@@0@@Z
	??$_Destroy_range@V?$allocator@UConfigWord@Trellis@@@std@@@std@@YAXPEAUConfigWord@Trellis@@QEAU12@AEAV?$allocator@UConfigWord@Trellis@@@0@@Z
	??$_Destroy_range@V?$allocator@UDdArcData@DDChipDb@Trellis@@@std@@@std@@YAXPEAUDdArcData@DDChipDb@Trellis@@QEAU123@AEAV?$allocator@UDdArcData@DDChipDb@Trellis@@@0@@Z
	??$_Destroy_range@V?$allocator@UFixedConnection@Trellis@@@std@@@std@@YAXPEAUFixedConnection@Trellis@@QEAU12@AEAV?$allocator@UFixedConnection@Trellis@@@0@@Z
	??$_Destroy_range@V?$allocator@UGlobalRegion@Trellis@@@std@@@std@@YAXPEAUGlobalRegion@Trellis@@QEAU12@AEAV?$allocator@UGlobalRegion@Trellis@@@0@@Z
	??$_Destroy_range@V?$allocator@URoutingId@Trellis@@@std@@@std@@YAXPEAURoutingId@Trellis@@QEAU12@AEAV?$allocator@URoutingId@Trellis@@@0@@Z
	??$_Destroy_range@V?$allocator@USiteInfo@Trellis@@@std@@@std@@YAXPEAUSiteInfo@Trellis@@QEAU12@AEAV?$allocator@USiteInfo@Trellis@@@0@@Z
	??$_Destroy_range@V?$allocator@USpineInfo@Trellis@@@std@@@std@@YAXPEAUSpineInfo@Trellis@@QEAU12@AEAV?$allocator@USpineInfo@Trellis@@@0@@Z
	??$_Destroy_range@V?$allocator@USpineSegment@Trellis@@@std@@@std@@YAXPEAUSpineSegment@Trellis@@QEAU12@AEAV?$allocator@USpineSegment@Trellis@@@0@@Z
	??$_Destroy_range@V?$allocator@UTapSegment@Trellis@@@std@@@std@@YAXPEAUTapSegment@Trellis@@QEAU12@AEAV?$allocator@UTapSegment@Trellis@@@0@@Z
	??$_Destroy_range@V?$allocator@UTileGroup@Trellis@@@std@@@std@@YAXPEAUTileGroup@Trellis@@QEAU12@AEAV?$allocator@UTileGroup@Trellis@@@0@@Z
	??$_Destroy_range@V?$allocator@UTileInfo@Trellis@@@std@@@std@@YAXPEAUTileInfo@Trellis@@QEAU12@AEAV?$allocator@UTileInfo@Trellis@@@0@@Z
	??$_Destroy_range@V?$allocator@UWireData@DDChipDb@Trellis@@@std@@@std@@YAXPEAUWireData@DDChipDb@Trellis@@QEAU123@AEAV?$allocator@UWireData@DDChipDb@Trellis@@@0@@Z
	??$_Destroy_range@V?$allocator@U_Grp_t@?$_Tgt_state_t@V?$_String_const_iterator@V?$_String_val@U?$_Simple_types@D@std@@@std@@@std@@@std@@@std@@@std@@YAXPEAU_Grp_t@?$_Tgt_state_t@V?$_String_const_iterator@V?$_String_val@U?$_Simple_types@D@std@@@std@@@std@@@0@QEAU120@AEAV?$allocator@U_Grp_t@?$_Tgt_state_t@V?$_String_const_iterator@V?$_String_val@U?$_Simple_types@D@std@@@std@@@std@@@std@@@0@@Z
	??$_Destroy_range@V?$allocator@U_Loop_vals_v2_t@std@@@std@@@std@@YAXPEAU_Loop_vals_v2_t@0@QEAU10@AEAV?$allocator@U_Loop_vals_v2_t@std@@@0@@Z
	??$_Destroy_range@V?$allocator@Ulayer@?$standard_callbacks@V?$basic_ptree@V?$basic_string@DU?$char_traits@D@std@@V?$allocator@D@2@@std@@V12@U?$less@V?$basic_string@DU?$char_traits@D@std@@V?$allocator@D@2@@std@@@2@@property_tree@boost@@@detail@json_parser@property_tree@boost@@@std@@@std@@YAXPEAUlayer@?$standard_callbacks@V?$basic_ptree@V?$basic_string@DU?$char_traits@D@std@@V?$allocator@D@2@@std@@V12@U?$less@V?$basic_string@DU?$char_traits@D@std@@V?$allocator@D@2@@std@@@2@@property_tree@boost@@@detail@json_parser@property_tree@boost@@QEAU123456@AEAV?$allocator@Ulayer@?$standard_callbacks@V?$basic_ptree@V?$basic_string@DU?$char_traits@D@std@@V?$allocator@D@2@@std@@V12@U?$less@V?$basic_string@DU?$char_traits@D@std@@V?$allocator@D@2@@std@@@2@@property_tree@boost@@@detail@json_parser@property_tree@boost@@@0@@Z
	??$_Destroy_range@V?$allocator@V?$_Tgt_state_t@V?$_String_const_iterator@V?$_String_val@U?$_Simple_types@D@std@@@std@@@std@@@std@@@std@@@std@@YAXPEAV?$_Tgt_state_t@V?$_String_const_iterator@V?$_String_val@U?$_Simple_types@D@std@@@std@@@std@@@0@QEAV10@AEAV?$allocator@V?$_Tgt_state_t@V?$_String_const_iterator@V?$_String_val@U?$_Simple_types@D@std@@@std@@@std@@@std@@@0@@Z
	??$_Destroy_range@V?$allocator@V?$basic_string@DU?$char_traits@D@std@@V?$allocator@D@2@@std@@@std@@@std@@YAXPEAV?$basic_string@DU?$char_traits@D@std@@V?$allocator@D@2@@0@QEAV10@AEAV?$allocator@V?$basic_string@DU?$char_traits@D@std@@V?$allocator@D@2@@std@@@0@@Z
	??$_Destroy_range@V?$allocator@V?$shared_ptr@VTile@Trellis@@@std@@@std@@@std@@YAXPEAV?$shared_ptr@VTile@Trellis@@@0@QEAV10@AEAV?$allocator@V?$shared_ptr@VTile@Trellis@@@std@@@0@@Z
	??$_Destroy_range@V?$allocator@V?$sub_match@V?$_String_const_iterator@V?$_String_val@U?$_Simple_types@D@std@@@std@@@std@@@std@@@std@@@std@@YAXPEAV?$sub_match@V?$_String_const_iterator@V?$_String_val@U?$_Simple_types@D@std@@@std@@@std@@@0@QEAV10@AEAV?$allocator@V?$sub_match@V?$_String_const_iterator@V?$_String_val@U?$_Simple_types@D@std@@@std@@@std@@@std@@@0@@Z
	??$_Destroy_range@V?$allocator@V?$vector@DV?$allocator@D@std@@@std@@@std@@@std@@YAXPEAV?$vector@DV?$allocator@D@std@@@0@QEAV10@AEAV?$allocator@V?$vector@DV?$allocator@D@std@@@std@@@0@@Z
	??$_Destroy_range@V?$allocator@V?$vector@EV?$allocator@E@std@@@std@@@std@@@std@@YAXPEAV?$vector@EV?$allocator@E@std@@@0@QEAV10@AEAV?$allocator@V?$vector@EV?$allocator@E@std@@@std@@@0@@Z
	??$_Destroy_range@V?$allocator@V?$vector@HV?$allocator@H@std@@@std@@@std@@@std@@YAXPEAV?$vector@HV?$allocator@H@std@@@0@QEAV10@AEAV?$allocator@V?$vector@HV?$allocator@H@std@@@std@@@0@@Z
	??$_Destroy_range@V?$allocator@V?$vector@U?$pair@V?$basic_string@DU?$char_traits@D@std@@V?$allocator@D@2@@std@@V12@@std@@V?$allocator@U?$pair@V?$basic_string@DU?$char_traits@D@std@@V?$allocator@D@2@@std@@V12@@std@@@2@@std@@@std@@@std@@YAXPEAV?$vector@U?$pair@V?$basic_string@DU?$char_traits@D@std@@V?$allocator@D@2@@std@@V12@@std@@V?$allocator@U?$pair@V?$basic_string@DU?$char_traits@D@std@@V?$allocator@D@2@@std@@V12@@std@@@2@@0@QEAV10@AEAV?$allocator@V?$vector@U?$pair@V?$basic_string@DU?$char_traits@D@std@@V?$allocator@D@2@@std@@V12@@std@@V?$allocator@U?$pair@V?$basic_string@DU?$char_traits@D@std@@V?$allocator@D@2@@std@@V12@@std@@@2@@std@@@0@@Z
	??$_Destroy_range@V?$allocator@V?$vector@V?$vector@U?$pair@V?$basic_string@DU?$char_traits@D@std@@V?$allocator@D@2@@std@@V12@@std@@V?$allocator@U?$pair@V?$basic_string@DU?$char_traits@D@std@@V?$allocator@D@2@@std@@V12@@std@@@2@@std@@V?$allocator@V?$vector@U?$pair@V?$basic_string@DU?$char_traits@D@std@@V?$allocator@D@2@@std@@V12@@std@@V?$allocator@U?$pair@V?$basic_string@DU?$char_traits@D@std@@V?$allocator@D@2@@std@@V12@@std@@@2@@std@@@2@@std@@@std@@@std@@YAXPEAV?$vector@V?$vector@U?$pair@V?$basic_string@DU?$char_traits@D@std@@V?$allocator@D@2@@std@@V12@@std@@V?$allocator@U?$pair@V?$basic_string@DU?$char_traits@D@std@@V?$allocator@D@2@@std@@V12@@std@@@2@@std@@V?$allocator@V?$vector@U?$pair@V?$basic_string@DU?$char_traits@D@std@@V?$allocator@D@2@@std@@V12@@std@@V?$allocator@U?$pair@V?$basic_string@DU?$char_traits@D@std@@V?$allocator@D@2@@std@@V12@@std@@@2@@std@@@2@@0@QEAV10@AEAV?$allocator@V?$vector@V?$vector@U?$pair@V?$basic_string@DU?$char_traits@D@std@@V?$allocator@D@2@@std@@V12@@std@@V?$allocator@U?$pair@V?$basic_string@DU?$char_traits@D@std@@V?$allocator@D@2@@std@@V12@@std@@@2@@std@@V?$allocator@V?$vector@U?$pair@V?$basic_string@DU?$char_traits@D@std@@V?$allocator@D@2@@std@@V12@@std@@V?$allocator@U?$pair@V?$basic_string@DU?$char_traits@D@std@@V?$allocator@D@2@@std@@V12@@std@@@2@@std@@@2@@std@@@0@@Z
	??$_Emplace@AEBUFixedConnection@Trellis@@@?$_Tree@V?$_Tset_traits@UFixedConnection@Trellis@@U?$less@UFixedConnection@Trellis@@@std@@V?$allocator@UFixedConnection@Trellis@@@4@$0A@@std@@@std@@IEAA?AU?$pair@PEAU?$_Tree_node@UFixedConnection@Trellis@@PEAX@std@@_N@1@AEBUFixedConnection@Trellis@@@Z
	??$_Emplace@AEBV?$basic_string@DU?$char_traits@D@std@@V?$allocator@D@2@@std@@@?$_Tree@V?$_Tset_traits@V?$basic_string@DU?$char_traits@D@std@@V?$allocator@D@2@@std@@U?$less@V?$basic_string@DU?$char_traits@D@std@@V?$allocator@D@2@@std@@@2@V?$allocator@V?$basic_string@DU?$char_traits@D@std@@V?$allocator@D@2@@std@@@2@$0A@@std@@@std@@IEAA?AU?$pair@PEAU?$_Tree_node@V?$basic_string@DU?$char_traits@D@std@@V?$allocator@D@2@@std@@PEAX@std@@_N@1@AEBV?$basic_string@DU?$char_traits@D@std@@V?$allocator@D@2@@1@@Z
	??$_Emplace@UConfigBit@Trellis@@@?$_Tree@V?$_Tset_traits@UConfigBit@Trellis@@U?$less@UConfigBit@Trellis@@@std@@V?$allocator@UConfigBit@Trellis@@@4@$0A@@std@@@std@@IEAA?AU?$pair@PEAU?$_Tree_node@UConfigBit@Trellis@@PEAX@std@@_N@1@$$QEAUConfigBit@Trellis@@@Z
	??$_Emplace@URelId@DDChipDb@Trellis@@@?$_Tree@V?$_Tset_traits@URelId@DDChipDb@Trellis@@U?$less@URelId@DDChipDb@Trellis@@@std@@V?$allocator@URelId@DDChipDb@Trellis@@@5@$0A@@std@@@std@@IEAA?AU?$pair@PEAU?$_Tree_node@URelId@DDChipDb@Trellis@@PEAX@std@@_N@1@$$QEAURelId@DDChipDb@Trellis@@@Z
	??$_Emplace_back@$$V@?$_Uninitialized_backout_al@V?$allocator@D@std@@@std@@QEAAXXZ
	??$_Emplace_back@$$V@?$_Uninitialized_backout_al@V?$allocator@E@std@@@std@@QEAAXXZ
	??$_Emplace_back@$$V@?$_Uninitialized_backout_al@V?$allocator@G@std@@@std@@QEAAXXZ
	??$_Emplace_back@$$V@?$_Uninitialized_backout_al@V?$allocator@U_Grp_t@?$_Tgt_state_t@V?$_String_const_iterator@V?$_String_val@U?$_Simple_types@D@std@@@std@@@std@@@std@@@std@@@std@@QEAAXXZ
	??$_Emplace_back@$$V@?$_Uninitialized_backout_al@V?$allocator@U_Loop_vals_v2_t@std@@@std@@@std@@QEAAXXZ
	??$_Emplace_back@$$V@?$_Uninitialized_backout_al@V?$allocator@V?$sub_match@V?$_String_const_iterator@V?$_String_val@U?$_Simple_types@D@std@@@std@@@std@@@std@@@std@@@std@@QEAAXXZ
	??$_Emplace_back@$$V@?$_Uninitialized_backout_al@V?$allocator@V?$vector@U?$pair@V?$basic_string@DU?$char_traits@D@std@@V?$allocator@D@2@@std@@V12@@std@@V?$allocator@U?$pair@V?$basic_string@DU?$char_traits@D@std@@V?$allocator@D@2@@std@@V12@@std@@@2@@std@@@std@@@std@@QEAAXXZ
	??$_Emplace_back@$$V@?$_Uninitialized_backout_al@V?$allocator@V?$vector@V?$vector@U?$pair@V?$basic_string@DU?$char_traits@D@std@@V?$allocator@D@2@@std@@V12@@std@@V?$allocator@U?$pair@V?$basic_string@DU?$char_traits@D@std@@V?$allocator@D@2@@std@@V12@@std@@@2@@std@@V?$allocator@V?$vector@U?$pair@V?$basic_string@DU?$char_traits@D@std@@V?$allocator@D@2@@std@@V12@@std@@V?$allocator@U?$pair@V?$basic_string@DU?$char_traits@D@std@@V?$allocator@D@2@@std@@V12@@std@@@2@@std@@@2@@std@@@std@@@std@@QEAAXXZ
	??$_Emplace_back@AEAD@?$_Uninitialized_backout_al@V?$allocator@D@std@@@std@@QEAAXAEAD@Z
	??$_Emplace_back@AEAE@?$_Uninitialized_backout_al@V?$allocator@E@std@@@std@@QEAAXAEAE@Z
	??$_Emplace_back@AEAG@?$_Uninitialized_backout_al@V?$allocator@G@std@@@std@@QEAAXAEAG@Z
	??$_Emplace_back@AEAH@?$_Uninitialized_backout_al@V?$allocator@H@std@@@std@@QEAAXAEAH@Z
	??$_Emplace_back@AEAI@?$_Uninitialized_backout_al@V?$allocator@I@std@@@std@@QEAAXAEAI@Z
	??$_Emplace_back@AEAU?$pair@URoutingId@Trellis@@H@std@@@?$_Uninitialized_backout_al@V?$allocator@U?$pair@URoutingId@Trellis@@H@std@@@std@@@std@@QEAAXAEAU?$pair@URoutingId@Trellis@@H@1@@Z
	??$_Emplace_back@AEAU?$pair@V?$basic_string@DU?$char_traits@D@std@@V?$allocator@D@2@@std@@V12@@std@@@?$_Uninitialized_backout_al@V?$allocator@U?$pair@V?$basic_string@DU?$char_traits@D@std@@V?$allocator@D@2@@std@@V12@@std@@@std@@@std@@QEAAXAEAU?$pair@V?$basic_string@DU?$char_traits@D@std@@V?$allocator@D@2@@std@@V12@@1@@Z
	??$_Emplace_back@AEAUBelData@DDChipDb@Trellis@@@?$_Uninitialized_backout_al@V?$allocator@UBelData@DDChipDb@Trellis@@@std@@@std@@QEAAXAEAUBelData@DDChipDb@Trellis@@@Z
	??$_Emplace_back@AEAUBelPort@DDChipDb@Trellis@@@?$_Uninitialized_backout_al@V?$allocator@UBelPort@DDChipDb@Trellis@@@std@@@std@@QEAAXAEAUBelPort@DDChipDb@Trellis@@@Z
	??$_Emplace_back@AEAUBelWire@DDChipDb@Trellis@@@?$_Uninitialized_backout_al@V?$allocator@UBelWire@DDChipDb@Trellis@@@std@@@std@@QEAAXAEAUBelWire@DDChipDb@Trellis@@@Z
	??$_Emplace_back@AEAUBitGroup@Trellis@@@?$_Uninitialized_backout_al@V?$allocator@UBitGroup@Trellis@@@std@@@std@@QEAAXAEAUBitGroup@Trellis@@@Z
	??$_Emplace_back@AEAUChangedBit@Trellis@@@?$_Uninitialized_backout_al@V?$allocator@UChangedBit@Trellis@@@std@@@std@@QEAAXAEAUChangedBit@Trellis@@@Z
	??$_Emplace_back@AEAUConfigArc@Trellis@@@?$_Uninitialized_backout_al@V?$allocator@UConfigArc@Trellis@@@std@@@std@@QEAAXAEAUConfigArc@Trellis@@@Z
	??$_Emplace_back@AEAUConfigEnum@Trellis@@@?$_Uninitialized_backout_al@V?$allocator@UConfigEnum@Trellis@@@std@@@std@@QEAAXAEAUConfigEnum@Trellis@@@Z
	??$_Emplace_back@AEAUConfigUnknown@Trellis@@@?$_Uninitialized_backout_al@V?$allocator@UConfigUnknown@Trellis@@@std@@@std@@QEAAXAEAUConfigUnknown@Trellis@@@Z
	??$_Emplace_back@AEAUConfigWord@Trellis@@@?$_Uninitialized_backout_al@V?$allocator@UConfigWord@Trellis@@@std@@@std@@QEAAXAEAUConfigWord@Trellis@@@Z
	??$_Emplace_back@AEAUDdArcData@DDChipDb@Trellis@@@?$_Uninitialized_backout_al@V?$allocator@UDdArcData@DDChipDb@Trellis@@@std@@@std@@QEAAXAEAUDdArcData@DDChipDb@Trellis@@@Z
	??$_Emplace_back@AEAUGlobalRegion@Trellis@@@?$_Uninitialized_backout_al@V?$allocator@UGlobalRegion@Trellis@@@std@@@std@@QEAAXAEAUGlobalRegion@Trellis@@@Z
	??$_Emplace_back@AEAURoutingId@Trellis@@@?$_Uninitialized_backout_al@V?$allocator@URoutingId@Trellis@@@std@@@std@@QEAAXAEAURoutingId@Trellis@@@Z
	??$_Emplace_back@AEAUSiteInfo@Trellis@@@?$_Uninitialized_backout_al@V?$allocator@USiteInfo@Trellis@@@std@@@std@@QEAAXAEAUSiteInfo@Trellis@@@Z
	??$_Emplace_back@AEAUSpineInfo@Trellis@@@?$_Uninitialized_backout_al@V?$allocator@USpineInfo@Trellis@@@std@@@std@@QEAAXAEAUSpineInfo@Trellis@@@Z
	??$_Emplace_back@AEAUSpineSegment@Trellis@@@?$_Uninitialized_backout_al@V?$allocator@USpineSegment@Trellis@@@std@@@std@@QEAAXAEAUSpineSegment@Trellis@@@Z
	??$_Emplace_back@AEAUTapSegment@Trellis@@@?$_Uninitialized_backout_al@V?$allocator@UTapSegment@Trellis@@@std@@@std@@QEAAXAEAUTapSegment@Trellis@@@Z
	??$_Emplace_back@AEAUWireData@DDChipDb@Trellis@@@?$_Uninitialized_backout_al@V?$allocator@UWireData@DDChipDb@Trellis@@@std@@@std@@QEAAXAEAUWireData@DDChipDb@Trellis@@@Z
	??$_Emplace_back@AEAU_Grp_t@?$_Tgt_state_t@V?$_String_const_iterator@V?$_String_val@U?$_Simple_types@D@std@@@std@@@std@@@std@@@?$_Uninitialized_backout_al@V?$allocator@U_Grp_t@?$_Tgt_state_t@V?$_String_const_iterator@V?$_String_val@U?$_Simple_types@D@std@@@std@@@std@@@std@@@std@@@std@@QEAAXAEAU_Grp_t@?$_Tgt_state_t@V?$_String_const_iterator@V?$_String_val@U?$_Simple_types@D@std@@@std@@@std@@@1@@Z
	??$_Emplace_back@AEAV?$basic_string@DU?$char_traits@D@std@@V?$allocator@D@2@@std@@@?$_Uninitialized_backout_al@V?$allocator@V?$basic_string@DU?$char_traits@D@std@@V?$allocator@D@2@@std@@@std@@@std@@QEAAXAEAV?$basic_string@DU?$char_traits@D@std@@V?$allocator@D@2@@1@@Z
	??$_Emplace_back@AEAV?$vector@HV?$allocator@H@std@@@std@@@?$_Uninitialized_backout_al@V?$allocator@V?$vector@HV?$allocator@H@std@@@std@@@std@@@std@@QEAAXAEAV?$vector@HV?$allocator@H@std@@@1@@Z
	??$_Emplace_back@AEAV?$vector@U?$pair@V?$basic_string@DU?$char_traits@D@std@@V?$allocator@D@2@@std@@V12@@std@@V?$allocator@U?$pair@V?$basic_string@DU?$char_traits@D@std@@V?$allocator@D@2@@std@@V12@@std@@@2@@std@@@?$_Uninitialized_backout_al@V?$allocator@V?$vector@U?$pair@V?$basic_string@DU?$char_traits@D@std@@V?$allocator@D@2@@std@@V12@@std@@V?$allocator@U?$pair@V?$basic_string@DU?$char_traits@D@std@@V?$allocator@D@2@@std@@V12@@std@@@2@@std@@@std@@@std@@QEAAXAEAV?$vector@U?$pair@V?$basic_string@DU?$char_traits@D@std@@V?$allocator@D@2@@std@@V12@@std@@V?$allocator@U?$pair@V?$basic_string@DU?$char_traits@D@std@@V?$allocator@D@2@@std@@V12@@std@@@2@@1@@Z
	??$_Emplace_back@AEAV?$vector@V?$vector@U?$pair@V?$basic_string@DU?$char_traits@D@std@@V?$allocator@D@2@@std@@V12@@std@@V?$allocator@U?$pair@V?$basic_string@DU?$char_traits@D@std@@V?$allocator@D@2@@std@@V12@@std@@@2@@std@@V?$allocator@V?$vector@U?$pair@V?$basic_string@DU?$char_traits@D@std@@V?$allocator@D@2@@std@@V12@@std@@V?$allocator@U?$pair@V?$basic_string@DU?$char_traits@D@std@@V?$allocator@D@2@@std@@V12@@std@@@2@@std@@@2@@std@@@?$_Uninitialized_backout_al@V?$allocator@V?$vector@V?$vector@U?$pair@V?$basic_string@DU?$char_traits@D@std@@V?$allocator@D@2@@std@@V12@@std@@V?$allocator@U?$pair@V?$basic_string@DU?$char_traits@D@std@@V?$allocator@D@2@@std@@V12@@std@@@2@@std@@V?$allocator@V?$vector@U?$pair@V?$basic_string@DU?$char_traits@D@std@@V?$allocator@D@2@@std@@V12@@std@@V?$allocator@U?$pair@V?$basic_string@DU?$char_traits@D@std@@V?$allocator@D@2@@std@@V12@@std@@@2@@std@@@2@@std@@@std@@@std@@QEAAXAEAV?$vector@V?$vector@U?$pair@V?$basic_string@DU?$char_traits@D@std@@V?$allocator@D@2@@std@@V12@@std@@V?$allocator@U?$pair@V?$basic_string@DU?$char_traits@D@std@@V?$allocator@D@2@@std@@V12@@std@@@2@@std@@V?$allocator@V?$vector@U?$pair@V?$basic_string@DU?$char_traits@D@std@@V?$allocator@D@2@@std@@V12@@std@@V?$allocator@U?$pair@V?$basic_string@DU?$char_traits@D@std@@V?$allocator@D@2@@std@@V12@@std@@@2@@std@@@2@@1@@Z
	??$_Emplace_back@AEBE@?$_Uninitialized_backout_al@V?$allocator@E@std@@@std@@QEAAXAEBE@Z
	??$_Emplace_back@AEBI@?$_Uninitialized_backout_al@V?$allocator@I@std@@@std@@QEAAXAEBI@Z
	??$_Emplace_back@AEBU?$pair@V?$basic_string@DU?$char_traits@D@std@@V?$allocator@D@2@@std@@E@std@@@?$_Uninitialized_backout_al@V?$allocator@U?$pair@V?$basic_string@DU?$char_traits@D@std@@V?$allocator@D@2@@std@@E@std@@@std@@@std@@QEAAXAEBU?$pair@V?$basic_string@DU?$char_traits@D@std@@V?$allocator@D@2@@std@@E@1@@Z
	??$_Emplace_back@AEBUSpineInfo@Trellis@@@?$_Uninitialized_backout_al@V?$allocator@USpineInfo@Trellis@@@std@@@std@@QEAAXAEBUSpineInfo@Trellis@@@Z
	??$_Emplace_back@AEBV?$_List_unchecked_const_iterator@V?$_List_val@U?$_List_simple_types@UConfigBit@Trellis@@@std@@@std@@U_Iterator_base0@2@@std@@@?$_Uninitialized_backout@PEAV?$_List_unchecked_const_iterator@V?$_List_val@U?$_List_simple_types@UConfigBit@Trellis@@@std@@@std@@U_Iterator_base0@2@@std@@@std@@QEAAXAEBV?$_List_unchecked_const_iterator@V?$_List_val@U?$_List_simple_types@UConfigBit@Trellis@@@std@@@std@@U_Iterator_base0@2@@1@@Z
	??$_Emplace_back@AEBV?$_List_unchecked_iterator@V?$_List_val@U?$_List_simple_types@U?$pair@$$CBUTileLocator@Trellis@@V?$shared_ptr@VTileBitDatabase@Trellis@@@std@@@std@@@std@@@std@@@std@@@?$_Uninitialized_backout@PEAV?$_List_unchecked_iterator@V?$_List_val@U?$_List_simple_types@U?$pair@$$CBUTileLocator@Trellis@@V?$shared_ptr@VTileBitDatabase@Trellis@@@std@@@std@@@std@@@std@@@std@@@std@@QEAAXAEBV?$_List_unchecked_iterator@V?$_List_val@U?$_List_simple_types@U?$pair@$$CBUTileLocator@Trellis@@V?$shared_ptr@VTileBitDatabase@Trellis@@@std@@@std@@@std@@@std@@@1@@Z
	??$_Emplace_back@AEBV?$_List_unchecked_iterator@V?$_List_val@U?$_List_simple_types@U?$pair@$$CBV?$basic_string@DU?$char_traits@D@std@@V?$allocator@D@2@@std@@H@std@@@std@@@std@@@std@@@?$_Uninitialized_backout@PEAV?$_List_unchecked_iterator@V?$_List_val@U?$_List_simple_types@U?$pair@$$CBV?$basic_string@DU?$char_traits@D@std@@V?$allocator@D@2@@std@@H@std@@@std@@@std@@@std@@@std@@QEAAXAEBV?$_List_unchecked_iterator@V?$_List_val@U?$_List_simple_types@U?$pair@$$CBV?$basic_string@DU?$char_traits@D@std@@V?$allocator@D@2@@std@@H@std@@@std@@@std@@@1@@Z
	??$_Emplace_back@AEBV?$vector@DV?$allocator@D@std@@@std@@@?$_Uninitialized_backout_al@V?$allocator@V?$vector@DV?$allocator@D@std@@@std@@@std@@@std@@QEAAXAEBV?$vector@DV?$allocator@D@std@@@1@@Z
	??$_Emplace_back@E@?$_Uninitialized_backout_al@V?$allocator@E@std@@@std@@QEAAX$$QEAE@Z
	??$_Emplace_back@G@?$_Uninitialized_backout_al@V?$allocator@G@std@@@std@@QEAAX$$QEAG@Z
	??$_Emplace_back@H@?$_Uninitialized_backout_al@V?$allocator@H@std@@@std@@QEAAX$$QEAH@Z
	??$_Emplace_back@I@?$_Uninitialized_backout_al@V?$allocator@I@std@@@std@@QEAAX$$QEAI@Z
	??$_Emplace_back@U?$pair@HE@std@@@?$_Uninitialized_backout_al@V?$allocator@U?$pair@HE@std@@@std@@@std@@QEAAX$$QEAU?$pair@HE@1@@Z
	??$_Emplace_back@U?$pair@URoutingId@Trellis@@H@std@@@?$_Uninitialized_backout_al@V?$allocator@U?$pair@URoutingId@Trellis@@H@std@@@std@@@std@@QEAAX$$QEAU?$pair@URoutingId@Trellis@@H@1@@Z
	??$_Emplace_back@U?$pair@V?$basic_string@DU?$char_traits@D@std@@V?$allocator@D@2@@std@@V12@@std@@@?$_Uninitialized_backout_al@V?$allocator@U?$pair@V?$basic_string@DU?$char_traits@D@std@@V?$allocator@D@2@@std@@V12@@std@@@std@@@std@@QEAAX$$QEAU?$pair@V?$basic_string@DU?$char_traits@D@std@@V?$allocator@D@2@@std@@V12@@1@@Z
	??$_Emplace_back@U?$pair@V?$basic_string@DU?$char_traits@D@std@@V?$allocator@D@2@@std@@_N@std@@@?$_Uninitialized_backout_al@V?$allocator@U?$pair@V?$basic_string@DU?$char_traits@D@std@@V?$allocator@D@2@@std@@_N@std@@@std@@@std@@QEAAX$$QEAU?$pair@V?$basic_string@DU?$char_traits@D@std@@V?$allocator@D@2@@std@@_N@1@@Z
	??$_Emplace_back@UBelData@DDChipDb@Trellis@@@?$_Uninitialized_backout_al@V?$allocator@UBelData@DDChipDb@Trellis@@@std@@@std@@QEAAX$$QEAUBelData@DDChipDb@Trellis@@@Z
	??$_Emplace_back@UBelPort@DDChipDb@Trellis@@@?$_Uninitialized_backout_al@V?$allocator@UBelPort@DDChipDb@Trellis@@@std@@@std@@QEAAX$$QEAUBelPort@DDChipDb@Trellis@@@Z
	??$_Emplace_back@UBelWire@DDChipDb@Trellis@@@?$_Uninitialized_backout_al@V?$allocator@UBelWire@DDChipDb@Trellis@@@std@@@std@@QEAAX$$QEAUBelWire@DDChipDb@Trellis@@@Z
	??$_Emplace_back@UBitGroup@Trellis@@@?$_Uninitialized_backout_al@V?$allocator@UBitGroup@Trellis@@@std@@@std@@QEAAX$$QEAUBitGroup@Trellis@@@Z
	??$_Emplace_back@UChangedBit@Trellis@@@?$_Uninitialized_backout_al@V?$allocator@UChangedBit@Trellis@@@std@@@std@@QEAAX$$QEAUChangedBit@Trellis@@@Z
	??$_Emplace_back@UConfigArc@Trellis@@@?$_Uninitialized_backout_al@V?$allocator@UConfigArc@Trellis@@@std@@@std@@QEAAX$$QEAUConfigArc@Trellis@@@Z
	??$_Emplace_back@UConfigEnum@Trellis@@@?$_Uninitialized_backout_al@V?$allocator@UConfigEnum@Trellis@@@std@@@std@@QEAAX$$QEAUConfigEnum@Trellis@@@Z
	??$_Emplace_back@UConfigUnknown@Trellis@@@?$_Uninitialized_backout_al@V?$allocator@UConfigUnknown@Trellis@@@std@@@std@@QEAAX$$QEAUConfigUnknown@Trellis@@@Z
	??$_Emplace_back@UConfigWord@Trellis@@@?$_Uninitialized_backout_al@V?$allocator@UConfigWord@Trellis@@@std@@@std@@QEAAX$$QEAUConfigWord@Trellis@@@Z
	??$_Emplace_back@UDdArcData@DDChipDb@Trellis@@@?$_Uninitialized_backout_al@V?$allocator@UDdArcData@DDChipDb@Trellis@@@std@@@std@@QEAAX$$QEAUDdArcData@DDChipDb@Trellis@@@Z
	??$_Emplace_back@UFixedConnection@Trellis@@@?$_Uninitialized_backout_al@V?$allocator@UFixedConnection@Trellis@@@std@@@std@@QEAAX$$QEAUFixedConnection@Trellis@@@Z
	??$_Emplace_back@UGlobalRegion@Trellis@@@?$_Uninitialized_backout_al@V?$allocator@UGlobalRegion@Trellis@@@std@@@std@@QEAAX$$QEAUGlobalRegion@Trellis@@@Z
	??$_Emplace_back@URoutingId@Trellis@@@?$_Uninitialized_backout_al@V?$allocator@URoutingId@Trellis@@@std@@@std@@QEAAX$$QEAURoutingId@Trellis@@@Z
	??$_Emplace_back@USiteInfo@Trellis@@@?$_Uninitialized_backout_al@V?$allocator@USiteInfo@Trellis@@@std@@@std@@QEAAX$$QEAUSiteInfo@Trellis@@@Z
	??$_Emplace_back@USpineSegment@Trellis@@@?$_Uninitialized_backout_al@V?$allocator@USpineSegment@Trellis@@@std@@@std@@QEAAX$$QEAUSpineSegment@Trellis@@@Z
	??$_Emplace_back@UTapSegment@Trellis@@@?$_Uninitialized_backout_al@V?$allocator@UTapSegment@Trellis@@@std@@@std@@QEAAX$$QEAUTapSegment@Trellis@@@Z
	??$_Emplace_back@UTileGroup@Trellis@@@?$_Uninitialized_backout_al@V?$allocator@UTileGroup@Trellis@@@std@@@std@@QEAAX$$QEAUTileGroup@Trellis@@@Z
	??$_Emplace_back@UTileInfo@Trellis@@@?$_Uninitialized_backout_al@V?$allocator@UTileInfo@Trellis@@@std@@@std@@QEAAX$$QEAUTileInfo@Trellis@@@Z
	??$_Emplace_back@UWireData@DDChipDb@Trellis@@@?$_Uninitialized_backout_al@V?$allocator@UWireData@DDChipDb@Trellis@@@std@@@std@@QEAAX$$QEAUWireData@DDChipDb@Trellis@@@Z
	??$_Emplace_back@U_Grp_t@?$_Tgt_state_t@V?$_String_const_iterator@V?$_String_val@U?$_Simple_types@D@std@@@std@@@std@@@std@@@?$_Uninitialized_backout_al@V?$allocator@U_Grp_t@?$_Tgt_state_t@V?$_String_const_iterator@V?$_String_val@U?$_Simple_types@D@std@@@std@@@std@@@std@@@std@@@std@@QEAAX$$QEAU_Grp_t@?$_Tgt_state_t@V?$_String_const_iterator@V?$_String_val@U?$_Simple_types@D@std@@@std@@@std@@@1@@Z
	??$_Emplace_back@U_Loop_vals_v2_t@std@@@?$_Uninitialized_backout_al@V?$allocator@U_Loop_vals_v2_t@std@@@std@@@std@@QEAAX$$QEAU_Loop_vals_v2_t@1@@Z
	??$_Emplace_back@Ulayer@?$standard_callbacks@V?$basic_ptree@V?$basic_string@DU?$char_traits@D@std@@V?$allocator@D@2@@std@@V12@U?$less@V?$basic_string@DU?$char_traits@D@std@@V?$allocator@D@2@@std@@@2@@property_tree@boost@@@detail@json_parser@property_tree@boost@@@?$_Uninitialized_backout_al@V?$allocator@Ulayer@?$standard_callbacks@V?$basic_ptree@V?$basic_string@DU?$char_traits@D@std@@V?$allocator@D@2@@std@@V12@U?$less@V?$basic_string@DU?$char_traits@D@std@@V?$allocator@D@2@@std@@@2@@property_tree@boost@@@detail@json_parser@property_tree@boost@@@std@@@std@@QEAAX$$QEAUlayer@?$standard_callbacks@V?$basic_ptree@V?$basic_string@DU?$char_traits@D@std@@V?$allocator@D@2@@std@@V12@U?$less@V?$basic_string@DU?$char_traits@D@std@@V?$allocator@D@2@@std@@@2@@property_tree@boost@@@detail@json_parser@property_tree@boost@@@Z
	??$_Emplace_back@V?$_Tgt_state_t@V?$_String_const_iterator@V?$_String_val@U?$_Simple_types@D@std@@@std@@@std@@@std@@@?$_Uninitialized_backout_al@V?$allocator@V?$_Tgt_state_t@V?$_String_const_iterator@V?$_String_val@U?$_Simple_types@D@std@@@std@@@std@@@std@@@std@@@std@@QEAAX$$QEAV?$_Tgt_state_t@V?$_String_const_iterator@V?$_String_val@U?$_Simple_types@D@std@@@std@@@std@@@1@@Z
	??$_Emplace_back@V?$basic_string@DU?$char_traits@D@std@@V?$allocator@D@2@@std@@@?$_Uninitialized_backout_al@V?$allocator@V?$basic_string@DU?$char_traits@D@std@@V?$allocator@D@2@@std@@@std@@@std@@QEAAX$$QEAV?$basic_string@DU?$char_traits@D@std@@V?$allocator@D@2@@1@@Z
	??$_Emplace_back@V?$shared_ptr@VTile@Trellis@@@std@@@?$_Uninitialized_backout_al@V?$allocator@V?$shared_ptr@VTile@Trellis@@@std@@@std@@@std@@QEAAX$$QEAV?$shared_ptr@VTile@Trellis@@@1@@Z
	??$_Emplace_back@V?$sub_match@V?$_String_const_iterator@V?$_String_val@U?$_Simple_types@D@std@@@std@@@std@@@std@@@?$_Uninitialized_backout_al@V?$allocator@V?$sub_match@V?$_String_const_iterator@V?$_String_val@U?$_Simple_types@D@std@@@std@@@std@@@std@@@std@@@std@@QEAAX$$QEAV?$sub_match@V?$_String_const_iterator@V?$_String_val@U?$_Simple_types@D@std@@@std@@@std@@@1@@Z
	??$_Emplace_back@V?$vector@DV?$allocator@D@std@@@std@@@?$_Uninitialized_backout_al@V?$allocator@V?$vector@DV?$allocator@D@std@@@std@@@std@@@std@@QEAAX$$QEAV?$vector@DV?$allocator@D@std@@@1@@Z
	??$_Emplace_back@V?$vector@EV?$allocator@E@std@@@std@@@?$_Uninitialized_backout_al@V?$allocator@V?$vector@EV?$allocator@E@std@@@std@@@std@@@std@@QEAAX$$QEAV?$vector@EV?$allocator@E@std@@@1@@Z
	??$_Emplace_back@V?$vector@HV?$allocator@H@std@@@std@@@?$_Uninitialized_backout_al@V?$allocator@V?$vector@HV?$allocator@H@std@@@std@@@std@@@std@@QEAAX$$QEAV?$vector@HV?$allocator@H@std@@@1@@Z
	??$_Emplace_back@V?$vector@U?$pair@V?$basic_string@DU?$char_traits@D@std@@V?$allocator@D@2@@std@@V12@@std@@V?$allocator@U?$pair@V?$basic_string@DU?$char_traits@D@std@@V?$allocator@D@2@@std@@V12@@std@@@2@@std@@@?$_Uninitialized_backout_al@V?$allocator@V?$vector@U?$pair@V?$basic_string@DU?$char_traits@D@std@@V?$allocator@D@2@@std@@V12@@std@@V?$allocator@U?$pair@V?$basic_string@DU?$char_traits@D@std@@V?$allocator@D@2@@std@@V12@@std@@@2@@std@@@std@@@std@@QEAAX$$QEAV?$vector@U?$pair@V?$basic_string@DU?$char_traits@D@std@@V?$allocator@D@2@@std@@V12@@std@@V?$allocator@U?$pair@V?$basic_string@DU?$char_traits@D@std@@V?$allocator@D@2@@std@@V12@@std@@@2@@1@@Z
	??$_Emplace_back@V?$vector@V?$vector@U?$pair@V?$basic_string@DU?$char_traits@D@std@@V?$allocator@D@2@@std@@V12@@std@@V?$allocator@U?$pair@V?$basic_string@DU?$char_traits@D@std@@V?$allocator@D@2@@std@@V12@@std@@@2@@std@@V?$allocator@V?$vector@U?$pair@V?$basic_string@DU?$char_traits@D@std@@V?$allocator@D@2@@std@@V12@@std@@V?$allocator@U?$pair@V?$basic_string@DU?$char_traits@D@std@@V?$allocator@D@2@@std@@V12@@std@@@2@@std@@@2@@std@@@?$_Uninitialized_backout_al@V?$allocator@V?$vector@V?$vector@U?$pair@V?$basic_string@DU?$char_traits@D@std@@V?$allocator@D@2@@std@@V12@@std@@V?$allocator@U?$pair@V?$basic_string@DU?$char_traits@D@std@@V?$allocator@D@2@@std@@V12@@std@@@2@@std@@V?$allocator@V?$vector@U?$pair@V?$basic_string@DU?$char_traits@D@std@@V?$allocator@D@2@@std@@V12@@std@@V?$allocator@U?$pair@V?$basic_string@DU?$char_traits@D@std@@V?$allocator@D@2@@std@@V12@@std@@@2@@std@@@2@@std@@@std@@@std@@QEAAX$$QEAV?$vector@V?$vector@U?$pair@V?$basic_string@DU?$char_traits@D@std@@V?$allocator@D@2@@std@@V12@@std@@V?$allocator@U?$pair@V?$basic_string@DU?$char_traits@D@std@@V?$allocator@D@2@@std@@V12@@std@@@2@@std@@V?$allocator@V?$vector@U?$pair@V?$basic_string@DU?$char_traits@D@std@@V?$allocator@D@2@@std@@V12@@std@@V?$allocator@U?$pair@V?$basic_string@DU?$char_traits@D@std@@V?$allocator@D@2@@std@@V12@@std@@@2@@std@@@2@@1@@Z
	??$_Emplace_back_with_unused_capacity@$$V@?$vector@V?$vector@EV?$allocator@E@std@@@std@@V?$allocator@V?$vector@EV?$allocator@E@std@@@std@@@2@@std@@AEAAAEAV?$vector@EV?$allocator@E@std@@@1@XZ
	??$_Emplace_back_with_unused_capacity@AEBE@?$vector@EV?$allocator@E@std@@@std@@AEAAAEAEAEBE@Z
	??$_Emplace_back_with_unused_capacity@AEBG@?$vector@GV?$allocator@G@std@@@std@@AEAAAEAGAEBG@Z
	??$_Emplace_back_with_unused_capacity@AEBH@?$vector@HV?$allocator@H@std@@@std@@AEAAAEAHAEBH@Z
	??$_Emplace_back_with_unused_capacity@AEBUBelData@DDChipDb@Trellis@@@?$vector@UBelData@DDChipDb@Trellis@@V?$allocator@UBelData@DDChipDb@Trellis@@@std@@@std@@AEAAAEAUBelData@DDChipDb@Trellis@@AEBU234@@Z
	??$_Emplace_back_with_unused_capacity@AEBUBelPort@DDChipDb@Trellis@@@?$vector@UBelPort@DDChipDb@Trellis@@V?$allocator@UBelPort@DDChipDb@Trellis@@@std@@@std@@AEAAAEAUBelPort@DDChipDb@Trellis@@AEBU234@@Z
	??$_Emplace_back_with_unused_capacity@AEBUBelWire@DDChipDb@Trellis@@@?$vector@UBelWire@DDChipDb@Trellis@@V?$allocator@UBelWire@DDChipDb@Trellis@@@std@@@std@@AEAAAEAUBelWire@DDChipDb@Trellis@@AEBU234@@Z
	??$_Emplace_back_with_unused_capacity@AEBUBitGroup@Trellis@@@?$vector@UBitGroup@Trellis@@V?$allocator@UBitGroup@Trellis@@@std@@@std@@AEAAAEAUBitGroup@Trellis@@AEBU23@@Z
	??$_Emplace_back_with_unused_capacity@AEBUConfigArc@Trellis@@@?$vector@UConfigArc@Trellis@@V?$allocator@UConfigArc@Trellis@@@std@@@std@@AEAAAEAUConfigArc@Trellis@@AEBU23@@Z
	??$_Emplace_back_with_unused_capacity@AEBUConfigEnum@Trellis@@@?$vector@UConfigEnum@Trellis@@V?$allocator@UConfigEnum@Trellis@@@std@@@std@@AEAAAEAUConfigEnum@Trellis@@AEBU23@@Z
	??$_Emplace_back_with_unused_capacity@AEBUConfigUnknown@Trellis@@@?$vector@UConfigUnknown@Trellis@@V?$allocator@UConfigUnknown@Trellis@@@std@@@std@@AEAAAEAUConfigUnknown@Trellis@@AEBU23@@Z
	??$_Emplace_back_with_unused_capacity@AEBUConfigWord@Trellis@@@?$vector@UConfigWord@Trellis@@V?$allocator@UConfigWord@Trellis@@@std@@@std@@AEAAAEAUConfigWord@Trellis@@AEBU23@@Z
	??$_Emplace_back_with_unused_capacity@AEBUDdArcData@DDChipDb@Trellis@@@?$vector@UDdArcData@DDChipDb@Trellis@@V?$allocator@UDdArcData@DDChipDb@Trellis@@@std@@@std@@AEAAAEAUDdArcData@DDChipDb@Trellis@@AEBU234@@Z
	??$_Emplace_back_with_unused_capacity@AEBUFixedConnection@Trellis@@@?$vector@UFixedConnection@Trellis@@V?$allocator@UFixedConnection@Trellis@@@std@@@std@@AEAAAEAUFixedConnection@Trellis@@AEBU23@@Z
	??$_Emplace_back_with_unused_capacity@AEBUGlobalRegion@Trellis@@@?$vector@UGlobalRegion@Trellis@@V?$allocator@UGlobalRegion@Trellis@@@std@@@std@@AEAAAEAUGlobalRegion@Trellis@@AEBU23@@Z
	??$_Emplace_back_with_unused_capacity@AEBURoutingId@Trellis@@@?$vector@URoutingId@Trellis@@V?$allocator@URoutingId@Trellis@@@std@@@std@@AEAAAEAURoutingId@Trellis@@AEBU23@@Z
	??$_Emplace_back_with_unused_capacity@AEBUSiteInfo@Trellis@@@?$vector@USiteInfo@Trellis@@V?$allocator@USiteInfo@Trellis@@@std@@@std@@AEAAAEAUSiteInfo@Trellis@@AEBU23@@Z
	??$_Emplace_back_with_unused_capacity@AEBUSpineSegment@Trellis@@@?$vector@USpineSegment@Trellis@@V?$allocator@USpineSegment@Trellis@@@std@@@std@@AEAAAEAUSpineSegment@Trellis@@AEBU23@@Z
	??$_Emplace_back_with_unused_capacity@AEBUTapSegment@Trellis@@@?$vector@UTapSegment@Trellis@@V?$allocator@UTapSegment@Trellis@@@std@@@std@@AEAAAEAUTapSegment@Trellis@@AEBU23@@Z
	??$_Emplace_back_with_unused_capacity@AEBUTileGroup@Trellis@@@?$vector@UTileGroup@Trellis@@V?$allocator@UTileGroup@Trellis@@@std@@@std@@AEAAAEAUTileGroup@Trellis@@AEBU23@@Z
	??$_Emplace_back_with_unused_capacity@AEBUTileInfo@Trellis@@@?$vector@UTileInfo@Trellis@@V?$allocator@UTileInfo@Trellis@@@std@@@std@@AEAAAEAUTileInfo@Trellis@@AEBU23@@Z
	??$_Emplace_back_with_unused_capacity@AEBUWireData@DDChipDb@Trellis@@@?$vector@UWireData@DDChipDb@Trellis@@V?$allocator@UWireData@DDChipDb@Trellis@@@std@@@std@@AEAAAEAUWireData@DDChipDb@Trellis@@AEBU234@@Z
	??$_Emplace_back_with_unused_capacity@AEBUlayer@?$standard_callbacks@V?$basic_ptree@V?$basic_string@DU?$char_traits@D@std@@V?$allocator@D@2@@std@@V12@U?$less@V?$basic_string@DU?$char_traits@D@std@@V?$allocator@D@2@@std@@@2@@property_tree@boost@@@detail@json_parser@property_tree@boost@@@?$vector@Ulayer@?$standard_callbacks@V?$basic_ptree@V?$basic_string@DU?$char_traits@D@std@@V?$allocator@D@2@@std@@V12@U?$less@V?$basic_string@DU?$char_traits@D@std@@V?$allocator@D@2@@std@@@2@@property_tree@boost@@@detail@json_parser@property_tree@boost@@V?$allocator@Ulayer@?$standard_callbacks@V?$basic_ptree@V?$basic_string@DU?$char_traits@D@std@@V?$allocator@D@2@@std@@V12@U?$less@V?$basic_string@DU?$char_traits@D@std@@V?$allocator@D@2@@std@@@2@@property_tree@boost@@@detail@json_parser@property_tree@boost@@@std@@@std@@AEAAAEAUlayer@?$standard_callbacks@V?$basic_ptree@V?$basic_string@DU?$char_traits@D@std@@V?$allocator@D@2@@std@@V12@U?$less@V?$basic_string@DU?$char_traits@D@std@@V?$allocator@D@2@@std@@@2@@property_tree@boost@@@detail@json_parser@property_tree@boost@@AEBU234567@@Z
	??$_Emplace_back_with_unused_capacity@AEBV?$_Tgt_state_t@V?$_String_const_iterator@V?$_String_val@U?$_Simple_types@D@std@@@std@@@std@@@std@@@?$vector@V?$_Tgt_state_t@V?$_String_const_iterator@V?$_String_val@U?$_Simple_types@D@std@@@std@@@std@@@std@@V?$allocator@V?$_Tgt_state_t@V?$_String_const_iterator@V?$_String_val@U?$_Simple_types@D@std@@@std@@@std@@@std@@@2@@std@@AEAAAEAV?$_Tgt_state_t@V?$_String_const_iterator@V?$_String_val@U?$_Simple_types@D@std@@@std@@@std@@@1@AEBV21@@Z
	??$_Emplace_back_with_unused_capacity@AEBV?$basic_string@DU?$char_traits@D@std@@V?$allocator@D@2@@std@@@?$vector@V?$basic_string@DU?$char_traits@D@std@@V?$allocator@D@2@@std@@V?$allocator@V?$basic_string@DU?$char_traits@D@std@@V?$allocator@D@2@@std@@@2@@std@@AEAAAEAV?$basic_string@DU?$char_traits@D@std@@V?$allocator@D@2@@1@AEBV21@@Z
	??$_Emplace_back_with_unused_capacity@AEBV?$shared_ptr@VTile@Trellis@@@std@@@?$vector@V?$shared_ptr@VTile@Trellis@@@std@@V?$allocator@V?$shared_ptr@VTile@Trellis@@@std@@@2@@std@@AEAAAEAV?$shared_ptr@VTile@Trellis@@@1@AEBV21@@Z
	??$_Emplace_back_with_unused_capacity@AEBV?$vector@HV?$allocator@H@std@@@std@@@?$vector@V?$vector@HV?$allocator@H@std@@@std@@V?$allocator@V?$vector@HV?$allocator@H@std@@@std@@@2@@std@@AEAAAEAV?$vector@HV?$allocator@H@std@@@1@AEBV21@@Z
	??$_Emplace_back_with_unused_capacity@E@?$vector@EV?$allocator@E@std@@@std@@AEAAAEAE$$QEAE@Z
	??$_Emplace_back_with_unused_capacity@H@?$vector@HV?$allocator@H@std@@@std@@AEAAAEAH$$QEAH@Z
	??$_Emplace_back_with_unused_capacity@I@?$vector@IV?$allocator@I@std@@@std@@AEAAAEAI$$QEAI@Z
	??$_Emplace_back_with_unused_capacity@U?$pair@HE@std@@@?$vector@U?$pair@HE@std@@V?$allocator@U?$pair@HE@std@@@2@@std@@AEAAAEAU?$pair@HE@1@$$QEAU21@@Z
	??$_Emplace_back_with_unused_capacity@U?$pair@URoutingId@Trellis@@H@std@@@?$vector@U?$pair@URoutingId@Trellis@@H@std@@V?$allocator@U?$pair@URoutingId@Trellis@@H@std@@@2@@std@@AEAAAEAU?$pair@URoutingId@Trellis@@H@1@$$QEAU21@@Z
	??$_Emplace_back_with_unused_capacity@U?$pair@V?$basic_string@DU?$char_traits@D@std@@V?$allocator@D@2@@std@@V12@@std@@@?$vector@U?$pair@V?$basic_string@DU?$char_traits@D@std@@V?$allocator@D@2@@std@@V12@@std@@V?$allocator@U?$pair@V?$basic_string@DU?$char_traits@D@std@@V?$allocator@D@2@@std@@V12@@std@@@2@@std@@AEAAAEAU?$pair@V?$basic_string@DU?$char_traits@D@std@@V?$allocator@D@2@@std@@V12@@1@$$QEAU21@@Z
	??$_Emplace_back_with_unused_capacity@U?$pair@V?$basic_string@DU?$char_traits@D@std@@V?$allocator@D@2@@std@@_N@std@@@?$vector@U?$pair@V?$basic_string@DU?$char_traits@D@std@@V?$allocator@D@2@@std@@_N@std@@V?$allocator@U?$pair@V?$basic_string@DU?$char_traits@D@std@@V?$allocator@D@2@@std@@_N@std@@@2@@std@@AEAAAEAU?$pair@V?$basic_string@DU?$char_traits@D@std@@V?$allocator@D@2@@std@@_N@1@$$QEAU21@@Z
	??$_Emplace_back_with_unused_capacity@UChangedBit@Trellis@@@?$vector@UChangedBit@Trellis@@V?$allocator@UChangedBit@Trellis@@@std@@@std@@AEAAAEAUChangedBit@Trellis@@$$QEAU23@@Z
	??$_Emplace_back_with_unused_capacity@UConfigArc@Trellis@@@?$vector@UConfigArc@Trellis@@V?$allocator@UConfigArc@Trellis@@@std@@@std@@AEAAAEAUConfigArc@Trellis@@$$QEAU23@@Z
	??$_Emplace_back_with_unused_capacity@UConfigEnum@Trellis@@@?$vector@UConfigEnum@Trellis@@V?$allocator@UConfigEnum@Trellis@@@std@@@std@@AEAAAEAUConfigEnum@Trellis@@$$QEAU23@@Z
	??$_Emplace_back_with_unused_capacity@UConfigUnknown@Trellis@@@?$vector@UConfigUnknown@Trellis@@V?$allocator@UConfigUnknown@Trellis@@@std@@@std@@AEAAAEAUConfigUnknown@Trellis@@$$QEAU23@@Z
	??$_Emplace_back_with_unused_capacity@UConfigWord@Trellis@@@?$vector@UConfigWord@Trellis@@V?$allocator@UConfigWord@Trellis@@@std@@@std@@AEAAAEAUConfigWord@Trellis@@$$QEAU23@@Z
	??$_Emplace_hint@AEBU?$pair@$$CBII@std@@@?$_Tree@V?$_Tmap_traits@IIU?$less@I@std@@V?$allocator@U?$pair@$$CBII@std@@@2@$0A@@std@@@std@@IEAAPEAU?$_Tree_node@U?$pair@$$CBII@std@@PEAX@1@QEAU21@AEBU?$pair@$$CBII@1@@Z
	??$_Emplace_hint@AEBU?$pair@$$CBU?$pair@HH@std@@H@std@@@?$_Tree@V?$_Tmap_traits@U?$pair@HH@std@@HU?$less@U?$pair@HH@std@@@2@V?$allocator@U?$pair@$$CBU?$pair@HH@std@@H@std@@@2@$0A@@std@@@std@@IEAAPEAU?$_Tree_node@U?$pair@$$CBU?$pair@HH@std@@H@std@@PEAX@1@QEAU21@AEBU?$pair@$$CBU?$pair@HH@std@@H@1@@Z
	??$_Emplace_hint@AEBU?$pair@$$CBU?$pair@HH@std@@U12@@std@@@?$_Tree@V?$_Tmap_traits@U?$pair@HH@std@@U12@U?$less@U?$pair@HH@std@@@2@V?$allocator@U?$pair@$$CBU?$pair@HH@std@@U12@@std@@@2@$0A@@std@@@std@@IEAAPEAU?$_Tree_node@U?$pair@$$CBU?$pair@HH@std@@U12@@std@@PEAX@1@QEAU21@AEBU?$pair@$$CBU?$pair@HH@std@@U12@@1@@Z
	??$_Emplace_hint@AEBU?$pair@$$CBU?$pair@HH@std@@V?$vector@USpineInfo@Trellis@@V?$allocator@USpineInfo@Trellis@@@std@@@2@@std@@@?$_Tree@V?$_Tmap_traits@U?$pair@HH@std@@V?$vector@USpineInfo@Trellis@@V?$allocator@USpineInfo@Trellis@@@std@@@2@U?$less@U?$pair@HH@std@@@2@V?$allocator@U?$pair@$$CBU?$pair@HH@std@@V?$vector@USpineInfo@Trellis@@V?$allocator@USpineInfo@Trellis@@@std@@@2@@std@@@2@$0A@@std@@@std@@IEAAPEAU?$_Tree_node@U?$pair@$$CBU?$pair@HH@std@@V?$vector@USpineInfo@Trellis@@V?$allocator@USpineInfo@Trellis@@@std@@@2@@std@@PEAX@1@QEAU21@AEBU?$pair@$$CBU?$pair@HH@std@@V?$vector@USpineInfo@Trellis@@V?$allocator@USpineInfo@Trellis@@@std@@@2@@1@@Z
	??$_Emplace_one_at_back@$$V@?$vector@V?$vector@EV?$allocator@E@std@@@std@@V?$allocator@V?$vector@EV?$allocator@E@std@@@std@@@2@@std@@AEAAAEAV?$vector@EV?$allocator@E@std@@@1@XZ
	??$_Emplace_one_at_back@AEBE@?$vector@EV?$allocator@E@std@@@std@@AEAAAEAEAEBE@Z
	??$_Emplace_one_at_back@AEBG@?$vector@GV?$allocator@G@std@@@std@@AEAAAEAGAEBG@Z
	??$_Emplace_one_at_back@AEBH@?$vector@HV?$allocator@H@std@@@std@@AEAAAEAHAEBH@Z
	??$_Emplace_one_at_back@AEBUBelData@DDChipDb@Trellis@@@?$vector@UBelData@DDChipDb@Trellis@@V?$allocator@UBelData@DDChipDb@Trellis@@@std@@@std@@AEAAAEAUBelData@DDChipDb@Trellis@@AEBU234@@Z
	??$_Emplace_one_at_back@AEBUBelPort@DDChipDb@Trellis@@@?$vector@UBelPort@DDChipDb@Trellis@@V?$allocator@UBelPort@DDChipDb@Trellis@@@std@@@std@@AEAAAEAUBelPort@DDChipDb@Trellis@@AEBU234@@Z
	??$_Emplace_one_at_back@AEBUBelWire@DDChipDb@Trellis@@@?$vector@UBelWire@DDChipDb@Trellis@@V?$allocator@UBelWire@DDChipDb@Trellis@@@std@@@std@@AEAAAEAUBelWire@DDChipDb@Trellis@@AEBU234@@Z
	??$_Emplace_one_at_back@AEBUBitGroup@Trellis@@@?$vector@UBitGroup@Trellis@@V?$allocator@UBitGroup@Trellis@@@std@@@std@@AEAAAEAUBitGroup@Trellis@@AEBU23@@Z
	??$_Emplace_one_at_back@AEBUConfigArc@Trellis@@@?$vector@UConfigArc@Trellis@@V?$allocator@UConfigArc@Trellis@@@std@@@std@@AEAAAEAUConfigArc@Trellis@@AEBU23@@Z
	??$_Emplace_one_at_back@AEBUConfigEnum@Trellis@@@?$vector@UConfigEnum@Trellis@@V?$allocator@UConfigEnum@Trellis@@@std@@@std@@AEAAAEAUConfigEnum@Trellis@@AEBU23@@Z
	??$_Emplace_one_at_back@AEBUConfigUnknown@Trellis@@@?$vector@UConfigUnknown@Trellis@@V?$allocator@UConfigUnknown@Trellis@@@std@@@std@@AEAAAEAUConfigUnknown@Trellis@@AEBU23@@Z
	??$_Emplace_one_at_back@AEBUConfigWord@Trellis@@@?$vector@UConfigWord@Trellis@@V?$allocator@UConfigWord@Trellis@@@std@@@std@@AEAAAEAUConfigWord@Trellis@@AEBU23@@Z
	??$_Emplace_one_at_back@AEBUDdArcData@DDChipDb@Trellis@@@?$vector@UDdArcData@DDChipDb@Trellis@@V?$allocator@UDdArcData@DDChipDb@Trellis@@@std@@@std@@AEAAAEAUDdArcData@DDChipDb@Trellis@@AEBU234@@Z
	??$_Emplace_one_at_back@AEBUFixedConnection@Trellis@@@?$vector@UFixedConnection@Trellis@@V?$allocator@UFixedConnection@Trellis@@@std@@@std@@AEAAAEAUFixedConnection@Trellis@@AEBU23@@Z
	??$_Emplace_one_at_back@AEBUGlobalRegion@Trellis@@@?$vector@UGlobalRegion@Trellis@@V?$allocator@UGlobalRegion@Trellis@@@std@@@std@@AEAAAEAUGlobalRegion@Trellis@@AEBU23@@Z
	??$_Emplace_one_at_back@AEBURoutingId@Trellis@@@?$vector@URoutingId@Trellis@@V?$allocator@URoutingId@Trellis@@@std@@@std@@AEAAAEAURoutingId@Trellis@@AEBU23@@Z
	??$_Emplace_one_at_back@AEBUSiteInfo@Trellis@@@?$vector@USiteInfo@Trellis@@V?$allocator@USiteInfo@Trellis@@@std@@@std@@AEAAAEAUSiteInfo@Trellis@@AEBU23@@Z
	??$_Emplace_one_at_back@AEBUSpineSegment@Trellis@@@?$vector@USpineSegment@Trellis@@V?$allocator@USpineSegment@Trellis@@@std@@@std@@AEAAAEAUSpineSegment@Trellis@@AEBU23@@Z
	??$_Emplace_one_at_back@AEBUTapSegment@Trellis@@@?$vector@UTapSegment@Trellis@@V?$allocator@UTapSegment@Trellis@@@std@@@std@@AEAAAEAUTapSegment@Trellis@@AEBU23@@Z
	??$_Emplace_one_at_back@AEBUTileGroup@Trellis@@@?$vector@UTileGroup@Trellis@@V?$allocator@UTileGroup@Trellis@@@std@@@std@@AEAAAEAUTileGroup@Trellis@@AEBU23@@Z
	??$_Emplace_one_at_back@AEBUTileInfo@Trellis@@@?$vector@UTileInfo@Trellis@@V?$allocator@UTileInfo@Trellis@@@std@@@std@@AEAAAEAUTileInfo@Trellis@@AEBU23@@Z
	??$_Emplace_one_at_back@AEBUWireData@DDChipDb@Trellis@@@?$vector@UWireData@DDChipDb@Trellis@@V?$allocator@UWireData@DDChipDb@Trellis@@@std@@@std@@AEAAAEAUWireData@DDChipDb@Trellis@@AEBU234@@Z
	??$_Emplace_one_at_back@AEBUlayer@?$standard_callbacks@V?$basic_ptree@V?$basic_string@DU?$char_traits@D@std@@V?$allocator@D@2@@std@@V12@U?$less@V?$basic_string@DU?$char_traits@D@std@@V?$allocator@D@2@@std@@@2@@property_tree@boost@@@detail@json_parser@property_tree@boost@@@?$vector@Ulayer@?$standard_callbacks@V?$basic_ptree@V?$basic_string@DU?$char_traits@D@std@@V?$allocator@D@2@@std@@V12@U?$less@V?$basic_string@DU?$char_traits@D@std@@V?$allocator@D@2@@std@@@2@@property_tree@boost@@@detail@json_parser@property_tree@boost@@V?$allocator@Ulayer@?$standard_callbacks@V?$basic_ptree@V?$basic_string@DU?$char_traits@D@std@@V?$allocator@D@2@@std@@V12@U?$less@V?$basic_string@DU?$char_traits@D@std@@V?$allocator@D@2@@std@@@2@@property_tree@boost@@@detail@json_parser@property_tree@boost@@@std@@@std@@AEAAAEAUlayer@?$standard_callbacks@V?$basic_ptree@V?$basic_string@DU?$char_traits@D@std@@V?$allocator@D@2@@std@@V12@U?$less@V?$basic_string@DU?$char_traits@D@std@@V?$allocator@D@2@@std@@@2@@property_tree@boost@@@detail@json_parser@property_tree@boost@@AEBU234567@@Z
	??$_Emplace_one_at_back@AEBV?$_Tgt_state_t@V?$_String_const_iterator@V?$_String_val@U?$_Simple_types@D@std@@@std@@@std@@@std@@@?$vector@V?$_Tgt_state_t@V?$_String_const_iterator@V?$_String_val@U?$_Simple_types@D@std@@@std@@@std@@@std@@V?$allocator@V?$_Tgt_state_t@V?$_String_const_iterator@V?$_String_val@U?$_Simple_types@D@std@@@std@@@std@@@std@@@2@@std@@AEAAAEAV?$_Tgt_state_t@V?$_String_const_iterator@V?$_String_val@U?$_Simple_types@D@std@@@std@@@std@@@1@AEBV21@@Z
	??$_Emplace_one_at_back@AEBV?$basic_string@DU?$char_traits@D@std@@V?$allocator@D@2@@std@@@?$vector@V?$basic_string@DU?$char_traits@D@std@@V?$allocator@D@2@@std@@V?$allocator@V?$basic_string@DU?$char_traits@D@std@@V?$allocator@D@2@@std@@@2@@std@@AEAAAEAV?$basic_string@DU?$char_traits@D@std@@V?$allocator@D@2@@1@AEBV21@@Z
	??$_Emplace_one_at_back@AEBV?$shared_ptr@VTile@Trellis@@@std@@@?$vector@V?$shared_ptr@VTile@Trellis@@@std@@V?$allocator@V?$shared_ptr@VTile@Trellis@@@std@@@2@@std@@AEAAAEAV?$shared_ptr@VTile@Trellis@@@1@AEBV21@@Z
	??$_Emplace_one_at_back@AEBV?$vector@HV?$allocator@H@std@@@std@@@?$vector@V?$vector@HV?$allocator@H@std@@@std@@V?$allocator@V?$vector@HV?$allocator@H@std@@@std@@@2@@std@@AEAAAEAV?$vector@HV?$allocator@H@std@@@1@AEBV21@@Z
	??$_Emplace_one_at_back@E@?$vector@EV?$allocator@E@std@@@std@@AEAAAEAE$$QEAE@Z
	??$_Emplace_one_at_back@H@?$vector@HV?$allocator@H@std@@@std@@AEAAAEAH$$QEAH@Z
	??$_Emplace_one_at_back@I@?$vector@IV?$allocator@I@std@@@std@@AEAAAEAI$$QEAI@Z
	??$_Emplace_one_at_back@U?$pair@HE@std@@@?$vector@U?$pair@HE@std@@V?$allocator@U?$pair@HE@std@@@2@@std@@AEAAAEAU?$pair@HE@1@$$QEAU21@@Z
	??$_Emplace_one_at_back@U?$pair@URoutingId@Trellis@@H@std@@@?$vector@U?$pair@URoutingId@Trellis@@H@std@@V?$allocator@U?$pair@URoutingId@Trellis@@H@std@@@2@@std@@AEAAAEAU?$pair@URoutingId@Trellis@@H@1@$$QEAU21@@Z
	??$_Emplace_one_at_back@U?$pair@V?$basic_string@DU?$char_traits@D@std@@V?$allocator@D@2@@std@@V12@@std@@@?$vector@U?$pair@V?$basic_string@DU?$char_traits@D@std@@V?$allocator@D@2@@std@@V12@@std@@V?$allocator@U?$pair@V?$basic_string@DU?$char_traits@D@std@@V?$allocator@D@2@@std@@V12@@std@@@2@@std@@AEAAAEAU?$pair@V?$basic_string@DU?$char_traits@D@std@@V?$allocator@D@2@@std@@V12@@1@$$QEAU21@@Z
	??$_Emplace_one_at_back@U?$pair@V?$basic_string@DU?$char_traits@D@std@@V?$allocator@D@2@@std@@_N@std@@@?$vector@U?$pair@V?$basic_string@DU?$char_traits@D@std@@V?$allocator@D@2@@std@@_N@std@@V?$allocator@U?$pair@V?$basic_string@DU?$char_traits@D@std@@V?$allocator@D@2@@std@@_N@std@@@2@@std@@AEAAAEAU?$pair@V?$basic_string@DU?$char_traits@D@std@@V?$allocator@D@2@@std@@_N@1@$$QEAU21@@Z
	??$_Emplace_one_at_back@UChangedBit@Trellis@@@?$vector@UChangedBit@Trellis@@V?$allocator@UChangedBit@Trellis@@@std@@@std@@AEAAAEAUChangedBit@Trellis@@$$QEAU23@@Z
	??$_Emplace_one_at_back@UConfigArc@Trellis@@@?$vector@UConfigArc@Trellis@@V?$allocator@UConfigArc@Trellis@@@std@@@std@@AEAAAEAUConfigArc@Trellis@@$$QEAU23@@Z
	??$_Emplace_one_at_back@UConfigEnum@Trellis@@@?$vector@UConfigEnum@Trellis@@V?$allocator@UConfigEnum@Trellis@@@std@@@std@@AEAAAEAUConfigEnum@Trellis@@$$QEAU23@@Z
	??$_Emplace_one_at_back@UConfigUnknown@Trellis@@@?$vector@UConfigUnknown@Trellis@@V?$allocator@UConfigUnknown@Trellis@@@std@@@std@@AEAAAEAUConfigUnknown@Trellis@@$$QEAU23@@Z
	??$_Emplace_one_at_back@UConfigWord@Trellis@@@?$vector@UConfigWord@Trellis@@V?$allocator@UConfigWord@Trellis@@@std@@@std@@AEAAAEAUConfigWord@Trellis@@$$QEAU23@@Z
	??$_Emplace_reallocate@$$V@?$vector@V?$vector@EV?$allocator@E@std@@@std@@V?$allocator@V?$vector@EV?$allocator@E@std@@@std@@@2@@std@@AEAAPEAV?$vector@EV?$allocator@E@std@@@1@QEAV21@@Z
	??$_Emplace_reallocate@AEBE@?$vector@EV?$allocator@E@std@@@std@@AEAAPEAEQEAEAEBE@Z
	??$_Emplace_reallocate@AEBG@?$vector@GV?$allocator@G@std@@@std@@AEAAPEAGQEAGAEBG@Z
	??$_Emplace_reallocate@AEBH@?$vector@HV?$allocator@H@std@@@std@@AEAAPEAHQEAHAEBH@Z
	??$_Emplace_reallocate@AEBUBelData@DDChipDb@Trellis@@@?$vector@UBelData@DDChipDb@Trellis@@V?$allocator@UBelData@DDChipDb@Trellis@@@std@@@std@@AEAAPEAUBelData@DDChipDb@Trellis@@QEAU234@AEBU234@@Z
	??$_Emplace_reallocate@AEBUBelPort@DDChipDb@Trellis@@@?$vector@UBelPort@DDChipDb@Trellis@@V?$allocator@UBelPort@DDChipDb@Trellis@@@std@@@std@@AEAAPEAUBelPort@DDChipDb@Trellis@@QEAU234@AEBU234@@Z
	??$_Emplace_reallocate@AEBUBelWire@DDChipDb@Trellis@@@?$vector@UBelWire@DDChipDb@Trellis@@V?$allocator@UBelWire@DDChipDb@Trellis@@@std@@@std@@AEAAPEAUBelWire@DDChipDb@Trellis@@QEAU234@AEBU234@@Z
	??$_Emplace_reallocate@AEBUBitGroup@Trellis@@@?$vector@UBitGroup@Trellis@@V?$allocator@UBitGroup@Trellis@@@std@@@std@@AEAAPEAUBitGroup@Trellis@@QEAU23@AEBU23@@Z
	??$_Emplace_reallocate@AEBUConfigArc@Trellis@@@?$vector@UConfigArc@Trellis@@V?$allocator@UConfigArc@Trellis@@@std@@@std@@AEAAPEAUConfigArc@Trellis@@QEAU23@AEBU23@@Z
	??$_Emplace_reallocate@AEBUConfigEnum@Trellis@@@?$vector@UConfigEnum@Trellis@@V?$allocator@UConfigEnum@Trellis@@@std@@@std@@AEAAPEAUConfigEnum@Trellis@@QEAU23@AEBU23@@Z
	??$_Emplace_reallocate@AEBUConfigUnknown@Trellis@@@?$vector@UConfigUnknown@Trellis@@V?$allocator@UConfigUnknown@Trellis@@@std@@@std@@AEAAPEAUConfigUnknown@Trellis@@QEAU23@AEBU23@@Z
	??$_Emplace_reallocate@AEBUConfigWord@Trellis@@@?$vector@UConfigWord@Trellis@@V?$allocator@UConfigWord@Trellis@@@std@@@std@@AEAAPEAUConfigWord@Trellis@@QEAU23@AEBU23@@Z
	??$_Emplace_reallocate@AEBUDdArcData@DDChipDb@Trellis@@@?$vector@UDdArcData@DDChipDb@Trellis@@V?$allocator@UDdArcData@DDChipDb@Trellis@@@std@@@std@@AEAAPEAUDdArcData@DDChipDb@Trellis@@QEAU234@AEBU234@@Z
	??$_Emplace_reallocate@AEBUFixedConnection@Trellis@@@?$vector@UFixedConnection@Trellis@@V?$allocator@UFixedConnection@Trellis@@@std@@@std@@AEAAPEAUFixedConnection@Trellis@@QEAU23@AEBU23@@Z
	??$_Emplace_reallocate@AEBUGlobalRegion@Trellis@@@?$vector@UGlobalRegion@Trellis@@V?$allocator@UGlobalRegion@Trellis@@@std@@@std@@AEAAPEAUGlobalRegion@Trellis@@QEAU23@AEBU23@@Z
	??$_Emplace_reallocate@AEBURoutingId@Trellis@@@?$vector@URoutingId@Trellis@@V?$allocator@URoutingId@Trellis@@@std@@@std@@AEAAPEAURoutingId@Trellis@@QEAU23@AEBU23@@Z
	??$_Emplace_reallocate@AEBUSiteInfo@Trellis@@@?$vector@USiteInfo@Trellis@@V?$allocator@USiteInfo@Trellis@@@std@@@std@@AEAAPEAUSiteInfo@Trellis@@QEAU23@AEBU23@@Z
	??$_Emplace_reallocate@AEBUSpineSegment@Trellis@@@?$vector@USpineSegment@Trellis@@V?$allocator@USpineSegment@Trellis@@@std@@@std@@AEAAPEAUSpineSegment@Trellis@@QEAU23@AEBU23@@Z
	??$_Emplace_reallocate@AEBUTapSegment@Trellis@@@?$vector@UTapSegment@Trellis@@V?$allocator@UTapSegment@Trellis@@@std@@@std@@AEAAPEAUTapSegment@Trellis@@QEAU23@AEBU23@@Z
	??$_Emplace_reallocate@AEBUTileGroup@Trellis@@@?$vector@UTileGroup@Trellis@@V?$allocator@UTileGroup@Trellis@@@std@@@std@@AEAAPEAUTileGroup@Trellis@@QEAU23@AEBU23@@Z
	??$_Emplace_reallocate@AEBUTileInfo@Trellis@@@?$vector@UTileInfo@Trellis@@V?$allocator@UTileInfo@Trellis@@@std@@@std@@AEAAPEAUTileInfo@Trellis@@QEAU23@AEBU23@@Z
	??$_Emplace_reallocate@AEBUWireData@DDChipDb@Trellis@@@?$vector@UWireData@DDChipDb@Trellis@@V?$allocator@UWireData@DDChipDb@Trellis@@@std@@@std@@AEAAPEAUWireData@DDChipDb@Trellis@@QEAU234@AEBU234@@Z
	??$_Emplace_reallocate@AEBUlayer@?$standard_callbacks@V?$basic_ptree@V?$basic_string@DU?$char_traits@D@std@@V?$allocator@D@2@@std@@V12@U?$less@V?$basic_string@DU?$char_traits@D@std@@V?$allocator@D@2@@std@@@2@@property_tree@boost@@@detail@json_parser@property_tree@boost@@@?$vector@Ulayer@?$standard_callbacks@V?$basic_ptree@V?$basic_string@DU?$char_traits@D@std@@V?$allocator@D@2@@std@@V12@U?$less@V?$basic_string@DU?$char_traits@D@std@@V?$allocator@D@2@@std@@@2@@property_tree@boost@@@detail@json_parser@property_tree@boost@@V?$allocator@Ulayer@?$standard_callbacks@V?$basic_ptree@V?$basic_string@DU?$char_traits@D@std@@V?$allocator@D@2@@std@@V12@U?$less@V?$basic_string@DU?$char_traits@D@std@@V?$allocator@D@2@@std@@@2@@property_tree@boost@@@detail@json_parser@property_tree@boost@@@std@@@std@@AEAAPEAUlayer@?$standard_callbacks@V?$basic_ptree@V?$basic_string@DU?$char_traits@D@std@@V?$allocator@D@2@@std@@V12@U?$less@V?$basic_string@DU?$char_traits@D@std@@V?$allocator@D@2@@std@@@2@@property_tree@boost@@@detail@json_parser@property_tree@boost@@QEAU234567@AEBU234567@@Z
	??$_Emplace_reallocate@AEBV?$_Tgt_state_t@V?$_String_const_iterator@V?$_String_val@U?$_Simple_types@D@std@@@std@@@std@@@std@@@?$vector@V?$_Tgt_state_t@V?$_String_const_iterator@V?$_String_val@U?$_Simple_types@D@std@@@std@@@std@@@std@@V?$allocator@V?$_Tgt_state_t@V?$_String_const_iterator@V?$_String_val@U?$_Simple_types@D@std@@@std@@@std@@@std@@@2@@std@@AEAAPEAV?$_Tgt_state_t@V?$_String_const_iterator@V?$_String_val@U?$_Simple_types@D@std@@@std@@@std@@@1@QEAV21@AEBV21@@Z
	??$_Emplace_reallocate@AEBV?$basic_string@DU?$char_traits@D@std@@V?$allocator@D@2@@std@@@?$vector@V?$basic_string@DU?$char_traits@D@std@@V?$allocator@D@2@@std@@V?$allocator@V?$basic_string@DU?$char_traits@D@std@@V?$allocator@D@2@@std@@@2@@std@@AEAAPEAV?$basic_string@DU?$char_traits@D@std@@V?$allocator@D@2@@1@QEAV21@AEBV21@@Z
	??$_Emplace_reallocate@AEBV?$shared_ptr@VTile@Trellis@@@std@@@?$vector@V?$shared_ptr@VTile@Trellis@@@std@@V?$allocator@V?$shared_ptr@VTile@Trellis@@@std@@@2@@std@@AEAAPEAV?$shared_ptr@VTile@Trellis@@@1@QEAV21@AEBV21@@Z
	??$_Emplace_reallocate@AEBV?$vector@HV?$allocator@H@std@@@std@@@?$vector@V?$vector@HV?$allocator@H@std@@@std@@V?$allocator@V?$vector@HV?$allocator@H@std@@@std@@@2@@std@@AEAAPEAV?$vector@HV?$allocator@H@std@@@1@QEAV21@AEBV21@@Z
	??$_Emplace_reallocate@E@?$vector@EV?$allocator@E@std@@@std@@AEAAPEAEQEAE$$QEAE@Z
	??$_Emplace_reallocate@H@?$vector@HV?$allocator@H@std@@@std@@AEAAPEAHQEAH$$QEAH@Z
	??$_Emplace_reallocate@I@?$vector@IV?$allocator@I@std@@@std@@AEAAPEAIQEAI$$QEAI@Z
	??$_Emplace_reallocate@U?$pair@HE@std@@@?$vector@U?$pair@HE@std@@V?$allocator@U?$pair@HE@std@@@2@@std@@AEAAPEAU?$pair@HE@1@QEAU21@$$QEAU21@@Z
	??$_Emplace_reallocate@U?$pair@URoutingId@Trellis@@H@std@@@?$vector@U?$pair@URoutingId@Trellis@@H@std@@V?$allocator@U?$pair@URoutingId@Trellis@@H@std@@@2@@std@@AEAAPEAU?$pair@URoutingId@Trellis@@H@1@QEAU21@$$QEAU21@@Z
	??$_Emplace_reallocate@U?$pair@V?$basic_string@DU?$char_traits@D@std@@V?$allocator@D@2@@std@@V12@@std@@@?$vector@U?$pair@V?$basic_string@DU?$char_traits@D@std@@V?$allocator@D@2@@std@@V12@@std@@V?$allocator@U?$pair@V?$basic_string@DU?$char_traits@D@std@@V?$allocator@D@2@@std@@V12@@std@@@2@@std@@AEAAPEAU?$pair@V?$basic_string@DU?$char_traits@D@std@@V?$allocator@D@2@@std@@V12@@1@QEAU21@$$QEAU21@@Z
	??$_Emplace_reallocate@U?$pair@V?$basic_string@DU?$char_traits@D@std@@V?$allocator@D@2@@std@@_N@std@@@?$vector@U?$pair@V?$basic_string@DU?$char_traits@D@std@@V?$allocator@D@2@@std@@_N@std@@V?$allocator@U?$pair@V?$basic_string@DU?$char_traits@D@std@@V?$allocator@D@2@@std@@_N@std@@@2@@std@@AEAAPEAU?$pair@V?$basic_string@DU?$char_traits@D@std@@V?$allocator@D@2@@std@@_N@1@QEAU21@$$QEAU21@@Z
	??$_Emplace_reallocate@UChangedBit@Trellis@@@?$vector@UChangedBit@Trellis@@V?$allocator@UChangedBit@Trellis@@@std@@@std@@AEAAPEAUChangedBit@Trellis@@QEAU23@$$QEAU23@@Z
	??$_Emplace_reallocate@UConfigArc@Trellis@@@?$vector@UConfigArc@Trellis@@V?$allocator@UConfigArc@Trellis@@@std@@@std@@AEAAPEAUConfigArc@Trellis@@QEAU23@$$QEAU23@@Z
	??$_Emplace_reallocate@UConfigEnum@Trellis@@@?$vector@UConfigEnum@Trellis@@V?$allocator@UConfigEnum@Trellis@@@std@@@std@@AEAAPEAUConfigEnum@Trellis@@QEAU23@$$QEAU23@@Z
	??$_Emplace_reallocate@UConfigUnknown@Trellis@@@?$vector@UConfigUnknown@Trellis@@V?$allocator@UConfigUnknown@Trellis@@@std@@@std@@AEAAPEAUConfigUnknown@Trellis@@QEAU23@$$QEAU23@@Z
	??$_Emplace_reallocate@UConfigWord@Trellis@@@?$vector@UConfigWord@Trellis@@V?$allocator@UConfigWord@Trellis@@@std@@@std@@AEAAPEAUConfigWord@Trellis@@QEAU23@$$QEAU23@@Z
	??$_Eqrange@V?$basic_string@DU?$char_traits@D@std@@V?$allocator@D@2@@std@@@?$_Tree@V?$_Tmap_traits@V?$basic_string@DU?$char_traits@D@std@@V?$allocator@D@2@@std@@UEnumSettingBits@Trellis@@U?$less@V?$basic_string@DU?$char_traits@D@std@@V?$allocator@D@2@@std@@@2@V?$allocator@U?$pair@$$CBV?$basic_string@DU?$char_traits@D@std@@V?$allocator@D@2@@std@@UEnumSettingBits@Trellis@@@std@@@2@$0A@@std@@@std@@IEBA?AU?$pair@PEAU?$_Tree_node@U?$pair@$$CBV?$basic_string@DU?$char_traits@D@std@@V?$allocator@D@2@@std@@UEnumSettingBits@Trellis@@@std@@PEAX@std@@PEAU12@@1@AEBV?$basic_string@DU?$char_traits@D@std@@V?$allocator@D@2@@1@@Z
	??$_Eqrange@V?$basic_string@DU?$char_traits@D@std@@V?$allocator@D@2@@std@@@?$_Tree@V?$_Tmap_traits@V?$basic_string@DU?$char_traits@D@std@@V?$allocator@D@2@@std@@UWordSettingBits@Trellis@@U?$less@V?$basic_string@DU?$char_traits@D@std@@V?$allocator@D@2@@std@@@2@V?$allocator@U?$pair@$$CBV?$basic_string@DU?$char_traits@D@std@@V?$allocator@D@2@@std@@UWordSettingBits@Trellis@@@std@@@2@$0A@@std@@@std@@IEBA?AU?$pair@PEAU?$_Tree_node@U?$pair@$$CBV?$basic_string@DU?$char_traits@D@std@@V?$allocator@D@2@@std@@UWordSettingBits@Trellis@@@std@@PEAX@std@@PEAU12@@1@AEBV?$basic_string@DU?$char_traits@D@std@@V?$allocator@D@2@@1@@Z
	??$_Eqrange@V?$basic_string@DU?$char_traits@D@std@@V?$allocator@D@2@@std@@@?$_Tree@V?$_Tmap_traits@V?$basic_string@DU?$char_traits@D@std@@V?$allocator@D@2@@std@@V?$set@UFixedConnection@Trellis@@U?$less@UFixedConnection@Trellis@@@std@@V?$allocator@UFixedConnection@Trellis@@@4@@2@U?$less@V?$basic_string@DU?$char_traits@D@std@@V?$allocator@D@2@@std@@@2@V?$allocator@U?$pair@$$CBV?$basic_string@DU?$char_traits@D@std@@V?$allocator@D@2@@std@@V?$set@UFixedConnection@Trellis@@U?$less@UFixedConnection@Trellis@@@std@@V?$allocator@UFixedConnection@Trellis@@@4@@2@@std@@@2@$0A@@std@@@std@@IEBA?AU?$pair@PEAU?$_Tree_node@U?$pair@$$CBV?$basic_string@DU?$char_traits@D@std@@V?$allocator@D@2@@std@@V?$set@UFixedConnection@Trellis@@U?$less@UFixedConnection@Trellis@@@std@@V?$allocator@UFixedConnection@Trellis@@@4@@2@@std@@PEAX@std@@PEAU12@@1@AEBV?$basic_string@DU?$char_traits@D@std@@V?$allocator@D@2@@1@@Z
	??$_Equal_rev_pred_unchecked@PEAEPEBEU?$equal_to@X@std@@@std@@YA_NPEAEPEBEQEBEU?$equal_to@X@0@@Z
	??$_Equal_rev_pred_unchecked@PEBDPEBDU?$_Cmp_icase_translateleft@V?$regex_traits@D@std@@@std@@@std@@YA_NPEBD0QEBDU?$_Cmp_icase_translateleft@V?$regex_traits@D@std@@@0@@Z
	??$_Equal_rev_pred_unchecked@PEBDPEBDU?$equal_to@D@std@@@std@@YA_NPEBD0QEBDU?$equal_to@D@0@@Z
	??$_Erase_head@V?$allocator@U?$_Tree_node@U?$pair@$$CBGV?$vector@GV?$allocator@G@std@@@std@@@std@@PEAX@std@@@std@@@?$_Tree_val@U?$_Tree_simple_types@U?$pair@$$CBGV?$vector@GV?$allocator@G@std@@@std@@@std@@@std@@@std@@QEAAXAEAV?$allocator@U?$_Tree_node@U?$pair@$$CBGV?$vector@GV?$allocator@G@std@@@std@@@std@@PEAX@std@@@1@@Z
	??$_Erase_head@V?$allocator@U?$_Tree_node@U?$pair@$$CBHU?$pair@URoutingId@Trellis@@W4PortDirection@2@@std@@@std@@PEAX@std@@@std@@@?$_Tree_val@U?$_Tree_simple_types@U?$pair@$$CBHU?$pair@URoutingId@Trellis@@W4PortDirection@2@@std@@@std@@@std@@@std@@QEAAXAEAV?$allocator@U?$_Tree_node@U?$pair@$$CBHU?$pair@URoutingId@Trellis@@W4PortDirection@2@@std@@@std@@PEAX@std@@@1@@Z
	??$_Erase_head@V?$allocator@U?$_Tree_node@U?$pair@$$CBHURoutingArc@Trellis@@@std@@PEAX@std@@@std@@@?$_Tree_val@U?$_Tree_simple_types@U?$pair@$$CBHURoutingArc@Trellis@@@std@@@std@@@std@@QEAAXAEAV?$allocator@U?$_Tree_node@U?$pair@$$CBHURoutingArc@Trellis@@@std@@PEAX@std@@@1@@Z
	??$_Erase_head@V?$allocator@U?$_Tree_node@U?$pair@$$CBHURoutingBel@Trellis@@@std@@PEAX@std@@@std@@@?$_Tree_val@U?$_Tree_simple_types@U?$pair@$$CBHURoutingBel@Trellis@@@std@@@std@@@std@@QEAAXAEAV?$allocator@U?$_Tree_node@U?$pair@$$CBHURoutingBel@Trellis@@@std@@PEAX@std@@@1@@Z
	??$_Erase_head@V?$allocator@U?$_Tree_node@U?$pair@$$CBHURoutingWire@Trellis@@@std@@PEAX@std@@@std@@@?$_Tree_val@U?$_Tree_simple_types@U?$pair@$$CBHURoutingWire@Trellis@@@std@@@std@@@std@@QEAAXAEAV?$allocator@U?$_Tree_node@U?$pair@$$CBHURoutingWire@Trellis@@@std@@PEAX@std@@@1@@Z
	??$_Erase_head@V?$allocator@U?$_Tree_node@U?$pair@$$CBII@std@@PEAX@std@@@std@@@?$_Tree_val@U?$_Tree_simple_types@U?$pair@$$CBII@std@@@std@@@std@@QEAAXAEAV?$allocator@U?$_Tree_node@U?$pair@$$CBII@std@@PEAX@std@@@1@@Z
	??$_Erase_head@V?$allocator@U?$_Tree_node@U?$pair@$$CBU?$pair@HH@std@@H@std@@PEAX@std@@@std@@@?$_Tree_val@U?$_Tree_simple_types@U?$pair@$$CBU?$pair@HH@std@@H@std@@@std@@@std@@QEAAXAEAV?$allocator@U?$_Tree_node@U?$pair@$$CBU?$pair@HH@std@@H@std@@PEAX@std@@@1@@Z
	??$_Erase_head@V?$allocator@U?$_Tree_node@U?$pair@$$CBU?$pair@HH@std@@U12@@std@@PEAX@std@@@std@@@?$_Tree_val@U?$_Tree_simple_types@U?$pair@$$CBU?$pair@HH@std@@U12@@std@@@std@@@std@@QEAAXAEAV?$allocator@U?$_Tree_node@U?$pair@$$CBU?$pair@HH@std@@U12@@std@@PEAX@std@@@1@@Z
	??$_Erase_head@V?$allocator@U?$_Tree_node@U?$pair@$$CBU?$pair@HH@std@@V?$vector@USpineInfo@Trellis@@V?$allocator@USpineInfo@Trellis@@@std@@@2@@std@@PEAX@std@@@std@@@?$_Tree_val@U?$_Tree_simple_types@U?$pair@$$CBU?$pair@HH@std@@V?$vector@USpineInfo@Trellis@@V?$allocator@USpineInfo@Trellis@@@std@@@2@@std@@@std@@@std@@QEAAXAEAV?$allocator@U?$_Tree_node@U?$pair@$$CBU?$pair@HH@std@@V?$vector@USpineInfo@Trellis@@V?$allocator@USpineInfo@Trellis@@@std@@@2@@std@@PEAX@std@@@1@@Z
	??$_Erase_head@V?$allocator@U?$_Tree_node@U?$pair@$$CBU?$pair@_K_K@std@@ULocationData@DDChipDb@Trellis@@@std@@PEAX@std@@@std@@@?$_Tree_val@U?$_Tree_simple_types@U?$pair@$$CBU?$pair@_K_K@std@@ULocationData@DDChipDb@Trellis@@@std@@@std@@@std@@QEAAXAEAV?$allocator@U?$_Tree_node@U?$pair@$$CBU?$pair@_K_K@std@@ULocationData@DDChipDb@Trellis@@@std@@PEAX@std@@@1@@Z
	??$_Erase_head@V?$allocator@U?$_Tree_node@U?$pair@$$CBULocation@Trellis@@U?$pair@_K_K@std@@@std@@PEAX@std@@@std@@@?$_Tree_val@U?$_Tree_simple_types@U?$pair@$$CBULocation@Trellis@@U?$pair@_K_K@std@@@std@@@std@@@std@@QEAAXAEAV?$allocator@U?$_Tree_node@U?$pair@$$CBULocation@Trellis@@U?$pair@_K_K@std@@@std@@PEAX@std@@@1@@Z
	??$_Erase_head@V?$allocator@U?$_Tree_node@U?$pair@$$CBULocation@Trellis@@ULocationData@DDChipDb@2@@std@@PEAX@std@@@std@@@?$_Tree_val@U?$_Tree_simple_types@U?$pair@$$CBULocation@Trellis@@ULocationData@DDChipDb@2@@std@@@std@@@std@@QEAAXAEAV?$allocator@U?$_Tree_node@U?$pair@$$CBULocation@Trellis@@ULocationData@DDChipDb@2@@std@@PEAX@std@@@1@@Z
	??$_Erase_head@V?$allocator@U?$_Tree_node@U?$pair@$$CBULocation@Trellis@@URoutingTileLoc@2@@std@@PEAX@std@@@std@@@?$_Tree_val@U?$_Tree_simple_types@U?$pair@$$CBULocation@Trellis@@URoutingTileLoc@2@@std@@@std@@@std@@QEAAXAEAV?$allocator@U?$_Tree_node@U?$pair@$$CBULocation@Trellis@@URoutingTileLoc@2@@std@@PEAX@std@@@1@@Z
	??$_Erase_head@V?$allocator@U?$_Tree_node@U?$pair@$$CBV?$basic_string@DU?$char_traits@D@std@@V?$allocator@D@2@@std@@UArcData@Trellis@@@std@@PEAX@std@@@std@@@?$_Tree_val@U?$_Tree_simple_types@U?$pair@$$CBV?$basic_string@DU?$char_traits@D@std@@V?$allocator@D@2@@std@@UArcData@Trellis@@@std@@@std@@@std@@QEAAXAEAV?$allocator@U?$_Tree_node@U?$pair@$$CBV?$basic_string@DU?$char_traits@D@std@@V?$allocator@D@2@@std@@UArcData@Trellis@@@std@@PEAX@std@@@1@@Z
	??$_Erase_head@V?$allocator@U?$_Tree_node@U?$pair@$$CBV?$basic_string@DU?$char_traits@D@std@@V?$allocator@D@2@@std@@UBitGroup@Trellis@@@std@@PEAX@std@@@std@@@?$_Tree_val@U?$_Tree_simple_types@U?$pair@$$CBV?$basic_string@DU?$char_traits@D@std@@V?$allocator@D@2@@std@@UBitGroup@Trellis@@@std@@@std@@@std@@QEAAXAEAV?$allocator@U?$_Tree_node@U?$pair@$$CBV?$basic_string@DU?$char_traits@D@std@@V?$allocator@D@2@@std@@UBitGroup@Trellis@@@std@@PEAX@std@@@1@@Z
	??$_Erase_head@V?$allocator@U?$_Tree_node@U?$pair@$$CBV?$basic_string@DU?$char_traits@D@std@@V?$allocator@D@2@@std@@UEnumSettingBits@Trellis@@@std@@PEAX@std@@@std@@@?$_Tree_val@U?$_Tree_simple_types@U?$pair@$$CBV?$basic_string@DU?$char_traits@D@std@@V?$allocator@D@2@@std@@UEnumSettingBits@Trellis@@@std@@@std@@@std@@QEAAXAEAV?$allocator@U?$_Tree_node@U?$pair@$$CBV?$basic_string@DU?$char_traits@D@std@@V?$allocator@D@2@@std@@UEnumSettingBits@Trellis@@@std@@PEAX@std@@@1@@Z
	??$_Erase_head@V?$allocator@U?$_Tree_node@U?$pair@$$CBV?$basic_string@DU?$char_traits@D@std@@V?$allocator@D@2@@std@@UMuxBits@Trellis@@@std@@PEAX@std@@@std@@@?$_Tree_val@U?$_Tree_simple_types@U?$pair@$$CBV?$basic_string@DU?$char_traits@D@std@@V?$allocator@D@2@@std@@UMuxBits@Trellis@@@std@@@std@@@std@@QEAAXAEAV?$allocator@U?$_Tree_node@U?$pair@$$CBV?$basic_string@DU?$char_traits@D@std@@V?$allocator@D@2@@std@@UMuxBits@Trellis@@@std@@PEAX@std@@@1@@Z
	??$_Erase_head@V?$allocator@U?$_Tree_node@U?$pair@$$CBV?$basic_string@DU?$char_traits@D@std@@V?$allocator@D@2@@std@@UTileConfig@Trellis@@@std@@PEAX@std@@@std@@@?$_Tree_val@U?$_Tree_simple_types@U?$pair@$$CBV?$basic_string@DU?$char_traits@D@std@@V?$allocator@D@2@@std@@UTileConfig@Trellis@@@std@@@std@@@std@@QEAAXAEAV?$allocator@U?$_Tree_node@U?$pair@$$CBV?$basic_string@DU?$char_traits@D@std@@V?$allocator@D@2@@std@@UTileConfig@Trellis@@@std@@PEAX@std@@@1@@Z
	??$_Erase_head@V?$allocator@U?$_Tree_node@U?$pair@$$CBV?$basic_string@DU?$char_traits@D@std@@V?$allocator@D@2@@std@@UWordSettingBits@Trellis@@@std@@PEAX@std@@@std@@@?$_Tree_val@U?$_Tree_simple_types@U?$pair@$$CBV?$basic_string@DU?$char_traits@D@std@@V?$allocator@D@2@@std@@UWordSettingBits@Trellis@@@std@@@std@@@std@@QEAAXAEAV?$allocator@U?$_Tree_node@U?$pair@$$CBV?$basic_string@DU?$char_traits@D@std@@V?$allocator@D@2@@std@@UWordSettingBits@Trellis@@@std@@PEAX@std@@@1@@Z
	??$_Erase_head@V?$allocator@U?$_Tree_node@U?$pair@$$CBV?$basic_string@DU?$char_traits@D@std@@V?$allocator@D@2@@std@@V12@@std@@PEAX@std@@@std@@@?$_Tree_val@U?$_Tree_simple_types@U?$pair@$$CBV?$basic_string@DU?$char_traits@D@std@@V?$allocator@D@2@@std@@V12@@std@@@std@@@std@@QEAAXAEAV?$allocator@U?$_Tree_node@U?$pair@$$CBV?$basic_string@DU?$char_traits@D@std@@V?$allocator@D@2@@std@@V12@@std@@PEAX@std@@@1@@Z
	??$_Erase_head@V?$allocator@U?$_Tree_node@U?$pair@$$CBV?$basic_string@DU?$char_traits@D@std@@V?$allocator@D@2@@std@@V?$basic_ptree@V?$basic_string@DU?$char_traits@D@std@@V?$allocator@D@2@@std@@V12@U?$less@V?$basic_string@DU?$char_traits@D@std@@V?$allocator@D@2@@std@@@2@@property_tree@boost@@@std@@PEAX@std@@@std@@@?$_Tree_val@U?$_Tree_simple_types@U?$pair@$$CBV?$basic_string@DU?$char_traits@D@std@@V?$allocator@D@2@@std@@V?$basic_ptree@V?$basic_string@DU?$char_traits@D@std@@V?$allocator@D@2@@std@@V12@U?$less@V?$basic_string@DU?$char_traits@D@std@@V?$allocator@D@2@@std@@@2@@property_tree@boost@@@std@@@std@@@std@@QEAAXAEAV?$allocator@U?$_Tree_node@U?$pair@$$CBV?$basic_string@DU?$char_traits@D@std@@V?$allocator@D@2@@std@@V?$basic_ptree@V?$basic_string@DU?$char_traits@D@std@@V?$allocator@D@2@@std@@V12@U?$less@V?$basic_string@DU?$char_traits@D@std@@V?$allocator@D@2@@std@@@2@@property_tree@boost@@@std@@PEAX@std@@@1@@Z
	??$_Erase_head@V?$allocator@U?$_Tree_node@U?$pair@$$CBV?$basic_string@DU?$char_traits@D@std@@V?$allocator@D@2@@std@@V?$set@UFixedConnection@Trellis@@U?$less@UFixedConnection@Trellis@@@std@@V?$allocator@UFixedConnection@Trellis@@@4@@2@@std@@PEAX@std@@@std@@@?$_Tree_val@U?$_Tree_simple_types@U?$pair@$$CBV?$basic_string@DU?$char_traits@D@std@@V?$allocator@D@2@@std@@V?$set@UFixedConnection@Trellis@@U?$less@UFixedConnection@Trellis@@@std@@V?$allocator@UFixedConnection@Trellis@@@4@@2@@std@@@std@@@std@@QEAAXAEAV?$allocator@U?$_Tree_node@U?$pair@$$CBV?$basic_string@DU?$char_traits@D@std@@V?$allocator@D@2@@std@@V?$set@UFixedConnection@Trellis@@U?$less@UFixedConnection@Trellis@@@std@@V?$allocator@UFixedConnection@Trellis@@@4@@2@@std@@PEAX@std@@@1@@Z
	??$_Erase_head@V?$allocator@U?$_Tree_node@U?$pair@$$CBV?$basic_string@DU?$char_traits@D@std@@V?$allocator@D@2@@std@@V?$shared_ptr@VTile@Trellis@@@2@@std@@PEAX@std@@@std@@@?$_Tree_val@U?$_Tree_simple_types@U?$pair@$$CBV?$basic_string@DU?$char_traits@D@std@@V?$allocator@D@2@@std@@V?$shared_ptr@VTile@Trellis@@@2@@std@@@std@@@std@@QEAAXAEAV?$allocator@U?$_Tree_node@U?$pair@$$CBV?$basic_string@DU?$char_traits@D@std@@V?$allocator@D@2@@std@@V?$shared_ptr@VTile@Trellis@@@2@@std@@PEAX@std@@@1@@Z
	??$_Erase_head@V?$allocator@U?$_Tree_node@U?$pair@$$CBV?$basic_string@DU?$char_traits@D@std@@V?$allocator@D@2@@std@@V?$vector@UChangedBit@Trellis@@V?$allocator@UChangedBit@Trellis@@@std@@@2@@std@@PEAX@std@@@std@@@?$_Tree_val@U?$_Tree_simple_types@U?$pair@$$CBV?$basic_string@DU?$char_traits@D@std@@V?$allocator@D@2@@std@@V?$vector@UChangedBit@Trellis@@V?$allocator@UChangedBit@Trellis@@@std@@@2@@std@@@std@@@std@@QEAAXAEAV?$allocator@U?$_Tree_node@U?$pair@$$CBV?$basic_string@DU?$char_traits@D@std@@V?$allocator@D@2@@std@@V?$vector@UChangedBit@Trellis@@V?$allocator@UChangedBit@Trellis@@@std@@@2@@std@@PEAX@std@@@1@@Z
	??$_Erase_head@V?$allocator@U?$_Tree_node@UConfigBit@Trellis@@PEAX@std@@@std@@@?$_Tree_val@U?$_Tree_simple_types@UConfigBit@Trellis@@@std@@@std@@QEAAXAEAV?$allocator@U?$_Tree_node@UConfigBit@Trellis@@PEAX@std@@@1@@Z
	??$_Erase_head@V?$allocator@U?$_Tree_node@UFixedConnection@Trellis@@PEAX@std@@@std@@@?$_Tree_val@U?$_Tree_simple_types@UFixedConnection@Trellis@@@std@@@std@@QEAAXAEAV?$allocator@U?$_Tree_node@UFixedConnection@Trellis@@PEAX@std@@@1@@Z
	??$_Erase_head@V?$allocator@U?$_Tree_node@URelId@DDChipDb@Trellis@@PEAX@std@@@std@@@?$_Tree_val@U?$_Tree_simple_types@URelId@DDChipDb@Trellis@@@std@@@std@@QEAAXAEAV?$allocator@U?$_Tree_node@URelId@DDChipDb@Trellis@@PEAX@std@@@1@@Z
	??$_Erase_head@V?$allocator@U?$_Tree_node@V?$basic_string@DU?$char_traits@D@std@@V?$allocator@D@2@@std@@PEAX@std@@@std@@@?$_Tree_val@U?$_Tree_simple_types@V?$basic_string@DU?$char_traits@D@std@@V?$allocator@D@2@@std@@@std@@@std@@QEAAXAEAV?$allocator@U?$_Tree_node@V?$basic_string@DU?$char_traits@D@std@@V?$allocator@D@2@@std@@PEAX@std@@@1@@Z
	??$_Erase_tree@V?$allocator@U?$_Tree_node@U?$pair@$$CBGV?$vector@GV?$allocator@G@std@@@std@@@std@@PEAX@std@@@std@@@?$_Tree_val@U?$_Tree_simple_types@U?$pair@$$CBGV?$vector@GV?$allocator@G@std@@@std@@@std@@@std@@@std@@QEAAXAEAV?$allocator@U?$_Tree_node@U?$pair@$$CBGV?$vector@GV?$allocator@G@std@@@std@@@std@@PEAX@std@@@1@PEAU?$_Tree_node@U?$pair@$$CBGV?$vector@GV?$allocator@G@std@@@std@@@std@@PEAX@1@@Z
	??$_Erase_tree@V?$allocator@U?$_Tree_node@U?$pair@$$CBHU?$pair@URoutingId@Trellis@@W4PortDirection@2@@std@@@std@@PEAX@std@@@std@@@?$_Tree_val@U?$_Tree_simple_types@U?$pair@$$CBHU?$pair@URoutingId@Trellis@@W4PortDirection@2@@std@@@std@@@std@@@std@@QEAAXAEAV?$allocator@U?$_Tree_node@U?$pair@$$CBHU?$pair@URoutingId@Trellis@@W4PortDirection@2@@std@@@std@@PEAX@std@@@1@PEAU?$_Tree_node@U?$pair@$$CBHU?$pair@URoutingId@Trellis@@W4PortDirection@2@@std@@@std@@PEAX@1@@Z
	??$_Erase_tree@V?$allocator@U?$_Tree_node@U?$pair@$$CBHURoutingArc@Trellis@@@std@@PEAX@std@@@std@@@?$_Tree_val@U?$_Tree_simple_types@U?$pair@$$CBHURoutingArc@Trellis@@@std@@@std@@@std@@QEAAXAEAV?$allocator@U?$_Tree_node@U?$pair@$$CBHURoutingArc@Trellis@@@std@@PEAX@std@@@1@PEAU?$_Tree_node@U?$pair@$$CBHURoutingArc@Trellis@@@std@@PEAX@1@@Z
	??$_Erase_tree@V?$allocator@U?$_Tree_node@U?$pair@$$CBHURoutingBel@Trellis@@@std@@PEAX@std@@@std@@@?$_Tree_val@U?$_Tree_simple_types@U?$pair@$$CBHURoutingBel@Trellis@@@std@@@std@@@std@@QEAAXAEAV?$allocator@U?$_Tree_node@U?$pair@$$CBHURoutingBel@Trellis@@@std@@PEAX@std@@@1@PEAU?$_Tree_node@U?$pair@$$CBHURoutingBel@Trellis@@@std@@PEAX@1@@Z
	??$_Erase_tree@V?$allocator@U?$_Tree_node@U?$pair@$$CBHURoutingWire@Trellis@@@std@@PEAX@std@@@std@@@?$_Tree_val@U?$_Tree_simple_types@U?$pair@$$CBHURoutingWire@Trellis@@@std@@@std@@@std@@QEAAXAEAV?$allocator@U?$_Tree_node@U?$pair@$$CBHURoutingWire@Trellis@@@std@@PEAX@std@@@1@PEAU?$_Tree_node@U?$pair@$$CBHURoutingWire@Trellis@@@std@@PEAX@1@@Z
	??$_Erase_tree@V?$allocator@U?$_Tree_node@U?$pair@$$CBII@std@@PEAX@std@@@std@@@?$_Tree_val@U?$_Tree_simple_types@U?$pair@$$CBII@std@@@std@@@std@@QEAAXAEAV?$allocator@U?$_Tree_node@U?$pair@$$CBII@std@@PEAX@std@@@1@PEAU?$_Tree_node@U?$pair@$$CBII@std@@PEAX@1@@Z
	??$_Erase_tree@V?$allocator@U?$_Tree_node@U?$pair@$$CBU?$pair@HH@std@@H@std@@PEAX@std@@@std@@@?$_Tree_val@U?$_Tree_simple_types@U?$pair@$$CBU?$pair@HH@std@@H@std@@@std@@@std@@QEAAXAEAV?$allocator@U?$_Tree_node@U?$pair@$$CBU?$pair@HH@std@@H@std@@PEAX@std@@@1@PEAU?$_Tree_node@U?$pair@$$CBU?$pair@HH@std@@H@std@@PEAX@1@@Z
	??$_Erase_tree@V?$allocator@U?$_Tree_node@U?$pair@$$CBU?$pair@HH@std@@U12@@std@@PEAX@std@@@std@@@?$_Tree_val@U?$_Tree_simple_types@U?$pair@$$CBU?$pair@HH@std@@U12@@std@@@std@@@std@@QEAAXAEAV?$allocator@U?$_Tree_node@U?$pair@$$CBU?$pair@HH@std@@U12@@std@@PEAX@std@@@1@PEAU?$_Tree_node@U?$pair@$$CBU?$pair@HH@std@@U12@@std@@PEAX@1@@Z
	??$_Erase_tree@V?$allocator@U?$_Tree_node@U?$pair@$$CBU?$pair@HH@std@@V?$vector@USpineInfo@Trellis@@V?$allocator@USpineInfo@Trellis@@@std@@@2@@std@@PEAX@std@@@std@@@?$_Tree_val@U?$_Tree_simple_types@U?$pair@$$CBU?$pair@HH@std@@V?$vector@USpineInfo@Trellis@@V?$allocator@USpineInfo@Trellis@@@std@@@2@@std@@@std@@@std@@QEAAXAEAV?$allocator@U?$_Tree_node@U?$pair@$$CBU?$pair@HH@std@@V?$vector@USpineInfo@Trellis@@V?$allocator@USpineInfo@Trellis@@@std@@@2@@std@@PEAX@std@@@1@PEAU?$_Tree_node@U?$pair@$$CBU?$pair@HH@std@@V?$vector@USpineInfo@Trellis@@V?$allocator@USpineInfo@Trellis@@@std@@@2@@std@@PEAX@1@@Z
	??$_Erase_tree@V?$allocator@U?$_Tree_node@U?$pair@$$CBU?$pair@_K_K@std@@ULocationData@DDChipDb@Trellis@@@std@@PEAX@std@@@std@@@?$_Tree_val@U?$_Tree_simple_types@U?$pair@$$CBU?$pair@_K_K@std@@ULocationData@DDChipDb@Trellis@@@std@@@std@@@std@@QEAAXAEAV?$allocator@U?$_Tree_node@U?$pair@$$CBU?$pair@_K_K@std@@ULocationData@DDChipDb@Trellis@@@std@@PEAX@std@@@1@PEAU?$_Tree_node@U?$pair@$$CBU?$pair@_K_K@std@@ULocationData@DDChipDb@Trellis@@@std@@PEAX@1@@Z
	??$_Erase_tree@V?$allocator@U?$_Tree_node@U?$pair@$$CBULocation@Trellis@@U?$pair@_K_K@std@@@std@@PEAX@std@@@std@@@?$_Tree_val@U?$_Tree_simple_types@U?$pair@$$CBULocation@Trellis@@U?$pair@_K_K@std@@@std@@@std@@@std@@QEAAXAEAV?$allocator@U?$_Tree_node@U?$pair@$$CBULocation@Trellis@@U?$pair@_K_K@std@@@std@@PEAX@std@@@1@PEAU?$_Tree_node@U?$pair@$$CBULocation@Trellis@@U?$pair@_K_K@std@@@std@@PEAX@1@@Z
	??$_Erase_tree@V?$allocator@U?$_Tree_node@U?$pair@$$CBULocation@Trellis@@ULocationData@DDChipDb@2@@std@@PEAX@std@@@std@@@?$_Tree_val@U?$_Tree_simple_types@U?$pair@$$CBULocation@Trellis@@ULocationData@DDChipDb@2@@std@@@std@@@std@@QEAAXAEAV?$allocator@U?$_Tree_node@U?$pair@$$CBULocation@Trellis@@ULocationData@DDChipDb@2@@std@@PEAX@std@@@1@PEAU?$_Tree_node@U?$pair@$$CBULocation@Trellis@@ULocationData@DDChipDb@2@@std@@PEAX@1@@Z
	??$_Erase_tree@V?$allocator@U?$_Tree_node@U?$pair@$$CBULocation@Trellis@@URoutingTileLoc@2@@std@@PEAX@std@@@std@@@?$_Tree_val@U?$_Tree_simple_types@U?$pair@$$CBULocation@Trellis@@URoutingTileLoc@2@@std@@@std@@@std@@QEAAXAEAV?$allocator@U?$_Tree_node@U?$pair@$$CBULocation@Trellis@@URoutingTileLoc@2@@std@@PEAX@std@@@1@PEAU?$_Tree_node@U?$pair@$$CBULocation@Trellis@@URoutingTileLoc@2@@std@@PEAX@1@@Z
	??$_Erase_tree@V?$allocator@U?$_Tree_node@U?$pair@$$CBV?$basic_string@DU?$char_traits@D@std@@V?$allocator@D@2@@std@@UArcData@Trellis@@@std@@PEAX@std@@@std@@@?$_Tree_val@U?$_Tree_simple_types@U?$pair@$$CBV?$basic_string@DU?$char_traits@D@std@@V?$allocator@D@2@@std@@UArcData@Trellis@@@std@@@std@@@std@@QEAAXAEAV?$allocator@U?$_Tree_node@U?$pair@$$CBV?$basic_string@DU?$char_traits@D@std@@V?$allocator@D@2@@std@@UArcData@Trellis@@@std@@PEAX@std@@@1@PEAU?$_Tree_node@U?$pair@$$CBV?$basic_string@DU?$char_traits@D@std@@V?$allocator@D@2@@std@@UArcData@Trellis@@@std@@PEAX@1@@Z
	??$_Erase_tree@V?$allocator@U?$_Tree_node@U?$pair@$$CBV?$basic_string@DU?$char_traits@D@std@@V?$allocator@D@2@@std@@UBitGroup@Trellis@@@std@@PEAX@std@@@std@@@?$_Tree_val@U?$_Tree_simple_types@U?$pair@$$CBV?$basic_string@DU?$char_traits@D@std@@V?$allocator@D@2@@std@@UBitGroup@Trellis@@@std@@@std@@@std@@QEAAXAEAV?$allocator@U?$_Tree_node@U?$pair@$$CBV?$basic_string@DU?$char_traits@D@std@@V?$allocator@D@2@@std@@UBitGroup@Trellis@@@std@@PEAX@std@@@1@PEAU?$_Tree_node@U?$pair@$$CBV?$basic_string@DU?$char_traits@D@std@@V?$allocator@D@2@@std@@UBitGroup@Trellis@@@std@@PEAX@1@@Z
	??$_Erase_tree@V?$allocator@U?$_Tree_node@U?$pair@$$CBV?$basic_string@DU?$char_traits@D@std@@V?$allocator@D@2@@std@@UEnumSettingBits@Trellis@@@std@@PEAX@std@@@std@@@?$_Tree_val@U?$_Tree_simple_types@U?$pair@$$CBV?$basic_string@DU?$char_traits@D@std@@V?$allocator@D@2@@std@@UEnumSettingBits@Trellis@@@std@@@std@@@std@@QEAAXAEAV?$allocator@U?$_Tree_node@U?$pair@$$CBV?$basic_string@DU?$char_traits@D@std@@V?$allocator@D@2@@std@@UEnumSettingBits@Trellis@@@std@@PEAX@std@@@1@PEAU?$_Tree_node@U?$pair@$$CBV?$basic_string@DU?$char_traits@D@std@@V?$allocator@D@2@@std@@UEnumSettingBits@Trellis@@@std@@PEAX@1@@Z
	??$_Erase_tree@V?$allocator@U?$_Tree_node@U?$pair@$$CBV?$basic_string@DU?$char_traits@D@std@@V?$allocator@D@2@@std@@UMuxBits@Trellis@@@std@@PEAX@std@@@std@@@?$_Tree_val@U?$_Tree_simple_types@U?$pair@$$CBV?$basic_string@DU?$char_traits@D@std@@V?$allocator@D@2@@std@@UMuxBits@Trellis@@@std@@@std@@@std@@QEAAXAEAV?$allocator@U?$_Tree_node@U?$pair@$$CBV?$basic_string@DU?$char_traits@D@std@@V?$allocator@D@2@@std@@UMuxBits@Trellis@@@std@@PEAX@std@@@1@PEAU?$_Tree_node@U?$pair@$$CBV?$basic_string@DU?$char_traits@D@std@@V?$allocator@D@2@@std@@UMuxBits@Trellis@@@std@@PEAX@1@@Z
	??$_Erase_tree@V?$allocator@U?$_Tree_node@U?$pair@$$CBV?$basic_string@DU?$char_traits@D@std@@V?$allocator@D@2@@std@@UTileConfig@Trellis@@@std@@PEAX@std@@@std@@@?$_Tree_val@U?$_Tree_simple_types@U?$pair@$$CBV?$basic_string@DU?$char_traits@D@std@@V?$allocator@D@2@@std@@UTileConfig@Trellis@@@std@@@std@@@std@@QEAAXAEAV?$allocator@U?$_Tree_node@U?$pair@$$CBV?$basic_string@DU?$char_traits@D@std@@V?$allocator@D@2@@std@@UTileConfig@Trellis@@@std@@PEAX@std@@@1@PEAU?$_Tree_node@U?$pair@$$CBV?$basic_string@DU?$char_traits@D@std@@V?$allocator@D@2@@std@@UTileConfig@Trellis@@@std@@PEAX@1@@Z
	??$_Erase_tree@V?$allocator@U?$_Tree_node@U?$pair@$$CBV?$basic_string@DU?$char_traits@D@std@@V?$allocator@D@2@@std@@UWordSettingBits@Trellis@@@std@@PEAX@std@@@std@@@?$_Tree_val@U?$_Tree_simple_types@U?$pair@$$CBV?$basic_string@DU?$char_traits@D@std@@V?$allocator@D@2@@std@@UWordSettingBits@Trellis@@@std@@@std@@@std@@QEAAXAEAV?$allocator@U?$_Tree_node@U?$pair@$$CBV?$basic_string@DU?$char_traits@D@std@@V?$allocator@D@2@@std@@UWordSettingBits@Trellis@@@std@@PEAX@std@@@1@PEAU?$_Tree_node@U?$pair@$$CBV?$basic_string@DU?$char_traits@D@std@@V?$allocator@D@2@@std@@UWordSettingBits@Trellis@@@std@@PEAX@1@@Z
	??$_Erase_tree@V?$allocator@U?$_Tree_node@U?$pair@$$CBV?$basic_string@DU?$char_traits@D@std@@V?$allocator@D@2@@std@@V12@@std@@PEAX@std@@@std@@@?$_Tree_val@U?$_Tree_simple_types@U?$pair@$$CBV?$basic_string@DU?$char_traits@D@std@@V?$allocator@D@2@@std@@V12@@std@@@std@@@std@@QEAAXAEAV?$allocator@U?$_Tree_node@U?$pair@$$CBV?$basic_string@DU?$char_traits@D@std@@V?$allocator@D@2@@std@@V12@@std@@PEAX@std@@@1@PEAU?$_Tree_node@U?$pair@$$CBV?$basic_string@DU?$char_traits@D@std@@V?$allocator@D@2@@std@@V12@@std@@PEAX@1@@Z
	??$_Erase_tree@V?$allocator@U?$_Tree_node@U?$pair@$$CBV?$basic_string@DU?$char_traits@D@std@@V?$allocator@D@2@@std@@V?$basic_ptree@V?$basic_string@DU?$char_traits@D@std@@V?$allocator@D@2@@std@@V12@U?$less@V?$basic_string@DU?$char_traits@D@std@@V?$allocator@D@2@@std@@@2@@property_tree@boost@@@std@@PEAX@std@@@std@@@?$_Tree_val@U?$_Tree_simple_types@U?$pair@$$CBV?$basic_string@DU?$char_traits@D@std@@V?$allocator@D@2@@std@@V?$basic_ptree@V?$basic_string@DU?$char_traits@D@std@@V?$allocator@D@2@@std@@V12@U?$less@V?$basic_string@DU?$char_traits@D@std@@V?$allocator@D@2@@std@@@2@@property_tree@boost@@@std@@@std@@@std@@QEAAXAEAV?$allocator@U?$_Tree_node@U?$pair@$$CBV?$basic_string@DU?$char_traits@D@std@@V?$allocator@D@2@@std@@V?$basic_ptree@V?$basic_string@DU?$char_traits@D@std@@V?$allocator@D@2@@std@@V12@U?$less@V?$basic_string@DU?$char_traits@D@std@@V?$allocator@D@2@@std@@@2@@property_tree@boost@@@std@@PEAX@std@@@1@PEAU?$_Tree_node@U?$pair@$$CBV?$basic_string@DU?$char_traits@D@std@@V?$allocator@D@2@@std@@V?$basic_ptree@V?$basic_string@DU?$char_traits@D@std@@V?$allocator@D@2@@std@@V12@U?$less@V?$basic_string@DU?$char_traits@D@std@@V?$allocator@D@2@@std@@@2@@property_tree@boost@@@std@@PEAX@1@@Z
	??$_Erase_tree@V?$allocator@U?$_Tree_node@U?$pair@$$CBV?$basic_string@DU?$char_traits@D@std@@V?$allocator@D@2@@std@@V?$set@UFixedConnection@Trellis@@U?$less@UFixedConnection@Trellis@@@std@@V?$allocator@UFixedConnection@Trellis@@@4@@2@@std@@PEAX@std@@@std@@@?$_Tree_val@U?$_Tree_simple_types@U?$pair@$$CBV?$basic_string@DU?$char_traits@D@std@@V?$allocator@D@2@@std@@V?$set@UFixedConnection@Trellis@@U?$less@UFixedConnection@Trellis@@@std@@V?$allocator@UFixedConnection@Trellis@@@4@@2@@std@@@std@@@std@@QEAAXAEAV?$allocator@U?$_Tree_node@U?$pair@$$CBV?$basic_string@DU?$char_traits@D@std@@V?$allocator@D@2@@std@@V?$set@UFixedConnection@Trellis@@U?$less@UFixedConnection@Trellis@@@std@@V?$allocator@UFixedConnection@Trellis@@@4@@2@@std@@PEAX@std@@@1@PEAU?$_Tree_node@U?$pair@$$CBV?$basic_string@DU?$char_traits@D@std@@V?$allocator@D@2@@std@@V?$set@UFixedConnection@Trellis@@U?$less@UFixedConnection@Trellis@@@std@@V?$allocator@UFixedConnection@Trellis@@@4@@2@@std@@PEAX@1@@Z
	??$_Erase_tree@V?$allocator@U?$_Tree_node@U?$pair@$$CBV?$basic_string@DU?$char_traits@D@std@@V?$allocator@D@2@@std@@V?$shared_ptr@VTile@Trellis@@@2@@std@@PEAX@std@@@std@@@?$_Tree_val@U?$_Tree_simple_types@U?$pair@$$CBV?$basic_string@DU?$char_traits@D@std@@V?$allocator@D@2@@std@@V?$shared_ptr@VTile@Trellis@@@2@@std@@@std@@@std@@QEAAXAEAV?$allocator@U?$_Tree_node@U?$pair@$$CBV?$basic_string@DU?$char_traits@D@std@@V?$allocator@D@2@@std@@V?$shared_ptr@VTile@Trellis@@@2@@std@@PEAX@std@@@1@PEAU?$_Tree_node@U?$pair@$$CBV?$basic_string@DU?$char_traits@D@std@@V?$allocator@D@2@@std@@V?$shared_ptr@VTile@Trellis@@@2@@std@@PEAX@1@@Z
	??$_Erase_tree@V?$allocator@U?$_Tree_node@U?$pair@$$CBV?$basic_string@DU?$char_traits@D@std@@V?$allocator@D@2@@std@@V?$vector@UChangedBit@Trellis@@V?$allocator@UChangedBit@Trellis@@@std@@@2@@std@@PEAX@std@@@std@@@?$_Tree_val@U?$_Tree_simple_types@U?$pair@$$CBV?$basic_string@DU?$char_traits@D@std@@V?$allocator@D@2@@std@@V?$vector@UChangedBit@Trellis@@V?$allocator@UChangedBit@Trellis@@@std@@@2@@std@@@std@@@std@@QEAAXAEAV?$allocator@U?$_Tree_node@U?$pair@$$CBV?$basic_string@DU?$char_traits@D@std@@V?$allocator@D@2@@std@@V?$vector@UChangedBit@Trellis@@V?$allocator@UChangedBit@Trellis@@@std@@@2@@std@@PEAX@std@@@1@PEAU?$_Tree_node@U?$pair@$$CBV?$basic_string@DU?$char_traits@D@std@@V?$allocator@D@2@@std@@V?$vector@UChangedBit@Trellis@@V?$allocator@UChangedBit@Trellis@@@std@@@2@@std@@PEAX@1@@Z
	??$_Erase_tree@V?$allocator@U?$_Tree_node@UConfigBit@Trellis@@PEAX@std@@@std@@@?$_Tree_val@U?$_Tree_simple_types@UConfigBit@Trellis@@@std@@@std@@QEAAXAEAV?$allocator@U?$_Tree_node@UConfigBit@Trellis@@PEAX@std@@@1@PEAU?$_Tree_node@UConfigBit@Trellis@@PEAX@1@@Z
	??$_Erase_tree@V?$allocator@U?$_Tree_node@UFixedConnection@Trellis@@PEAX@std@@@std@@@?$_Tree_val@U?$_Tree_simple_types@UFixedConnection@Trellis@@@std@@@std@@QEAAXAEAV?$allocator@U?$_Tree_node@UFixedConnection@Trellis@@PEAX@std@@@1@PEAU?$_Tree_node@UFixedConnection@Trellis@@PEAX@1@@Z
	??$_Erase_tree@V?$allocator@U?$_Tree_node@URelId@DDChipDb@Trellis@@PEAX@std@@@std@@@?$_Tree_val@U?$_Tree_simple_types@URelId@DDChipDb@Trellis@@@std@@@std@@QEAAXAEAV?$allocator@U?$_Tree_node@URelId@DDChipDb@Trellis@@PEAX@std@@@1@PEAU?$_Tree_node@URelId@DDChipDb@Trellis@@PEAX@1@@Z
	??$_Erase_tree@V?$allocator@U?$_Tree_node@V?$basic_string@DU?$char_traits@D@std@@V?$allocator@D@2@@std@@PEAX@std@@@std@@@?$_Tree_val@U?$_Tree_simple_types@V?$basic_string@DU?$char_traits@D@std@@V?$allocator@D@2@@std@@@std@@@std@@QEAAXAEAV?$allocator@U?$_Tree_node@V?$basic_string@DU?$char_traits@D@std@@V?$allocator@D@2@@std@@PEAX@std@@@1@PEAU?$_Tree_node@V?$basic_string@DU?$char_traits@D@std@@V?$allocator@D@2@@std@@PEAX@1@@Z
	??$_Erase_tree_and_orphan@V?$allocator@U?$_Tree_node@U?$pair@$$CBGV?$vector@GV?$allocator@G@std@@@std@@@std@@PEAX@std@@@std@@@?$_Tree_val@U?$_Tree_simple_types@U?$pair@$$CBGV?$vector@GV?$allocator@G@std@@@std@@@std@@@std@@@std@@QEAAXAEAV?$allocator@U?$_Tree_node@U?$pair@$$CBGV?$vector@GV?$allocator@G@std@@@std@@@std@@PEAX@std@@@1@PEAU?$_Tree_node@U?$pair@$$CBGV?$vector@GV?$allocator@G@std@@@std@@@std@@PEAX@1@@Z
	??$_Erase_tree_and_orphan@V?$allocator@U?$_Tree_node@U?$pair@$$CBHU?$pair@URoutingId@Trellis@@W4PortDirection@2@@std@@@std@@PEAX@std@@@std@@@?$_Tree_val@U?$_Tree_simple_types@U?$pair@$$CBHU?$pair@URoutingId@Trellis@@W4PortDirection@2@@std@@@std@@@std@@@std@@QEAAXAEAV?$allocator@U?$_Tree_node@U?$pair@$$CBHU?$pair@URoutingId@Trellis@@W4PortDirection@2@@std@@@std@@PEAX@std@@@1@PEAU?$_Tree_node@U?$pair@$$CBHU?$pair@URoutingId@Trellis@@W4PortDirection@2@@std@@@std@@PEAX@1@@Z
	??$_Erase_tree_and_orphan@V?$allocator@U?$_Tree_node@U?$pair@$$CBV?$basic_string@DU?$char_traits@D@std@@V?$allocator@D@2@@std@@UArcData@Trellis@@@std@@PEAX@std@@@std@@@?$_Tree_val@U?$_Tree_simple_types@U?$pair@$$CBV?$basic_string@DU?$char_traits@D@std@@V?$allocator@D@2@@std@@UArcData@Trellis@@@std@@@std@@@std@@QEAAXAEAV?$allocator@U?$_Tree_node@U?$pair@$$CBV?$basic_string@DU?$char_traits@D@std@@V?$allocator@D@2@@std@@UArcData@Trellis@@@std@@PEAX@std@@@1@PEAU?$_Tree_node@U?$pair@$$CBV?$basic_string@DU?$char_traits@D@std@@V?$allocator@D@2@@std@@UArcData@Trellis@@@std@@PEAX@1@@Z
	??$_Erase_tree_and_orphan@V?$allocator@U?$_Tree_node@U?$pair@$$CBV?$basic_string@DU?$char_traits@D@std@@V?$allocator@D@2@@std@@UBitGroup@Trellis@@@std@@PEAX@std@@@std@@@?$_Tree_val@U?$_Tree_simple_types@U?$pair@$$CBV?$basic_string@DU?$char_traits@D@std@@V?$allocator@D@2@@std@@UBitGroup@Trellis@@@std@@@std@@@std@@QEAAXAEAV?$allocator@U?$_Tree_node@U?$pair@$$CBV?$basic_string@DU?$char_traits@D@std@@V?$allocator@D@2@@std@@UBitGroup@Trellis@@@std@@PEAX@std@@@1@PEAU?$_Tree_node@U?$pair@$$CBV?$basic_string@DU?$char_traits@D@std@@V?$allocator@D@2@@std@@UBitGroup@Trellis@@@std@@PEAX@1@@Z
	??$_Erase_tree_and_orphan@V?$allocator@U?$_Tree_node@U?$pair@$$CBV?$basic_string@DU?$char_traits@D@std@@V?$allocator@D@2@@std@@V12@@std@@PEAX@std@@@std@@@?$_Tree_val@U?$_Tree_simple_types@U?$pair@$$CBV?$basic_string@DU?$char_traits@D@std@@V?$allocator@D@2@@std@@V12@@std@@@std@@@std@@QEAAXAEAV?$allocator@U?$_Tree_node@U?$pair@$$CBV?$basic_string@DU?$char_traits@D@std@@V?$allocator@D@2@@std@@V12@@std@@PEAX@std@@@1@PEAU?$_Tree_node@U?$pair@$$CBV?$basic_string@DU?$char_traits@D@std@@V?$allocator@D@2@@std@@V12@@std@@PEAX@1@@Z
	??$_Erase_tree_and_orphan@V?$allocator@U?$_Tree_node@U?$pair@$$CBV?$basic_string@DU?$char_traits@D@std@@V?$allocator@D@2@@std@@V?$shared_ptr@VTile@Trellis@@@2@@std@@PEAX@std@@@std@@@?$_Tree_val@U?$_Tree_simple_types@U?$pair@$$CBV?$basic_string@DU?$char_traits@D@std@@V?$allocator@D@2@@std@@V?$shared_ptr@VTile@Trellis@@@2@@std@@@std@@@std@@QEAAXAEAV?$allocator@U?$_Tree_node@U?$pair@$$CBV?$basic_string@DU?$char_traits@D@std@@V?$allocator@D@2@@std@@V?$shared_ptr@VTile@Trellis@@@2@@std@@PEAX@std@@@1@PEAU?$_Tree_node@U?$pair@$$CBV?$basic_string@DU?$char_traits@D@std@@V?$allocator@D@2@@std@@V?$shared_ptr@VTile@Trellis@@@2@@std@@PEAX@1@@Z
	??$_Erase_tree_and_orphan@V?$allocator@U?$_Tree_node@UConfigBit@Trellis@@PEAX@std@@@std@@@?$_Tree_val@U?$_Tree_simple_types@UConfigBit@Trellis@@@std@@@std@@QEAAXAEAV?$allocator@U?$_Tree_node@UConfigBit@Trellis@@PEAX@std@@@1@PEAU?$_Tree_node@UConfigBit@Trellis@@PEAX@1@@Z
	??$_Erase_tree_and_orphan@V?$allocator@U?$_Tree_node@UFixedConnection@Trellis@@PEAX@std@@@std@@@?$_Tree_val@U?$_Tree_simple_types@UFixedConnection@Trellis@@@std@@@std@@QEAAXAEAV?$allocator@U?$_Tree_node@UFixedConnection@Trellis@@PEAX@std@@@1@PEAU?$_Tree_node@UFixedConnection@Trellis@@PEAX@1@@Z
	??$_Erase_tree_and_orphan@V?$allocator@U?$_Tree_node@URelId@DDChipDb@Trellis@@PEAX@std@@@std@@@?$_Tree_val@U?$_Tree_simple_types@URelId@DDChipDb@Trellis@@@std@@@std@@QEAAXAEAV?$allocator@U?$_Tree_node@URelId@DDChipDb@Trellis@@PEAX@std@@@1@PEAU?$_Tree_node@URelId@DDChipDb@Trellis@@PEAX@1@@Z
	??$_Fgetc@D@std@@YA_NAEADPEAU_iobuf@@@Z
	??$_Fill_memset@PEAEH@std@@YAXPEAEH_K@Z
	??$_Fill_vbool@V?$_Vb_iterator@U?$_Wrap_alloc@V?$allocator@I@std@@@std@@@std@@@std@@YAXV?$_Vb_iterator@U?$_Wrap_alloc@V?$allocator@I@std@@@std@@@0@V10@_N@Z
	??$_Fill_zero_memset@PEAI@std@@YAXPEAI_K@Z
	??$_Find@E@_Bitmap@std@@QEBA_NE@Z
	??$_Find@H@?$_Tree@V?$_Tmap_traits@HURoutingWire@Trellis@@U?$less@H@std@@V?$allocator@U?$pair@$$CBHURoutingWire@Trellis@@@std@@@4@$0A@@std@@@std@@AEBAPEAU?$_Tree_node@U?$pair@$$CBHURoutingWire@Trellis@@@std@@PEAX@1@AEBH@Z
	??$_Find@U?$pair@_K_K@std@@@?$_Tree@V?$_Tmap_traits@U?$pair@_K_K@std@@ULocationData@DDChipDb@Trellis@@U?$less@U?$pair@_K_K@std@@@2@V?$allocator@U?$pair@$$CBU?$pair@_K_K@std@@ULocationData@DDChipDb@Trellis@@@std@@@2@$0A@@std@@@std@@AEBAPEAU?$_Tree_node@U?$pair@$$CBU?$pair@_K_K@std@@ULocationData@DDChipDb@Trellis@@@std@@PEAX@1@AEBU?$pair@_K_K@1@@Z
	??$_Find@UConfigBit@Trellis@@@?$_Hash@V?$_Uset_traits@UConfigBit@Trellis@@V?$_Uhash_compare@UConfigBit@Trellis@@U?$hash@UConfigBit@Trellis@@@std@@U?$equal_to@UConfigBit@Trellis@@@4@@std@@V?$allocator@UConfigBit@Trellis@@@4@$0A@@std@@@std@@AEBAPEAU?$_List_node@UConfigBit@Trellis@@PEAX@1@AEBUConfigBit@Trellis@@_K@Z
	??$_Find@UTileLocator@Trellis@@@?$_Hash@V?$_Umap_traits@UTileLocator@Trellis@@V?$shared_ptr@VTileBitDatabase@Trellis@@@std@@V?$_Uhash_compare@UTileLocator@Trellis@@U?$hash@UTileLocator@Trellis@@@std@@U?$equal_to@UTileLocator@Trellis@@@4@@4@V?$allocator@U?$pair@$$CBUTileLocator@Trellis@@V?$shared_ptr@VTileBitDatabase@Trellis@@@std@@@std@@@4@$0A@@std@@@std@@AEBAPEAU?$_List_node@U?$pair@$$CBUTileLocator@Trellis@@V?$shared_ptr@VTileBitDatabase@Trellis@@@std@@@std@@PEAX@1@AEBUTileLocator@Trellis@@_K@Z
	??$_Find@V?$basic_string@DU?$char_traits@D@std@@V?$allocator@D@2@@std@@@?$_Hash@V?$_Umap_traits@V?$basic_string@DU?$char_traits@D@std@@V?$allocator@D@2@@std@@HV?$_Uhash_compare@V?$basic_string@DU?$char_traits@D@std@@V?$allocator@D@2@@std@@U?$hash@V?$basic_string@DU?$char_traits@D@std@@V?$allocator@D@2@@std@@@2@U?$equal_to@V?$basic_string@DU?$char_traits@D@std@@V?$allocator@D@2@@std@@@2@@2@V?$allocator@U?$pair@$$CBV?$basic_string@DU?$char_traits@D@std@@V?$allocator@D@2@@std@@H@std@@@2@$0A@@std@@@std@@AEBAPEAU?$_List_node@U?$pair@$$CBV?$basic_string@DU?$char_traits@D@std@@V?$allocator@D@2@@std@@H@std@@PEAX@1@AEBV?$basic_string@DU?$char_traits@D@std@@V?$allocator@D@2@@1@_K@Z
	??$_Find@V?$basic_string@DU?$char_traits@D@std@@V?$allocator@D@2@@std@@@?$_Tree@V?$_Tmap_traits@V?$basic_string@DU?$char_traits@D@std@@V?$allocator@D@2@@std@@UArcData@Trellis@@U?$less@V?$basic_string@DU?$char_traits@D@std@@V?$allocator@D@2@@std@@@2@V?$allocator@U?$pair@$$CBV?$basic_string@DU?$char_traits@D@std@@V?$allocator@D@2@@std@@UArcData@Trellis@@@std@@@2@$0A@@std@@@std@@AEBAPEAU?$_Tree_node@U?$pair@$$CBV?$basic_string@DU?$char_traits@D@std@@V?$allocator@D@2@@std@@UArcData@Trellis@@@std@@PEAX@1@AEBV?$basic_string@DU?$char_traits@D@std@@V?$allocator@D@2@@1@@Z
	??$_Find@V?$basic_string@DU?$char_traits@D@std@@V?$allocator@D@2@@std@@@?$_Tree@V?$_Tmap_traits@V?$basic_string@DU?$char_traits@D@std@@V?$allocator@D@2@@std@@UBitGroup@Trellis@@U?$less@V?$basic_string@DU?$char_traits@D@std@@V?$allocator@D@2@@std@@@2@V?$allocator@U?$pair@$$CBV?$basic_string@DU?$char_traits@D@std@@V?$allocator@D@2@@std@@UBitGroup@Trellis@@@std@@@2@$0A@@std@@@std@@AEBAPEAU?$_Tree_node@U?$pair@$$CBV?$basic_string@DU?$char_traits@D@std@@V?$allocator@D@2@@std@@UBitGroup@Trellis@@@std@@PEAX@1@AEBV?$basic_string@DU?$char_traits@D@std@@V?$allocator@D@2@@1@@Z
	??$_Find@V?$basic_string@DU?$char_traits@D@std@@V?$allocator@D@2@@std@@@?$_Tree@V?$_Tmap_traits@V?$basic_string@DU?$char_traits@D@std@@V?$allocator@D@2@@std@@UEnumSettingBits@Trellis@@U?$less@V?$basic_string@DU?$char_traits@D@std@@V?$allocator@D@2@@std@@@2@V?$allocator@U?$pair@$$CBV?$basic_string@DU?$char_traits@D@std@@V?$allocator@D@2@@std@@UEnumSettingBits@Trellis@@@std@@@2@$0A@@std@@@std@@AEBAPEAU?$_Tree_node@U?$pair@$$CBV?$basic_string@DU?$char_traits@D@std@@V?$allocator@D@2@@std@@UEnumSettingBits@Trellis@@@std@@PEAX@1@AEBV?$basic_string@DU?$char_traits@D@std@@V?$allocator@D@2@@1@@Z
	??$_Find@V?$basic_string@DU?$char_traits@D@std@@V?$allocator@D@2@@std@@@?$_Tree@V?$_Tmap_traits@V?$basic_string@DU?$char_traits@D@std@@V?$allocator@D@2@@std@@UMuxBits@Trellis@@U?$less@V?$basic_string@DU?$char_traits@D@std@@V?$allocator@D@2@@std@@@2@V?$allocator@U?$pair@$$CBV?$basic_string@DU?$char_traits@D@std@@V?$allocator@D@2@@std@@UMuxBits@Trellis@@@std@@@2@$0A@@std@@@std@@AEBAPEAU?$_Tree_node@U?$pair@$$CBV?$basic_string@DU?$char_traits@D@std@@V?$allocator@D@2@@std@@UMuxBits@Trellis@@@std@@PEAX@1@AEBV?$basic_string@DU?$char_traits@D@std@@V?$allocator@D@2@@1@@Z
	??$_Find@V?$basic_string@DU?$char_traits@D@std@@V?$allocator@D@2@@std@@@?$_Tree@V?$_Tmap_traits@V?$basic_string@DU?$char_traits@D@std@@V?$allocator@D@2@@std@@UTileConfig@Trellis@@U?$less@V?$basic_string@DU?$char_traits@D@std@@V?$allocator@D@2@@std@@@2@V?$allocator@U?$pair@$$CBV?$basic_string@DU?$char_traits@D@std@@V?$allocator@D@2@@std@@UTileConfig@Trellis@@@std@@@2@$0A@@std@@@std@@AEBAPEAU?$_Tree_node@U?$pair@$$CBV?$basic_string@DU?$char_traits@D@std@@V?$allocator@D@2@@std@@UTileConfig@Trellis@@@std@@PEAX@1@AEBV?$basic_string@DU?$char_traits@D@std@@V?$allocator@D@2@@1@@Z
	??$_Find@V?$basic_string@DU?$char_traits@D@std@@V?$allocator@D@2@@std@@@?$_Tree@V?$_Tmap_traits@V?$basic_string@DU?$char_traits@D@std@@V?$allocator@D@2@@std@@UWordSettingBits@Trellis@@U?$less@V?$basic_string@DU?$char_traits@D@std@@V?$allocator@D@2@@std@@@2@V?$allocator@U?$pair@$$CBV?$basic_string@DU?$char_traits@D@std@@V?$allocator@D@2@@std@@UWordSettingBits@Trellis@@@std@@@2@$0A@@std@@@std@@AEBAPEAU?$_Tree_node@U?$pair@$$CBV?$basic_string@DU?$char_traits@D@std@@V?$allocator@D@2@@std@@UWordSettingBits@Trellis@@@std@@PEAX@1@AEBV?$basic_string@DU?$char_traits@D@std@@V?$allocator@D@2@@1@@Z
	??$_Find@V?$basic_string@DU?$char_traits@D@std@@V?$allocator@D@2@@std@@@?$_Tree@V?$_Tmap_traits@V?$basic_string@DU?$char_traits@D@std@@V?$allocator@D@2@@std@@V?$basic_ptree@V?$basic_string@DU?$char_traits@D@std@@V?$allocator@D@2@@std@@V12@U?$less@V?$basic_string@DU?$char_traits@D@std@@V?$allocator@D@2@@std@@@2@@property_tree@boost@@U?$less@V?$basic_string@DU?$char_traits@D@std@@V?$allocator@D@2@@std@@@2@V?$allocator@U?$pair@$$CBV?$basic_string@DU?$char_traits@D@std@@V?$allocator@D@2@@std@@V?$basic_ptree@V?$basic_string@DU?$char_traits@D@std@@V?$allocator@D@2@@std@@V12@U?$less@V?$basic_string@DU?$char_traits@D@std@@V?$allocator@D@2@@std@@@2@@property_tree@boost@@@std@@@2@$0A@@std@@@std@@AEBAPEAU?$_Tree_node@U?$pair@$$CBV?$basic_string@DU?$char_traits@D@std@@V?$allocator@D@2@@std@@V?$basic_ptree@V?$basic_string@DU?$char_traits@D@std@@V?$allocator@D@2@@std@@V12@U?$less@V?$basic_string@DU?$char_traits@D@std@@V?$allocator@D@2@@std@@@2@@property_tree@boost@@@std@@PEAX@1@AEBV?$basic_string@DU?$char_traits@D@std@@V?$allocator@D@2@@1@@Z
	??$_Find@V?$basic_string@DU?$char_traits@D@std@@V?$allocator@D@2@@std@@@?$_Tree@V?$_Tset_traits@V?$basic_string@DU?$char_traits@D@std@@V?$allocator@D@2@@std@@U?$less@V?$basic_string@DU?$char_traits@D@std@@V?$allocator@D@2@@std@@@2@V?$allocator@V?$basic_string@DU?$char_traits@D@std@@V?$allocator@D@2@@std@@@2@$0A@@std@@@std@@AEBAPEAU?$_Tree_node@V?$basic_string@DU?$char_traits@D@std@@V?$allocator@D@2@@std@@PEAX@1@AEBV?$basic_string@DU?$char_traits@D@std@@V?$allocator@D@2@@1@@Z
	??$_Find_first_of_vectorized@$$CBD$$CBD@std@@YAPEBDQEBD000@Z
	??$_Find_hint@I@?$_Tree@V?$_Tmap_traits@IIU?$less@I@std@@V?$allocator@U?$pair@$$CBII@std@@@2@$0A@@std@@@std@@IEBA?AU?$_Tree_find_hint_result@PEAU?$_Tree_node@U?$pair@$$CBII@std@@PEAX@std@@@1@QEAU?$_Tree_node@U?$pair@$$CBII@std@@PEAX@1@AEBI@Z
	??$_Find_hint@U?$pair@HH@std@@@?$_Tree@V?$_Tmap_traits@U?$pair@HH@std@@HU?$less@U?$pair@HH@std@@@2@V?$allocator@U?$pair@$$CBU?$pair@HH@std@@H@std@@@2@$0A@@std@@@std@@IEBA?AU?$_Tree_find_hint_result@PEAU?$_Tree_node@U?$pair@$$CBU?$pair@HH@std@@H@std@@PEAX@std@@@1@QEAU?$_Tree_node@U?$pair@$$CBU?$pair@HH@std@@H@std@@PEAX@1@AEBU?$pair@HH@1@@Z
	??$_Find_hint@U?$pair@HH@std@@@?$_Tree@V?$_Tmap_traits@U?$pair@HH@std@@U12@U?$less@U?$pair@HH@std@@@2@V?$allocator@U?$pair@$$CBU?$pair@HH@std@@U12@@std@@@2@$0A@@std@@@std@@IEBA?AU?$_Tree_find_hint_result@PEAU?$_Tree_node@U?$pair@$$CBU?$pair@HH@std@@U12@@std@@PEAX@std@@@1@QEAU?$_Tree_node@U?$pair@$$CBU?$pair@HH@std@@U12@@std@@PEAX@1@AEBU?$pair@HH@1@@Z
	??$_Find_hint@U?$pair@HH@std@@@?$_Tree@V?$_Tmap_traits@U?$pair@HH@std@@V?$vector@USpineInfo@Trellis@@V?$allocator@USpineInfo@Trellis@@@std@@@2@U?$less@U?$pair@HH@std@@@2@V?$allocator@U?$pair@$$CBU?$pair@HH@std@@V?$vector@USpineInfo@Trellis@@V?$allocator@USpineInfo@Trellis@@@std@@@2@@std@@@2@$0A@@std@@@std@@IEBA?AU?$_Tree_find_hint_result@PEAU?$_Tree_node@U?$pair@$$CBU?$pair@HH@std@@V?$vector@USpineInfo@Trellis@@V?$allocator@USpineInfo@Trellis@@@std@@@2@@std@@PEAX@std@@@1@QEAU?$_Tree_node@U?$pair@$$CBU?$pair@HH@std@@V?$vector@USpineInfo@Trellis@@V?$allocator@USpineInfo@Trellis@@@std@@@2@@std@@PEAX@1@AEBU?$pair@HH@1@@Z
	??$_Find_last@UConfigBit@Trellis@@@?$_Hash@V?$_Uset_traits@UConfigBit@Trellis@@V?$_Uhash_compare@UConfigBit@Trellis@@U?$hash@UConfigBit@Trellis@@@std@@U?$equal_to@UConfigBit@Trellis@@@4@@std@@V?$allocator@UConfigBit@Trellis@@@4@$0A@@std@@@std@@IEBA?AU?$_Hash_find_last_result@PEAU?$_List_node@UConfigBit@Trellis@@PEAX@std@@@1@AEBUConfigBit@Trellis@@_K@Z
	??$_Find_last@UTileLocator@Trellis@@@?$_Hash@V?$_Umap_traits@UTileLocator@Trellis@@V?$shared_ptr@VTileBitDatabase@Trellis@@@std@@V?$_Uhash_compare@UTileLocator@Trellis@@U?$hash@UTileLocator@Trellis@@@std@@U?$equal_to@UTileLocator@Trellis@@@4@@4@V?$allocator@U?$pair@$$CBUTileLocator@Trellis@@V?$shared_ptr@VTileBitDatabase@Trellis@@@std@@@std@@@4@$0A@@std@@@std@@IEBA?AU?$_Hash_find_last_result@PEAU?$_List_node@U?$pair@$$CBUTileLocator@Trellis@@V?$shared_ptr@VTileBitDatabase@Trellis@@@std@@@std@@PEAX@std@@@1@AEBUTileLocator@Trellis@@_K@Z
